TN:
SF:C:\msys64\mingw64\include\c++\14.1.0\iomanip
FN:232,_ZSt4setwi
FNDA:5000,_ZSt4setwi
FNF:1
FNH:1
DA:232,5000
DA:233,5000
LF:2
LH:2
end_of_record
SF:C:\msys64\mingw64\include\c++\14.1.0\bits\stl_uninitialized.h
FN:145,_ZNSt20__uninitialized_copyILb1EE13__uninit_copyISt13move_iteratorIPiES3_EET0_T_S6_S5_
FNDA:0,_ZNSt20__uninitialized_copyILb1EE13__uninit_copyISt13move_iteratorIPiES3_EET0_T_S6_S5_
FN:163,_ZSt18uninitialized_copyISt13move_iteratorIPiES1_ET0_T_S4_S3_
FNDA:0,_ZSt18uninitialized_copyISt13move_iteratorIPiES1_ET0_T_S4_S3_
FN:366,_ZSt22__uninitialized_copy_aISt13move_iteratorIPiES1_iET0_T_S4_S3_RSaIT1_E
FNDA:0,_ZSt22__uninitialized_copy_aISt13move_iteratorIPiES1_iET0_T_S4_S3_RSaIT1_E
FN:393,_ZSt34__uninitialized_move_if_noexcept_aIPiS0_SaIiEET0_T_S3_S2_RT1_
FNDA:0,_ZSt34__uninitialized_move_if_noexcept_aIPiS0_SaIiEET0_T_S3_S2_RT1_
FN:1112,_ZSt14__relocate_a_1IiiENSt9enable_ifIXsrSt24__is_bitwise_relocatableIT_vE5valueEPS2_E4typeES4_S4_S4_RSaIT0_E
FNDA:14,_ZSt14__relocate_a_1IiiENSt9enable_ifIXsrSt24__is_bitwise_relocatableIT_vE5valueEPS2_E4typeES4_S4_S4_RSaIT0_E
FN:1139,_ZSt12__relocate_aIPiS0_SaIiEET0_T_S3_S2_RT1_
FNDA:14,_ZSt12__relocate_aIPiS0_SaIiEET0_T_S3_S2_RT1_
FNF:6
FNH:2
DA:145,0
DA:147,0
DA:163,0
DA:174,0
DA:181,0
DA:185,0
DA:366,0
DA:373,0
DA:393,0
DA:399,0
DA:400,0
DA:1112,14
DA:1116,14
DA:1117,14
DA:1129,13
DA:1131,14
DA:1139,14
DA:1145,14
DA:1147,14
LF:19
LH:8
end_of_record
SF:C:\workspace\matrixGenerator\source\PrintRandomNumbers.cpp
FN:6,_ZN18PrintRandomNumbersC2ER23RandomGeneratorAbstract
FNDA:2,_ZN18PrintRandomNumbersC2ER23RandomGeneratorAbstract
FN:9,_ZN18PrintRandomNumbers19printChoosenNumbersEj
FNDA:2,_ZN18PrintRandomNumbers19printChoosenNumbersEj
FN:26,_ZN18PrintRandomNumbers18saveChoosenNumbersEv
FNDA:2,_ZN18PrintRandomNumbers18saveChoosenNumbersEv
FN:45,_ZN18PrintRandomNumbers17readRandomNumbersEv
FNDA:2,_ZN18PrintRandomNumbers17readRandomNumbersEv
FNF:4
FNH:4
DA:6,2
DA:7,2
DA:9,2
DA:11,2
DA:13,10002
DA:15,10000
DA:17,10000
DA:19,10000
DA:21,50
DA:24,2
DA:26,2
DA:28,2
DA:30,2
DA:32,0
DA:36,10002
DA:38,10000
DA:41,2
DA:43,2
DA:45,2
DA:47,2
DA:48,2
DA:50,2
DA:52,2
DA:54,0
DA:58,2
DA:59,2
DA:61,2
DA:63,0
DA:66,2
DA:68,2
LF:30
LH:27
end_of_record
SF:C:\msys64\mingw64\include\c++\14.1.0\bits\allocator.h
DA:161,1
LF:1
LH:1
end_of_record
SF:C:\msys64\mingw64\include\c++\14.1.0\bits\new_allocator.h
FN:126,_ZNSt15__new_allocatorIiE8allocateEyPKv
FNDA:14,_ZNSt15__new_allocatorIiE8allocateEyPKv
FN:156,_ZNSt15__new_allocatorIiE10deallocateEPiy
FNDA:0,_ZNSt15__new_allocatorIiE10deallocateEPiy
FNF:2
FNH:1
DA:88,1
DA:126,14
DA:134,14
DA:138,0
DA:139,0
DA:140,0
DA:151,14
DA:156,0
DA:172,0
DA:173,0
DA:183,28
DA:191,5000
DA:233,42
LF:13
LH:7
end_of_record
SF:C:\msys64\mingw64\include\c++\14.1.0\bits\vector.tcc
FN:111,_ZNSt6vectorIiSaIiEE12emplace_backIJiEEEvDpOT_
FNDA:5000,_ZNSt6vectorIiSaIiEE12emplace_backIJiEEEvDpOT_
FN:581,_ZNSt6vectorIiSaIiEE17_M_realloc_appendIJiEEEvDpOT_
FNDA:14,_ZNSt6vectorIiSaIiEE17_M_realloc_appendIJiEEEvDpOT_
FN:607,_ZZNSt6vectorIiSaIiEE17_M_realloc_appendIJiEEEvDpOT_EN6_GuardC1EPiyRS0_
FNDA:14,_ZZNSt6vectorIiSaIiEE17_M_realloc_appendIJiEEEvDpOT_EN6_GuardC1EPiyRS0_
FN:612,_ZZNSt6vectorIiSaIiEE17_M_realloc_appendIJiEEEvDpOT_EN6_GuardD1Ev
FNDA:14,_ZZNSt6vectorIiSaIiEE17_M_realloc_appendIJiEEEvDpOT_EN6_GuardD1Ev
FN:661,_ZZNSt6vectorIiSaIiEE17_M_realloc_appendIJiEEEvDpOT_EN11_Guard_eltsC1EPiRS0_
FNDA:0,_ZZNSt6vectorIiSaIiEE17_M_realloc_appendIJiEEEvDpOT_EN11_Guard_eltsC1EPiRS0_
FN:666,_ZZNSt6vectorIiSaIiEE17_M_realloc_appendIJiEEEvDpOT_EN11_Guard_eltsD1Ev
FNDA:0,_ZZNSt6vectorIiSaIiEE17_M_realloc_appendIJiEEEvDpOT_EN11_Guard_eltsD1Ev
FNF:6
FNH:4
DA:111,5000
DA:114,5000
DA:117,4986
DA:119,4986
DA:123,14
DA:127,5000
DA:581,14
DA:590,14
DA:591,14
DA:592,0
DA:593,14
DA:594,14
DA:595,14
DA:596,14
DA:597,14
DA:607,14
DA:608,14
DA:609,14
DA:612,14
DA:614,14
DA:616,13
DA:617,14
DA:624,14
DA:634,28
DA:635,14
DA:644,14
DA:647,14
DA:648,14
DA:649,14
DA:661,0
DA:662,0
DA:663,0
DA:666,0
DA:667,0
DA:674,0
DA:676,0
DA:678,0
DA:680,0
DA:683,0
DA:684,0
DA:685,0
DA:686,14
DA:687,14
DA:688,14
DA:692,14
DA:693,14
DA:694,14
DA:695,14
LF:48
LH:35
end_of_record
SF:C:\msys64\mingw64\include\c++\14.1.0\bits\stl_iterator.h
FN:1067,_ZN9__gnu_cxx17__normal_iteratorIPiSt6vectorIiSaIiEEEC1ERKS1_
FNDA:30,_ZN9__gnu_cxx17__normal_iteratorIPiSt6vectorIiSaIiEEEC1ERKS1_
FN:1090,_ZNK9__gnu_cxx17__normal_iteratorIPiSt6vectorIiSaIiEEEdeEv
FNDA:10000,_ZNK9__gnu_cxx17__normal_iteratorIPiSt6vectorIiSaIiEEEdeEv
FN:1100,_ZN9__gnu_cxx17__normal_iteratorIPiSt6vectorIiSaIiEEEppEv
FNDA:10000,_ZN9__gnu_cxx17__normal_iteratorIPiSt6vectorIiSaIiEEEppEv
FN:1153,_ZNK9__gnu_cxx17__normal_iteratorIPiSt6vectorIiSaIiEEE4baseEv
FNDA:10030,_ZNK9__gnu_cxx17__normal_iteratorIPiSt6vectorIiSaIiEEE4baseEv
FN:1232,_ZN9__gnu_cxxneIPiSt6vectorIiSaIiEEEEbRKNS_17__normal_iteratorIT_T0_EESA_
FNDA:10002,_ZN9__gnu_cxxneIPiSt6vectorIiSaIiEEEEbRKNS_17__normal_iteratorIT_T0_EESA_
FN:1325,_ZN9__gnu_cxxmiIPiSt6vectorIiSaIiEEEENS_17__normal_iteratorIT_T0_E15difference_typeERKS8_SB_
FNDA:14,_ZN9__gnu_cxxmiIPiSt6vectorIiSaIiEEEENS_17__normal_iteratorIT_T0_E15difference_typeERKS8_SB_
FN:1508,_ZNSt13move_iteratorIPiEC1ES0_
FNDA:0,_ZNSt13move_iteratorIPiEC1ES0_
FN:1534,_ZNKSt13move_iteratorIPiE4baseEv
FNDA:0,_ZNKSt13move_iteratorIPiE4baseEv
FN:1821,_ZSt32__make_move_if_noexcept_iteratorIiSt13move_iteratorIPiEET0_PT_
FNDA:0,_ZSt32__make_move_if_noexcept_iteratorIiSt13move_iteratorIPiEET0_PT_
FN:2969,_ZSt12__miter_baseIPiEDTcl12__miter_basecldtfp_4baseEEESt13move_iteratorIT_E
FNDA:0,_ZSt12__miter_baseIPiEDTcl12__miter_basecldtfp_4baseEEESt13move_iteratorIT_E
FNF:10
FNH:6
DA:1067,30
DA:1068,30
DA:1090,10000
DA:1091,10000
DA:1100,10000
DA:1102,10000
DA:1103,10000
DA:1153,10030
DA:1154,10030
DA:1232,10002
DA:1235,10002
DA:1325,14
DA:1328,14
DA:1508,0
DA:1509,0
DA:1534,0
DA:1535,0
DA:1821,0
DA:1822,0
DA:2969,0
DA:2971,0
LF:21
LH:13
end_of_record
SF:C:\msys64\mingw64\include\c++\14.1.0\bits\stl_construct.h
FN:172,_ZNSt12_Destroy_auxILb1EE9__destroyIPiEEvT_S3_
FNDA:0,_ZNSt12_Destroy_auxILb1EE9__destroyIPiEEvT_S3_
FN:182,_ZSt8_DestroyIPiEvT_S1_
FNDA:0,_ZSt8_DestroyIPiEvT_S1_
FNF:2
FNH:0
DA:172,0
DA:182,0
DA:196,0
DA:197,0
LF:4
LH:0
end_of_record
SF:C:\msys64\mingw64\include\c++\14.1.0\bits\ptr_traits.h
FN:205,_ZSt12__to_addressIiEPT_S1_
FNDA:14,_ZSt12__to_addressIiEPT_S1_
FNF:1
FNH:1
DA:205,14
DA:208,14
LF:2
LH:2
end_of_record
SF:C:\msys64\mingw64\include\c++\14.1.0\bits\stl_vector.h
FN:98,_ZNSt12_Vector_baseIiSaIiEE17_Vector_impl_dataC2Ev
FNDA:1,_ZNSt12_Vector_baseIiSaIiEE17_Vector_impl_dataC2Ev
FN:136,_ZNSt12_Vector_baseIiSaIiEE12_Vector_implC1Ev
FNDA:1,_ZNSt12_Vector_baseIiSaIiEE12_Vector_implC1Ev
FN:300,_ZNSt12_Vector_baseIiSaIiEE19_M_get_Tp_allocatorEv
FNDA:0,_ZNSt12_Vector_baseIiSaIiEE19_M_get_Tp_allocatorEv
FN:305,_ZNKSt12_Vector_baseIiSaIiEE19_M_get_Tp_allocatorEv
FNDA:28,_ZNKSt12_Vector_baseIiSaIiEE19_M_get_Tp_allocatorEv
FN:314,_ZNSt12_Vector_baseIiSaIiEEC2Ev
FNDA:1,_ZNSt12_Vector_baseIiSaIiEEC2Ev
FN:377,_ZNSt12_Vector_baseIiSaIiEE11_M_allocateEy
FNDA:14,_ZNSt12_Vector_baseIiSaIiEE11_M_allocateEy
FN:470,_ZNSt6vectorIiSaIiEE19_S_nothrow_relocateESt17integral_constantIbLb1EE
FNDA:14,_ZNSt6vectorIiSaIiEE19_S_nothrow_relocateESt17integral_constantIbLb1EE
FN:483,_ZNSt6vectorIiSaIiEE15_S_use_relocateEv
FNDA:14,_ZNSt6vectorIiSaIiEE15_S_use_relocateEv
FN:492,_ZNSt6vectorIiSaIiEE14_S_do_relocateEPiS2_S2_RS0_St17integral_constantIbLb1EE
FNDA:14,_ZNSt6vectorIiSaIiEE14_S_do_relocateEPiS2_S2_RS0_St17integral_constantIbLb1EE
FN:504,_ZNSt6vectorIiSaIiEE11_S_relocateEPiS2_S2_RS0_
FNDA:14,_ZNSt6vectorIiSaIiEE11_S_relocateEPiS2_S2_RS0_
FN:531,_ZNSt6vectorIiSaIiEEC1Ev
FNDA:1,_ZNSt6vectorIiSaIiEEC1Ev
FN:873,_ZNSt6vectorIiSaIiEE5beginEv
FNDA:15,_ZNSt6vectorIiSaIiEE5beginEv
FN:893,_ZNSt6vectorIiSaIiEE3endEv
FNDA:15,_ZNSt6vectorIiSaIiEE3endEv
FN:992,_ZNKSt6vectorIiSaIiEE4sizeEv
FNDA:56,_ZNKSt6vectorIiSaIiEE4sizeEv
FN:998,_ZNKSt6vectorIiSaIiEE8max_sizeEv
FNDA:28,_ZNKSt6vectorIiSaIiEE8max_sizeEv
FN:1300,_ZNSt6vectorIiSaIiEE9push_backEOi
FNDA:5000,_ZNSt6vectorIiSaIiEE9push_backEOi
FN:1906,_ZNKSt6vectorIiSaIiEE12_M_check_lenEyPKc
FNDA:14,_ZNKSt6vectorIiSaIiEE12_M_check_lenEyPKc
FN:1926,_ZNSt6vectorIiSaIiEE11_S_max_sizeERKS0_
FNDA:28,_ZNSt6vectorIiSaIiEE11_S_max_sizeERKS0_
FNF:18
FNH:17
DA:98,1
DA:99,1
DA:100,1
DA:136,1
DA:141,1
DA:142,1
DA:300,0
DA:301,0
DA:305,28
DA:306,28
DA:314,1
DA:377,14
DA:380,28
DA:470,14
DA:475,14
DA:483,14
DA:488,14
DA:492,14
DA:495,14
DA:504,14
DA:512,14
DA:531,1
DA:873,15
DA:874,15
DA:893,15
DA:894,15
DA:992,56
DA:993,56
DA:998,28
DA:999,28
DA:1300,5000
DA:1301,5000
DA:1906,14
DA:1908,14
DA:1909,0
DA:1911,14
DA:1912,14
DA:1926,28
DA:1931,28
DA:1933,28
DA:1934,28
LF:41
LH:38
end_of_record
SF:C:\msys64\mingw64\include\c++\14.1.0\new
FN:179,_ZnwyPv
FNDA:5000,_ZnwyPv
FNF:1
FNH:1
DA:179,5000
DA:180,5000
LF:2
LH:2
end_of_record
SF:C:\msys64\mingw64\include\c++\14.1.0\bits\cpp_type_traits.h
FN:607,_ZSt12__miter_baseIPiET_S1_
FNDA:0,_ZSt12__miter_baseIPiET_S1_
FNF:1
FNH:0
DA:607,0
DA:608,0
LF:2
LH:0
end_of_record
SF:C:\msys64\mingw64\include\c++\14.1.0\bits\move.h
FN:70,_ZSt7forwardIiEOT_RNSt16remove_referenceIS0_E4typeE
FNDA:15014,_ZSt7forwardIiEOT_RNSt16remove_referenceIS0_E4typeE
FN:126,_ZSt4moveIRPiEONSt16remove_referenceIT_E4typeEOS3_
FNDA:0,_ZSt4moveIRPiEONSt16remove_referenceIT_E4typeEOS3_
FN:126,_ZSt4moveIRiEONSt16remove_referenceIT_E4typeEOS2_
FNDA:5000,_ZSt4moveIRiEONSt16remove_referenceIT_E4typeEOS2_
FNF:3
FNH:2
DA:70,15014
DA:71,15014
DA:126,0
DA:127,0
DA:126,5000
DA:127,5000
LF:6
LH:4
end_of_record
SF:C:\msys64\mingw64\include\c++\14.1.0\bits\alloc_traits.h
DA:478,14
DA:513,13
DA:534,5000
DA:538,5000
DA:570,28
DA:944,0
DA:945,0
LF:7
LH:5
end_of_record
SF:C:\msys64\mingw64\include\c++\14.1.0\bits\stl_algobase.h
FN:233,_ZSt3minIyERKT_S2_S2_
FNDA:28,_ZSt3minIyERKT_S2_S2_
FN:257,_ZSt3maxIyERKT_S2_S2_
FNDA:14,_ZSt3maxIyERKT_S2_S2_
FN:316,_ZSt12__niter_baseIPiET_S1_
FNDA:42,_ZSt12__niter_baseIPiET_S1_
FN:353,_ZSt12__niter_wrapIPiET_RKS1_S1_
FNDA:0,_ZSt12__niter_wrapIPiET_RKS1_S1_
FN:437,_ZNSt11__copy_moveILb1ELb0ESt26random_access_iterator_tagE12__assign_oneIiiEEvPT_PT0_
FNDA:0,_ZNSt11__copy_moveILb1ELb0ESt26random_access_iterator_tagE12__assign_oneIiiEEvPT_PT0_
FN:448,_ZNSt11__copy_moveILb1ELb1ESt26random_access_iterator_tagE8__copy_mIiiEEPT0_PT_S6_S4_
FNDA:0,_ZNSt11__copy_moveILb1ELb1ESt26random_access_iterator_tagE8__copy_mIiiEEPT0_PT_S6_S4_
FN:512,_ZSt14__copy_move_a2ILb1EPiS0_ET1_T0_S2_S1_
FNDA:0,_ZSt14__copy_move_a2ILb1EPiS0_ET1_T0_S2_S1_
FN:547,_ZSt14__copy_move_a1ILb1EPiS0_ET1_T0_S2_S1_
FNDA:0,_ZSt14__copy_move_a1ILb1EPiS0_ET1_T0_S2_S1_
FN:553,_ZSt13__copy_move_aILb1EPiS0_ET1_T0_S2_S1_
FNDA:0,_ZSt13__copy_move_aILb1EPiS0_ET1_T0_S2_S1_
FN:642,_ZSt4copyISt13move_iteratorIPiES1_ET0_T_S4_S3_
FNDA:0,_ZSt4copyISt13move_iteratorIPiES1_ET0_T_S4_S3_
FNF:10
FNH:3
DA:233,28
DA:238,28
DA:239,0
DA:240,28
DA:257,14
DA:262,14
DA:263,1
DA:264,13
DA:316,42
DA:318,42
DA:353,0
DA:354,0
DA:437,0
DA:438,0
DA:448,0
DA:450,0
DA:451,0
DA:452,0
DA:453,0
DA:455,0
DA:456,0
DA:512,0
DA:521,0
DA:547,0
DA:548,0
DA:553,0
DA:555,0
DA:558,0
DA:642,0
DA:651,0
LF:30
LH:9
end_of_record
TN:
SF:C:\msys64\mingw64\include\c++\14.1.0\bits\uniform_int_dist.h
FN:104,_ZNSt24uniform_int_distributionIiE10param_typeC1Eii
FNDA:20001,_ZNSt24uniform_int_distributionIiE10param_typeC1Eii
FN:112,_ZNKSt24uniform_int_distributionIiE10param_type1aEv
FNDA:40002,_ZNKSt24uniform_int_distributionIiE10param_type1aEv
FN:116,_ZNKSt24uniform_int_distributionIiE10param_type1bEv
FNDA:20001,_ZNKSt24uniform_int_distributionIiE10param_type1bEv
FN:142,_ZNSt24uniform_int_distributionIiEC1Eii
FNDA:20001,_ZNSt24uniform_int_distributionIiEC1Eii
FN:203,_ZNSt24uniform_int_distributionIiEclISt23mersenne_twister_engineIjLy32ELy624ELy397ELy31ELj2567483615ELy11ELj4294967295ELy7ELj2636928640ELy15ELj4022730752ELy18ELj1812433253EEEEiRT_
FNDA:20001,_ZNSt24uniform_int_distributionIiEclISt23mersenne_twister_engineIjLy32ELy624ELy397ELy31ELj2567483615ELy11ELj4294967295ELy7ELj2636928640ELy15ELj4022730752ELy18ELj1812433253EEEEiRT_
FN:257,_ZNSt24uniform_int_distributionIiE5_S_ndIySt23mersenne_twister_engineIjLy32ELy624ELy397ELy31ELj2567483615ELy11ELj4294967295ELy7ELj2636928640ELy15ELj4022730752ELy18ELj1812433253EEjEET1_RT0_S4_
FNDA:20001,_ZNSt24uniform_int_distributionIiE5_S_ndIySt23mersenne_twister_engineIjLy32ELy624ELy397ELy31ELj2567483615ELy11ELj4294967295ELy7ELj2636928640ELy15ELj4022730752ELy18ELj1812433253EEjEET1_RT0_S4_
FN:287,_ZNSt24uniform_int_distributionIiEclISt23mersenne_twister_engineIjLy32ELy624ELy397ELy31ELj2567483615ELy11ELj4294967295ELy7ELj2636928640ELy15ELj4022730752ELy18ELj1812433253EEEEiRT_RKNS0_10param_typeE
FNDA:20001,_ZNSt24uniform_int_distributionIiEclISt23mersenne_twister_engineIjLy32ELy624ELy397ELy31ELj2567483615ELy11ELj4294967295ELy7ELj2636928640ELy15ELj4022730752ELy18ELj1812433253EEEEiRT_RKNS0_10param_typeE
FNF:7
FNH:7
DA:104,20001
DA:106,20001
DA:108,20001
DA:109,20001
DA:112,40002
DA:113,40002
DA:116,20001
DA:117,20001
DA:142,20001
DA:145,20001
DA:146,20001
DA:203,20001
DA:204,20001
DA:257,20001
DA:269,20001
DA:270,20001
DA:271,20001
DA:273,0
DA:274,0
DA:276,0
DA:277,0
DA:280,20001
DA:287,20001
DA:295,20001
DA:296,20001
DA:299,20001
DA:301,20001
DA:302,20001
DA:305,20001
DA:309,20001
DA:327,20001
DA:328,20001
DA:370,0
DA:372,20001
LF:34
LH:29
end_of_record
SF:C:\workspace\matrixGenerator\include\RandomGenerator.hpp
FN:11,_ZN15RandomGeneratorD0Ev
FNDA:2,_ZN15RandomGeneratorD0Ev
FN:11,_ZN15RandomGeneratorD1Ev
FNDA:2,_ZN15RandomGeneratorD1Ev
FNF:2
FNH:2
DA:11,2
DA:11,2
LF:2
LH:2
end_of_record
SF:C:\workspace\matrixGenerator\include\RandomGeneratorAbstract.hpp
FN:8,_ZN23RandomGeneratorAbstractD2Ev
FNDA:2,_ZN23RandomGeneratorAbstractD2Ev
FNF:1
FNH:1
DA:8,2
LF:1
LH:1
end_of_record
SF:C:\msys64\mingw64\include\c++\14.1.0\bits\random.h
FN:244,_ZNSt8__detail4_ModIjLj624ELj1ELj0ELb1ELb1EE6__calcEj
FNDA:12460623,_ZNSt8__detail4_ModIjLj624ELj1ELj0ELb1ELb1EE6__calcEj
FN:244,_ZNSt8__detail4_ModIjLj0ELj1ELj0ELb1ELb0EE6__calcEj
FNDA:12480624,_ZNSt8__detail4_ModIjLj0ELj1ELj0ELb1ELb0EE6__calcEj
FN:255,_ZNSt8__detail5__modIjLj624ELj1ELj0EEET_S1_
FNDA:12460623,_ZNSt8__detail5__modIjLj624ELj1ELj0EEET_S1_
FN:255,_ZNSt8__detail5__modIjLj0ELj1ELj0EEET_S1_
FNDA:12480624,_ZNSt8__detail5__modIjLj0ELj1ELj0EEET_S1_
FN:647,_ZNSt23mersenne_twister_engineIjLy32ELy624ELy397ELy31ELj2567483615ELy11ELj4294967295ELy7ELj2636928640ELy15ELj4022730752ELy18ELj1812433253EEC1Ej
FNDA:20001,_ZNSt23mersenne_twister_engineIjLy32ELy624ELy397ELy31ELj2567483615ELy11ELj4294967295ELy7ELj2636928640ELy15ELj4022730752ELy18ELj1812433253EEC1Ej
FN:1760,_ZNSt13random_deviceC1Ev
FNDA:20001,_ZNSt13random_deviceC1Ev
FN:1765,_ZNSt13random_deviceD1Ev
FNDA:20001,_ZNSt13random_deviceD1Ev
FN:1781,_ZNSt13random_deviceclEv
FNDA:20001,_ZNSt13random_deviceclEv
FNF:8
FNH:8
DA:244,12460623
DA:246,12460623
DA:248,12460623
DA:249,12460623
DA:244,12480624
DA:246,12480624
DA:249,12480624
DA:255,12460623
DA:260,12460623
DA:255,12480624
DA:260,12480624
DA:647,20001
DA:648,20001
DA:1760,60003
DA:1765,20001
DA:1766,20001
DA:1781,20001
DA:1782,20001
LF:18
LH:18
end_of_record
SF:C:\msys64\mingw64\include\c++\14.1.0\bits\new_allocator.h
FN:104,_ZNSt15__new_allocatorIcED2Ev
FNDA:10000,_ZNSt15__new_allocatorIcED2Ev
FNF:1
FNH:1
DA:88,20001
DA:104,10000
LF:2
LH:2
end_of_record
SF:C:\workspace\matrixGenerator\source\RandomGenerator.cpp
FN:3,_ZN15RandomGenerator13initialValuesEii
FNDA:3,_ZN15RandomGenerator13initialValuesEii
FN:9,_ZN15RandomGenerator12randomNumberEv
FNDA:20001,_ZN15RandomGenerator12randomNumberEv
FNF:2
FNH:2
DA:3,3
DA:5,3
DA:6,3
DA:7,3
DA:9,20001
DA:11,20001
DA:12,20001
DA:13,20001
DA:15,20001
DA:17,20001
DA:18,20001
LF:11
LH:11
end_of_record
SF:C:\msys64\mingw64\include\c++\14.1.0\bits\stl_iterator_base_types.h
DA:240,0
LF:1
LH:0
end_of_record
SF:C:\msys64\mingw64\include\c++\14.1.0\bits\stl_iterator_base_funcs.h
DA:106,0
DA:151,0
DA:152,0
LF:3
LH:0
end_of_record
SF:C:\msys64\mingw64\include\c++\14.1.0\bits\char_traits.h
FN:385,_ZNSt11char_traitsIcE6lengthEPKc
FNDA:0,_ZNSt11char_traitsIcE6lengthEPKc
FNF:1
FNH:0
DA:385,0
DA:391,0
LF:2
LH:0
end_of_record
SF:C:\msys64\mingw64\include\c++\14.1.0\x86_64-w64-mingw32\bits\c++config.h
DA:550,20001
DA:606,0
LF:2
LH:1
end_of_record
SF:C:\msys64\mingw64\include\c++\14.1.0\bits\random.tcc
FN:326,_ZNSt23mersenne_twister_engineIjLy32ELy624ELy397ELy31ELj2567483615ELy11ELj4294967295ELy7ELj2636928640ELy15ELj4022730752ELy18ELj1812433253EE4seedEj
FNDA:20001,_ZNSt23mersenne_twister_engineIjLy32ELy624ELy397ELy31ELj2567483615ELy11ELj4294967295ELy7ELj2636928640ELy15ELj4022730752ELy18ELj1812433253EE4seedEj
FN:397,_ZNSt23mersenne_twister_engineIjLy32ELy624ELy397ELy31ELj2567483615ELy11ELj4294967295ELy7ELj2636928640ELy15ELj4022730752ELy18ELj1812433253EE11_M_gen_randEv
FNDA:20001,_ZNSt23mersenne_twister_engineIjLy32ELy624ELy397ELy31ELj2567483615ELy11ELj4294967295ELy7ELj2636928640ELy15ELj4022730752ELy18ELj1812433253EE11_M_gen_randEv
FN:453,_ZNSt23mersenne_twister_engineIjLy32ELy624ELy397ELy31ELj2567483615ELy11ELj4294967295ELy7ELj2636928640ELy15ELj4022730752ELy18ELj1812433253EEclEv
FNDA:20001,_ZNSt23mersenne_twister_engineIjLy32ELy624ELy397ELy31ELj2567483615ELy11ELj4294967295ELy7ELj2636928640ELy15ELj4022730752ELy18ELj1812433253EEclEv
FNF:3
FNH:3
DA:326,20001
DA:330,20001
DA:331,20001
DA:333,12480624
DA:335,12460623
DA:336,12460623
DA:337,12460623
DA:338,12460623
DA:339,12460623
DA:340,12460623
DA:342,20001
DA:343,20001
DA:397,20001
DA:401,20001
DA:402,20001
DA:404,4560228
DA:406,4540227
DA:407,4540227
DA:408,9080454
DA:409,4540227
DA:412,7940397
DA:414,7920396
DA:415,7920396
DA:416,15840792
DA:417,7920396
DA:420,20001
DA:421,20001
DA:422,40002
DA:423,20001
DA:424,20001
DA:425,20001
DA:453,20001
DA:458,20001
DA:459,20001
DA:462,20001
DA:463,20001
DA:464,20001
DA:465,20001
DA:466,20001
DA:468,20001
LF:40
LH:40
end_of_record
SF:C:\msys64\mingw64\include\c++\14.1.0\bits\basic_string.h
DA:360,0
LF:1
LH:0
end_of_record
SF:C:\msys64\mingw64\include\c++\14.1.0\bits\basic_string.tcc
FN:221,_ZNSt7__cxx1112basic_stringIcSt11char_traitsIcESaIcEE12_M_constructIPKcEEvT_S8_St20forward_iterator_tag
FNDA:0,_ZNSt7__cxx1112basic_stringIcSt11char_traitsIcESaIcEE12_M_constructIPKcEEvT_S8_St20forward_iterator_tag
FN:239,_ZZNSt7__cxx1112basic_stringIcSt11char_traitsIcESaIcEE12_M_constructIPKcEEvT_S8_St20forward_iterator_tagEN6_GuardC1EPS4_
FNDA:0,_ZZNSt7__cxx1112basic_stringIcSt11char_traitsIcESaIcEE12_M_constructIPKcEEvT_S8_St20forward_iterator_tagEN6_GuardC1EPS4_
FN:242,_ZZNSt7__cxx1112basic_stringIcSt11char_traitsIcESaIcEE12_M_constructIPKcEEvT_S8_St20forward_iterator_tagEN6_GuardD1Ev
FNDA:0,_ZZNSt7__cxx1112basic_stringIcSt11char_traitsIcESaIcEE12_M_constructIPKcEEvT_S8_St20forward_iterator_tagEN6_GuardD1Ev
FNF:3
FNH:0
DA:221,0
DA:225,0
DA:227,0
DA:229,0
DA:230,0
DA:239,0
DA:242,0
DA:245,0
DA:247,0
DA:249,0
DA:251,0
DA:252,0
LF:12
LH:0
end_of_record
SF:C:\msys64\mingw64\include\c++\14.1.0\bits\allocator.h
DA:161,20001
DA:182,20001
LF:2
LH:2
end_of_record
TN:
SF:C:\workspace\matrixGenerator\source\ReadWindowsSize.cpp
FN:5,_ZN15ReadWindowsSize14getWindowsSizeEv
FNDA:7,_ZN15ReadWindowsSize14getWindowsSizeEv
FN:21,_ZNK15ReadWindowsSize16getColumnNumbersEv
FNDA:4,_ZNK15ReadWindowsSize16getColumnNumbersEv
FN:26,_ZNK15ReadWindowsSize13getRowNumbersEv
FNDA:3,_ZNK15ReadWindowsSize13getRowNumbersEv
FN:31,_ZNK15ReadWindowsSize15saveWindowsSizeEv
FNDA:2,_ZNK15ReadWindowsSize15saveWindowsSizeEv
FNF:4
FNH:4
DA:5,7
DA:8,7
DA:10,0
DA:11,0
DA:15,7
DA:16,7
DA:17,7
DA:19,7
DA:21,4
DA:23,4
DA:26,3
DA:28,3
DA:31,2
DA:33,2
DA:35,2
DA:37,0
DA:38,0
DA:42,2
DA:43,2
DA:44,2
DA:46,2
LF:21
LH:17
end_of_record
TN:
SF:C:\workspace\matrixGenerator\source\TimeMeasurements.cpp
FN:3,_ZN16TimeMeasurements7runTaskEv
FNDA:3,_ZN16TimeMeasurements7runTaskEv
FN:8,_ZN16TimeMeasurements7endTaskEv
FNDA:3,_ZN16TimeMeasurements7endTaskEv
FN:13,_ZN16TimeMeasurements11measureTimeEv
FNDA:3,_ZN16TimeMeasurements11measureTimeEv
FN:20,_ZN16TimeMeasurements7getTimeEv
FNDA:1,_ZN16TimeMeasurements7getTimeEv
FNF:4
FNH:4
DA:3,3
DA:5,3
DA:6,3
DA:8,3
DA:10,3
DA:11,3
DA:13,3
DA:15,3
DA:17,3
DA:20,1
DA:22,1
DA:23,1
DA:25,1
DA:26,1
DA:28,1
DA:29,1
DA:31,1
DA:32,1
DA:34,1
DA:36,1
DA:37,1
DA:38,1
DA:39,1
LF:23
LH:23
end_of_record
SF:C:\msys64\mingw64\include\c++\14.1.0\bits\chrono.h
FN:210,_ZNSt6chrono20__duration_cast_implINS_8durationIdSt5ratioILx1ELx1EEEES2_ILx1ELx1000000000EEdLb1ELb0EE6__castIxS5_EES4_RKNS1_IT_T0_EE
FNDA:3,_ZNSt6chrono20__duration_cast_implINS_8durationIdSt5ratioILx1ELx1EEEES2_ILx1ELx1000000000EEdLb1ELb0EE6__castIxS5_EES4_RKNS1_IT_T0_EE
FN:275,_ZNSt6chrono13duration_castINS_8durationIdSt5ratioILx1ELx1EEEExS2_ILx1ELx1000000000EEEENSt9enable_ifIXsrNS_13__is_durationIT_EE5valueES8_E4typeERKNS1_IT0_T1_EE
FNDA:3,_ZNSt6chrono13duration_castINS_8durationIdSt5ratioILx1ELx1EEEExS2_ILx1ELx1000000000EEEENSt9enable_ifIXsrNS_13__is_durationIT_EE5valueES8_E4typeERKNS1_IT0_T1_EE
FN:573,_ZNSt6chrono8durationIdSt5ratioILx1ELx1EEEC1IdvEERKT_
FNDA:1,_ZNSt6chrono8durationIdSt5ratioILx1ELx1EEEC1IdvEERKT_
FN:573,_ZNSt6chrono8durationIxSt5ratioILx1ELx1000000000EEEC1IxvEERKT_
FNDA:1,_ZNSt6chrono8durationIxSt5ratioILx1ELx1000000000EEEC1IxvEERKT_
FN:581,_ZNSt6chrono8durationIdSt5ratioILx1ELx1EEEC1IxS1_ILx1ELx1000000000EEvEERKNS0_IT_T0_EE
FNDA:3,_ZNSt6chrono8durationIdSt5ratioILx1ELx1EEEC1IxS1_ILx1ELx1000000000EEvEERKNS0_IT_T0_EE
FN:589,_ZNKSt6chrono8durationIdSt5ratioILx1ELx1EEE5countEv
FNDA:7,_ZNKSt6chrono8durationIdSt5ratioILx1ELx1EEE5countEv
FN:589,_ZNKSt6chrono8durationIxSt5ratioILx1ELx1000000000EEE5countEv
FNDA:3,_ZNKSt6chrono8durationIxSt5ratioILx1ELx1000000000EEE5countEv
FN:710,_ZNSt6chronomiIxSt5ratioILx1ELx1000000000EExS2_EENSt11common_typeIJNS_8durationIT_T0_EENS4_IT1_T2_EEEE4typeERKS7_RKSA_
FNDA:1,_ZNSt6chronomiIxSt5ratioILx1ELx1000000000EExS2_EENSt11common_typeIJNS_8durationIT_T0_EENS4_IT1_T2_EEEE4typeERKS7_RKSA_
FN:949,_ZNKSt6chrono10time_pointINS_3_V212system_clockENS_8durationIxSt5ratioILx1ELx1000000000EEEEE16time_since_epochEv
FNDA:2,_ZNKSt6chrono10time_pointINS_3_V212system_clockENS_8durationIxSt5ratioILx1ELx1000000000EEEEE16time_since_epochEv
FN:1141,_ZNSt6chronomiINS_3_V212system_clockENS_8durationIxSt5ratioILx1ELx1000000000EEEES6_EENSt11common_typeIJT0_T1_EE4typeERKNS_10time_pointIT_S8_EERKNSC_ISD_S9_EE
FNDA:1,_ZNSt6chronomiINS_3_V212system_clockENS_8durationIxSt5ratioILx1ELx1000000000EEEES6_EENSt11common_typeIJT0_T1_EE4typeERKNS_10time_pointIT_S8_EERKNSC_ISD_S9_EE
FNF:10
FNH:10
DA:210,3
DA:213,6
DA:214,3
DA:275,3
DA:289,3
DA:573,1
DA:574,1
DA:573,1
DA:574,1
DA:581,3
DA:582,3
DA:589,7
DA:590,7
DA:589,3
DA:590,3
DA:710,1
DA:716,1
DA:949,2
DA:950,2
DA:1141,1
DA:1143,1
LF:21
LH:21
end_of_record
TN:
SF:C:\msys64\mingw64\include\c++\14.1.0\bits\char_traits.h
FN:385,_ZNSt11char_traitsIcE6lengthEPKc
FNDA:244,_ZNSt11char_traitsIcE6lengthEPKc
FN:419,_ZNSt11char_traitsIcE4copyEPcPKcy
FNDA:0,_ZNSt11char_traitsIcE4copyEPcPKcy
FNF:2
FNH:1
DA:385,244
DA:391,244
DA:419,0
DA:421,0
DA:422,0
DA:427,0
LF:6
LH:2
end_of_record
SF:C:\msys64\mingw64\include\c++\14.1.0\bits\new_allocator.h
FN:104,_ZNSt15__new_allocatorIiED2Ev
FNDA:2,_ZNSt15__new_allocatorIiED2Ev
FN:104,_ZNSt15__new_allocatorIcED2Ev
FNDA:11112,_ZNSt15__new_allocatorIcED2Ev
FN:126,_ZNSt15__new_allocatorIiE8allocateEyPKv
FNDA:39,_ZNSt15__new_allocatorIiE8allocateEyPKv
FN:156,_ZNSt15__new_allocatorIiE10deallocateEPiy
FNDA:34,_ZNSt15__new_allocatorIiE10deallocateEPiy
FNF:4
FNH:4
DA:88,7
DA:92,10
DA:104,2
DA:104,11112
DA:126,39
DA:134,39
DA:138,0
DA:139,0
DA:140,0
DA:151,39
DA:156,34
DA:172,34
DA:173,34
DA:183,78
DA:191,10013
DA:233,117
LF:16
LH:13
end_of_record
SF:C:\msys64\mingw64\include\c++\14.1.0\bits\allocator.h
DA:161,7
DA:166,10
DA:182,10
LF:3
LH:3
end_of_record
SF:C:\msys64\mingw64\include\c++\14.1.0\ext\string_conversions.h
FN:56,_ZN9__gnu_cxx6__stoaIlicJiEEET0_PFT_PKT1_PPS3_DpT2_EPKcS5_PyS9_
FNDA:5000,_ZN9__gnu_cxx6__stoaIlicJiEEET0_PFT_PKT1_PPS3_DpT2_EPKcS5_PyS9_
FN:65,_ZZN9__gnu_cxx6__stoaIlicJiEEET0_PFT_PKT1_PPS3_DpT2_EPKcS5_PyS9_EN11_Save_errnoC1Ev
FNDA:5000,_ZZN9__gnu_cxx6__stoaIlicJiEEET0_PFT_PKT1_PPS3_DpT2_EPKcS5_PyS9_EN11_Save_errnoC1Ev
FN:66,_ZZN9__gnu_cxx6__stoaIlicJiEEET0_PFT_PKT1_PPS3_DpT2_EPKcS5_PyS9_EN11_Save_errnoD1Ev
FNDA:5000,_ZZN9__gnu_cxx6__stoaIlicJiEEET0_PFT_PKT1_PPS3_DpT2_EPKcS5_PyS9_EN11_Save_errnoD1Ev
FN:75,_ZZN9__gnu_cxx6__stoaIlicJiEEET0_PFT_PKT1_PPS3_DpT2_EPKcS5_PyS9_EN10_Range_chk6_S_chkElSt17integral_constantIbLb1EE
FNDA:5000,_ZZN9__gnu_cxx6__stoaIlicJiEEET0_PFT_PKT1_PPS3_DpT2_EPKcS5_PyS9_EN10_Range_chk6_S_chkElSt17integral_constantIbLb1EE
FNF:4
FNH:4
DA:56,5000
DA:65,5000
DA:66,5000
DA:68,5000
DA:75,5000
DA:78,5000
DA:82,5000
DA:84,5000
DA:85,0
DA:86,5000
DA:87,5000
DA:88,0
DA:90,5000
DA:92,5000
DA:93,0
DA:95,5000
DA:96,5000
LF:17
LH:14
end_of_record
SF:C:\msys64\mingw64\include\c++\14.1.0\bits\basic_string.h
FN:3573,_ZSt12__str_concatINSt7__cxx1112basic_stringIcSt11char_traitsIcESaIcEEEET_PKNS6_10value_typeENS6_9size_typeES9_SA_RKNS6_14allocator_typeE
FNDA:10,_ZSt12__str_concatINSt7__cxx1112basic_stringIcSt11char_traitsIcESaIcEEEET_PKNS6_10value_typeENS6_9size_typeES9_SA_RKNS6_14allocator_typeE
FN:3616,_ZStplIcSt11char_traitsIcESaIcEENSt7__cxx1112basic_stringIT_T0_T1_EEPKS5_RKS8_
FNDA:0,_ZStplIcSt11char_traitsIcESaIcEENSt7__cxx1112basic_stringIT_T0_T1_EEPKS5_RKS8_
FN:4164,_ZNSt7__cxx114stoiERKNS_12basic_stringIcSt11char_traitsIcESaIcEEEPyi
FNDA:5000,_ZNSt7__cxx114stoiERKNS_12basic_stringIcSt11char_traitsIcESaIcEEEPyi
FNF:3
FNH:2
DA:360,0
DA:3573,10
DA:3581,10
DA:3582,10
DA:3583,10
DA:3584,10
DA:3585,10
DA:3586,0
DA:3616,0
DA:3623,0
DA:4164,5000
DA:4165,5000
DA:4166,5000
LF:13
LH:9
end_of_record
SF:C:\msys64\mingw64\include\c++\14.1.0\bits\stl_uninitialized.h
FN:145,_ZNSt20__uninitialized_copyILb1EE13__uninit_copyISt13move_iteratorIPiES3_EET0_T_S6_S5_
FNDA:0,_ZNSt20__uninitialized_copyILb1EE13__uninit_copyISt13move_iteratorIPiES3_EET0_T_S6_S5_
FN:163,_ZSt18uninitialized_copyISt13move_iteratorIPiES1_ET0_T_S4_S3_
FNDA:0,_ZSt18uninitialized_copyISt13move_iteratorIPiES1_ET0_T_S4_S3_
FN:366,_ZSt22__uninitialized_copy_aISt13move_iteratorIPiES1_iET0_T_S4_S3_RSaIT1_E
FNDA:0,_ZSt22__uninitialized_copy_aISt13move_iteratorIPiES1_iET0_T_S4_S3_RSaIT1_E
FN:393,_ZSt34__uninitialized_move_if_noexcept_aIPiS0_SaIiEET0_T_S3_S2_RT1_
FNDA:0,_ZSt34__uninitialized_move_if_noexcept_aIPiS0_SaIiEET0_T_S3_S2_RT1_
FN:1112,_ZSt14__relocate_a_1IiiENSt9enable_ifIXsrSt24__is_bitwise_relocatableIT_vE5valueEPS2_E4typeES4_S4_S4_RSaIT0_E
FNDA:39,_ZSt14__relocate_a_1IiiENSt9enable_ifIXsrSt24__is_bitwise_relocatableIT_vE5valueEPS2_E4typeES4_S4_S4_RSaIT0_E
FN:1139,_ZSt12__relocate_aIPiS0_SaIiEET0_T_S3_S2_RT1_
FNDA:39,_ZSt12__relocate_aIPiS0_SaIiEET0_T_S3_S2_RT1_
FNF:6
FNH:2
DA:145,0
DA:147,0
DA:163,0
DA:174,0
DA:181,0
DA:185,0
DA:366,0
DA:373,0
DA:393,0
DA:399,0
DA:400,0
DA:1112,39
DA:1116,39
DA:1117,39
DA:1129,32
DA:1131,39
DA:1139,39
DA:1145,39
DA:1147,39
LF:19
LH:8
end_of_record
SF:C:\workspace\matrixGenerator\tests\PrintRandomNumbersTest.cpp
FN:12,_ZN22PrintRandomNumbersTest5SetUpEv
FNDA:1,_ZN22PrintRandomNumbersTest5SetUpEv
FN:18,_ZN22PrintRandomNumbersTest8TearDownEv
FNDA:1,_ZN22PrintRandomNumbersTest8TearDownEv
FN:25,_ZN44PrintRandomNumbersTest_PrintNumbersTest_TestC1Ev
FNDA:1,_ZN44PrintRandomNumbersTest_PrintNumbersTest_TestC1Ev
FN:25,_ZN44PrintRandomNumbersTest_PrintNumbersTest_TestD0Ev
FNDA:1,_ZN44PrintRandomNumbersTest_PrintNumbersTest_TestD0Ev
FN:25,_ZN44PrintRandomNumbersTest_PrintNumbersTest_TestD1Ev
FNDA:1,_ZN44PrintRandomNumbersTest_PrintNumbersTest_TestD1Ev
FN:25,_ZN44PrintRandomNumbersTest_PrintNumbersTest_Test8TestBodyEv
FNDA:1,_ZN44PrintRandomNumbersTest_PrintNumbersTest_Test8TestBodyEv
FNF:6
FNH:6
DA:12,1
DA:14,1
DA:15,1
DA:16,1
DA:18,1
DA:20,1
DA:21,1
DA:22,1
DA:25,1
DA:25,1
DA:25,1
DA:25,1
DA:27,1
DA:29,1
DA:30,1
DA:32,1
DA:34,1
DA:35,1
DA:36,1
DA:38,5001
DA:39,5000
DA:42,1
LF:22
LH:22
end_of_record
SF:C:\workspace\matrixGenerator\build\_deps\googletest-src\googletest\include\gtest\internal\gtest-internal.h
FN:435,_ZN7testing8internal9GetTypeIdI22PrintRandomNumbersTestEEPKvv
FNDA:1,_ZN7testing8internal9GetTypeIdI22PrintRandomNumbersTestEEPKvv
FN:454,_ZN7testing8internal15TestFactoryBaseD2Ev
FNDA:0,_ZN7testing8internal15TestFactoryBaseD2Ev
FN:461,_ZN7testing8internal15TestFactoryBaseC2Ev
FNDA:9,_ZN7testing8internal15TestFactoryBaseC2Ev
FN:472,_ZN7testing8internal15TestFactoryImplI44PrintRandomNumbersTest_PrintNumbersTest_TestE10CreateTestEv
FNDA:1,_ZN7testing8internal15TestFactoryImplI44PrintRandomNumbersTest_PrintNumbersTest_TestE10CreateTestEv
FN:493,_ZN7testing8internal12CodeLocationC1ERKNSt7__cxx1112basic_stringIcSt11char_traitsIcESaIcEEEi
FNDA:9,_ZN7testing8internal12CodeLocationC1ERKNSt7__cxx1112basic_stringIcSt11char_traitsIcESaIcEEEi
FN:506,_ZN7testing8internal19GetNotDefaultOrNullEPFvvES2_
FNDA:36,_ZN7testing8internal19GetNotDefaultOrNullEPFvvES2_
FN:521,_ZN7testing8internal16SuiteApiResolverI22PrintRandomNumbersTestE19GetSetUpCaseOrSuiteEPKci
FNDA:1,_ZN7testing8internal16SuiteApiResolverI22PrintRandomNumbersTestE19GetSetUpCaseOrSuiteEPKci
FN:542,_ZN7testing8internal16SuiteApiResolverI22PrintRandomNumbersTestE22GetTearDownCaseOrSuiteEPKci
FNDA:1,_ZN7testing8internal16SuiteApiResolverI22PrintRandomNumbersTestE22GetTearDownCaseOrSuiteEPKci
FN:858,_ZN7testing8internal14TrueWithStringC1Ev
FNDA:2,_ZN7testing8internal14TrueWithStringC1Ev
FN:861,_ZNK7testing8internal14TrueWithStringcvbEv
FNDA:2,_ZNK7testing8internal14TrueWithStringcvbEv
FNF:10
FNH:9
DA:435,1
DA:440,1
DA:454,0
DA:461,9
DA:472,1
DA:493,9
DA:494,9
DA:506,36
DA:508,36
DA:521,1
DA:525,1
DA:527,1
DA:529,1
DA:532,0
DA:534,1
DA:542,1
DA:546,1
DA:548,1
DA:550,1
DA:553,0
DA:555,1
DA:858,2
DA:861,2
LF:23
LH:20
end_of_record
SF:C:\msys64\mingw64\include\c++\14.1.0\new
FN:179,_ZnwyPv
FNDA:10885,_ZnwyPv
FNF:1
FNH:1
DA:179,10885
DA:180,10885
LF:2
LH:2
end_of_record
SF:C:\workspace\matrixGenerator\build\_deps\googletest-src\googletest\include\gtest\gtest.h
FN:305,_ZN7testing15AssertionResultC1IbEERKT_PNSt9enable_ifIXntsrSt14is_convertibleIS2_S0_E5valueEvE4typeE
FNDA:211,_ZN7testing15AssertionResultC1IbEERKT_PNSt9enable_ifIXntsrSt14is_convertibleIS2_S0_E5valueEvE4typeE
FN:324,_ZNK7testing15AssertionResultcvbEv
FNDA:211,_ZNK7testing15AssertionResultcvbEv
FN:427,_ZN7testing4Test14SetUpTestSuiteEv
FNDA:0,_ZN7testing4Test14SetUpTestSuiteEv
FN:435,_ZN7testing4Test17TearDownTestSuiteEv
FNDA:0,_ZN7testing4Test17TearDownTestSuiteEv
FN:440,_ZN7testing4Test16TearDownTestCaseEv
FNDA:0,_ZN7testing4Test16TearDownTestCaseEv
FN:441,_ZN7testing4Test13SetUpTestCaseEv
FNDA:0,_ZN7testing4Test13SetUpTestCaseEv
FN:522,_ZN7testing4Test5SetupEv
FNDA:0,_ZN7testing4Test5SetupEv
FNF:7
FNH:2
DA:305,211
DA:311,211
DA:324,211
DA:427,0
DA:435,0
DA:440,0
DA:441,0
DA:522,0
LF:8
LH:3
end_of_record
SF:C:\msys64\mingw64\include\c++\14.1.0\bits\stl_construct.h
FN:172,_ZNSt12_Destroy_auxILb1EE9__destroyIPiEEvT_S3_
FNDA:2,_ZNSt12_Destroy_auxILb1EE9__destroyIPiEEvT_S3_
FN:182,_ZSt8_DestroyIPiEvT_S1_
FNDA:2,_ZSt8_DestroyIPiEvT_S1_
FNF:2
FNH:2
DA:172,2
DA:182,2
DA:196,2
DA:197,2
LF:4
LH:4
end_of_record
SF:C:\msys64\mingw64\include\c++\14.1.0\typeinfo
FN:102,_ZNKSt9type_info4nameEv
FNDA:0,_ZNKSt9type_info4nameEv
FNF:1
FNH:0
DA:102,0
DA:103,0
LF:2
LH:0
end_of_record
SF:C:\msys64\mingw64\include\c++\14.1.0\bits\vector.tcc
FN:111,_ZNSt6vectorIiSaIiEE12emplace_backIJiEEEvDpOT_
FNDA:10013,_ZNSt6vectorIiSaIiEE12emplace_backIJiEEEvDpOT_
FN:581,_ZNSt6vectorIiSaIiEE17_M_realloc_appendIJiEEEvDpOT_
FNDA:39,_ZNSt6vectorIiSaIiEE17_M_realloc_appendIJiEEEvDpOT_
FN:607,_ZZNSt6vectorIiSaIiEE17_M_realloc_appendIJiEEEvDpOT_EN6_GuardC1EPiyRS0_
FNDA:39,_ZZNSt6vectorIiSaIiEE17_M_realloc_appendIJiEEEvDpOT_EN6_GuardC1EPiyRS0_
FN:612,_ZZNSt6vectorIiSaIiEE17_M_realloc_appendIJiEEEvDpOT_EN6_GuardD1Ev
FNDA:39,_ZZNSt6vectorIiSaIiEE17_M_realloc_appendIJiEEEvDpOT_EN6_GuardD1Ev
FN:661,_ZZNSt6vectorIiSaIiEE17_M_realloc_appendIJiEEEvDpOT_EN11_Guard_eltsC1EPiRS0_
FNDA:0,_ZZNSt6vectorIiSaIiEE17_M_realloc_appendIJiEEEvDpOT_EN11_Guard_eltsC1EPiRS0_
FN:666,_ZZNSt6vectorIiSaIiEE17_M_realloc_appendIJiEEEvDpOT_EN11_Guard_eltsD1Ev
FNDA:0,_ZZNSt6vectorIiSaIiEE17_M_realloc_appendIJiEEEvDpOT_EN11_Guard_eltsD1Ev
FNF:6
FNH:4
DA:111,10013
DA:114,10013
DA:117,9974
DA:119,9974
DA:123,39
DA:127,10013
DA:581,39
DA:590,39
DA:591,39
DA:592,0
DA:593,39
DA:594,39
DA:595,39
DA:596,39
DA:597,39
DA:607,39
DA:608,39
DA:609,39
DA:612,39
DA:614,39
DA:616,32
DA:617,39
DA:624,39
DA:634,78
DA:635,39
DA:644,39
DA:647,39
DA:648,39
DA:649,39
DA:661,0
DA:662,0
DA:663,0
DA:666,0
DA:667,0
DA:674,0
DA:676,0
DA:678,0
DA:680,0
DA:683,0
DA:684,0
DA:685,0
DA:686,39
DA:687,39
DA:688,39
DA:692,39
DA:693,39
DA:694,39
DA:695,39
LF:48
LH:35
end_of_record
SF:C:\msys64\mingw64\include\c++\14.1.0\ext\alloc_traits.h
DA:98,10
LF:1
LH:1
end_of_record
SF:C:\msys64\mingw64\include\c++\14.1.0\tuple
FN:89,_ZNSt10_Head_baseILy1ESt14default_deleteINSt7__cxx1112basic_stringIcSt11char_traitsIcESaIcEEEELb1EEC2Ev
FNDA:211,_ZNSt10_Head_baseILy1ESt14default_deleteINSt7__cxx1112basic_stringIcSt11char_traitsIcESaIcEEEELb1EEC2Ev
FN:133,_ZNSt10_Head_baseILy1ESt14default_deleteINSt7__cxx1118basic_stringstreamIcSt11char_traitsIcESaIcEEEELb1EE7_M_headERS8_
FNDA:201,_ZNSt10_Head_baseILy1ESt14default_deleteINSt7__cxx1118basic_stringstreamIcSt11char_traitsIcESaIcEEEELb1EE7_M_headERS8_
FN:133,_ZNSt10_Head_baseILy1ESt14default_deleteINSt7__cxx1112basic_stringIcSt11char_traitsIcESaIcEEEELb1EE7_M_headERS8_
FNDA:0,_ZNSt10_Head_baseILy1ESt14default_deleteINSt7__cxx1112basic_stringIcSt11char_traitsIcESaIcEEEELb1EE7_M_headERS8_
FN:198,_ZNSt10_Head_baseILy0EPNSt7__cxx1112basic_stringIcSt11char_traitsIcESaIcEEELb0EEC2Ev
FNDA:211,_ZNSt10_Head_baseILy0EPNSt7__cxx1112basic_stringIcSt11char_traitsIcESaIcEEELb0EEC2Ev
FN:242,_ZNSt10_Head_baseILy0EPNSt7__cxx1112basic_stringIcSt11char_traitsIcESaIcEEELb0EE7_M_headERS7_
FNDA:211,_ZNSt10_Head_baseILy0EPNSt7__cxx1112basic_stringIcSt11char_traitsIcESaIcEEELb0EE7_M_headERS7_
FN:242,_ZNSt10_Head_baseILy0EPNSt7__cxx1118basic_stringstreamIcSt11char_traitsIcESaIcEEELb0EE7_M_headERS7_
FNDA:402,_ZNSt10_Head_baseILy0EPNSt7__cxx1118basic_stringstreamIcSt11char_traitsIcESaIcEEELb0EE7_M_headERS7_
FN:293,_ZNSt11_Tuple_implILy0EJPNSt7__cxx1112basic_stringIcSt11char_traitsIcESaIcEEESt14default_deleteIS5_EEE7_M_headERS9_
FNDA:211,_ZNSt11_Tuple_implILy0EJPNSt7__cxx1112basic_stringIcSt11char_traitsIcESaIcEEESt14default_deleteIS5_EEE7_M_headERS9_
FN:293,_ZNSt11_Tuple_implILy0EJPNSt7__cxx1118basic_stringstreamIcSt11char_traitsIcESaIcEEESt14default_deleteIS5_EEE7_M_headERS9_
FNDA:402,_ZNSt11_Tuple_implILy0EJPNSt7__cxx1118basic_stringstreamIcSt11char_traitsIcESaIcEEESt14default_deleteIS5_EEE7_M_headERS9_
FN:304,_ZNSt11_Tuple_implILy0EJPNSt7__cxx1112basic_stringIcSt11char_traitsIcESaIcEEESt14default_deleteIS5_EEEC2Ev
FNDA:211,_ZNSt11_Tuple_implILy0EJPNSt7__cxx1112basic_stringIcSt11char_traitsIcESaIcEEESt14default_deleteIS5_EEEC2Ev
FN:556,_ZNSt11_Tuple_implILy1EJSt14default_deleteINSt7__cxx1112basic_stringIcSt11char_traitsIcESaIcEEEEEE7_M_headERS8_
FNDA:0,_ZNSt11_Tuple_implILy1EJSt14default_deleteINSt7__cxx1112basic_stringIcSt11char_traitsIcESaIcEEEEEE7_M_headERS8_
FN:556,_ZNSt11_Tuple_implILy1EJSt14default_deleteINSt7__cxx1118basic_stringstreamIcSt11char_traitsIcESaIcEEEEEE7_M_headERS8_
FNDA:201,_ZNSt11_Tuple_implILy1EJSt14default_deleteINSt7__cxx1118basic_stringstreamIcSt11char_traitsIcESaIcEEEEEE7_M_headERS8_
FN:562,_ZNSt11_Tuple_implILy1EJSt14default_deleteINSt7__cxx1112basic_stringIcSt11char_traitsIcESaIcEEEEEEC2Ev
FNDA:211,_ZNSt11_Tuple_implILy1EJSt14default_deleteINSt7__cxx1112basic_stringIcSt11char_traitsIcESaIcEEEEEEC2Ev
FN:2089,_ZNSt5tupleIJPNSt7__cxx1112basic_stringIcSt11char_traitsIcESaIcEEESt14default_deleteIS5_EEEC1ILb1ELb1EEEv
FNDA:211,_ZNSt5tupleIJPNSt7__cxx1112basic_stringIcSt11char_traitsIcESaIcEEESt14default_deleteIS5_EEEC1ILb1ELb1EEEv
FN:2427,_ZSt12__get_helperILy0EPNSt7__cxx1118basic_stringstreamIcSt11char_traitsIcESaIcEEEJSt14default_deleteIS5_EEERT0_RSt11_Tuple_implIXT_EJS9_DpT1_EE
FNDA:402,_ZSt12__get_helperILy0EPNSt7__cxx1118basic_stringstreamIcSt11char_traitsIcESaIcEEEJSt14default_deleteIS5_EEERT0_RSt11_Tuple_implIXT_EJS9_DpT1_EE
FN:2427,_ZSt12__get_helperILy0EPNSt7__cxx1112basic_stringIcSt11char_traitsIcESaIcEEEJSt14default_deleteIS5_EEERT0_RSt11_Tuple_implIXT_EJS9_DpT1_EE
FNDA:211,_ZSt12__get_helperILy0EPNSt7__cxx1112basic_stringIcSt11char_traitsIcESaIcEEEJSt14default_deleteIS5_EEERT0_RSt11_Tuple_implIXT_EJS9_DpT1_EE
FN:2427,_ZSt12__get_helperILy1ESt14default_deleteINSt7__cxx1118basic_stringstreamIcSt11char_traitsIcESaIcEEEEJEERT0_RSt11_Tuple_implIXT_EJS8_DpT1_EE
FNDA:201,_ZSt12__get_helperILy1ESt14default_deleteINSt7__cxx1118basic_stringstreamIcSt11char_traitsIcESaIcEEEEJEERT0_RSt11_Tuple_implIXT_EJS8_DpT1_EE
FN:2427,_ZSt12__get_helperILy1ESt14default_deleteINSt7__cxx1112basic_stringIcSt11char_traitsIcESaIcEEEEJEERT0_RSt11_Tuple_implIXT_EJS8_DpT1_EE
FNDA:0,_ZSt12__get_helperILy1ESt14default_deleteINSt7__cxx1112basic_stringIcSt11char_traitsIcESaIcEEEEJEERT0_RSt11_Tuple_implIXT_EJS8_DpT1_EE
FN:2443,_ZSt3getILy1EJPNSt7__cxx1118basic_stringstreamIcSt11char_traitsIcESaIcEEESt14default_deleteIS5_EEERNSt13tuple_elementIXT_ESt5tupleIJDpT0_EEE4typeERSD_
FNDA:201,_ZSt3getILy1EJPNSt7__cxx1118basic_stringstreamIcSt11char_traitsIcESaIcEEESt14default_deleteIS5_EEERNSt13tuple_elementIXT_ESt5tupleIJDpT0_EEE4typeERSD_
FN:2443,_ZSt3getILy0EJPNSt7__cxx1112basic_stringIcSt11char_traitsIcESaIcEEESt14default_deleteIS5_EEERNSt13tuple_elementIXT_ESt5tupleIJDpT0_EEE4typeERSD_
FNDA:211,_ZSt3getILy0EJPNSt7__cxx1112basic_stringIcSt11char_traitsIcESaIcEEESt14default_deleteIS5_EEERNSt13tuple_elementIXT_ESt5tupleIJDpT0_EEE4typeERSD_
FN:2443,_ZSt3getILy0EJPNSt7__cxx1118basic_stringstreamIcSt11char_traitsIcESaIcEEESt14default_deleteIS5_EEERNSt13tuple_elementIXT_ESt5tupleIJDpT0_EEE4typeERSD_
FNDA:402,_ZSt3getILy0EJPNSt7__cxx1118basic_stringstreamIcSt11char_traitsIcESaIcEEESt14default_deleteIS5_EEERNSt13tuple_elementIXT_ESt5tupleIJDpT0_EEE4typeERSD_
FN:2443,_ZSt3getILy1EJPNSt7__cxx1112basic_stringIcSt11char_traitsIcESaIcEEESt14default_deleteIS5_EEERNSt13tuple_elementIXT_ESt5tupleIJDpT0_EEE4typeERSD_
FNDA:0,_ZSt3getILy1EJPNSt7__cxx1112basic_stringIcSt11char_traitsIcESaIcEEESt14default_deleteIS5_EEERNSt13tuple_elementIXT_ESt5tupleIJDpT0_EEE4typeERSD_
FNF:21
FNH:17
DA:89,211
DA:90,211
DA:133,0
DA:133,201
DA:198,211
DA:199,211
DA:242,211
DA:242,402
DA:293,211
DA:293,402
DA:304,211
DA:305,211
DA:556,0
DA:556,201
DA:562,211
DA:563,211
DA:2089,211
DA:2091,211
DA:2427,0
DA:2428,0
DA:2427,201
DA:2428,201
DA:2427,211
DA:2428,211
DA:2427,402
DA:2428,402
DA:2443,0
DA:2444,0
DA:2443,201
DA:2444,201
DA:2443,211
DA:2444,211
DA:2443,402
DA:2444,402
LF:34
LH:28
end_of_record
SF:C:\msys64\mingw64\include\c++\14.1.0\bits\stl_iterator_base_funcs.h
DA:106,0
DA:151,0
DA:152,0
LF:3
LH:0
end_of_record
SF:C:\msys64\mingw64\include\c++\14.1.0\bits\stl_iterator_base_types.h
DA:240,0
LF:1
LH:0
end_of_record
SF:C:\workspace\matrixGenerator\build\_deps\googletest-src\googletest\include\gtest\internal\gtest-port.h
FN:974,_ZN7testing8internal8GTestLog9GetStreamEv
FNDA:0,_ZN7testing8internal8GTestLog9GetStreamEv
FNF:1
FNH:0
DA:974,0
LF:1
LH:0
end_of_record
SF:C:\workspace\matrixGenerator\build\_deps\googletest-src\googletest\include\gtest\internal\gtest-type-util.h
FN:55,_ZN7testing8internal31CanonicalizeForStdLibVersioningENSt7__cxx1112basic_stringIcSt11char_traitsIcESaIcEEE
FNDA:0,_ZN7testing8internal31CanonicalizeForStdLibVersioningENSt7__cxx1112basic_stringIcSt11char_traitsIcESaIcEEE
FN:69,_ZN7testing8internal11GetTypeNameB5cxx11ERKSt9type_info
FNDA:0,_ZN7testing8internal11GetTypeNameB5cxx11ERKSt9type_info
FNF:2
FNH:0
DA:55,0
DA:57,0
DA:58,0
DA:59,0
DA:61,0
DA:64,0
DA:69,0
DA:70,0
DA:72,0
DA:78,0
DA:79,0
DA:80,0
DA:81,0
DA:85,0
LF:14
LH:0
end_of_record
SF:C:\msys64\mingw64\include\c++\14.1.0\bits\basic_string.tcc
FN:221,_ZNSt7__cxx1112basic_stringIcSt11char_traitsIcESaIcEE12_M_constructIPcEEvT_S7_St20forward_iterator_tag
FNDA:0,_ZNSt7__cxx1112basic_stringIcSt11char_traitsIcESaIcEE12_M_constructIPcEEvT_S7_St20forward_iterator_tag
FN:221,_ZNSt7__cxx1112basic_stringIcSt11char_traitsIcESaIcEE12_M_constructIPKcEEvT_S8_St20forward_iterator_tag
FNDA:0,_ZNSt7__cxx1112basic_stringIcSt11char_traitsIcESaIcEE12_M_constructIPKcEEvT_S8_St20forward_iterator_tag
FN:239,_ZZNSt7__cxx1112basic_stringIcSt11char_traitsIcESaIcEE12_M_constructIPcEEvT_S7_St20forward_iterator_tagEN6_GuardC1EPS4_
FNDA:0,_ZZNSt7__cxx1112basic_stringIcSt11char_traitsIcESaIcEE12_M_constructIPcEEvT_S7_St20forward_iterator_tagEN6_GuardC1EPS4_
FN:239,_ZZNSt7__cxx1112basic_stringIcSt11char_traitsIcESaIcEE12_M_constructIPKcEEvT_S8_St20forward_iterator_tagEN6_GuardC1EPS4_
FNDA:0,_ZZNSt7__cxx1112basic_stringIcSt11char_traitsIcESaIcEE12_M_constructIPKcEEvT_S8_St20forward_iterator_tagEN6_GuardC1EPS4_
FN:242,_ZZNSt7__cxx1112basic_stringIcSt11char_traitsIcESaIcEE12_M_constructIPcEEvT_S7_St20forward_iterator_tagEN6_GuardD1Ev
FNDA:0,_ZZNSt7__cxx1112basic_stringIcSt11char_traitsIcESaIcEE12_M_constructIPcEEvT_S7_St20forward_iterator_tagEN6_GuardD1Ev
FN:242,_ZZNSt7__cxx1112basic_stringIcSt11char_traitsIcESaIcEE12_M_constructIPKcEEvT_S8_St20forward_iterator_tagEN6_GuardD1Ev
FNDA:0,_ZZNSt7__cxx1112basic_stringIcSt11char_traitsIcESaIcEE12_M_constructIPKcEEvT_S8_St20forward_iterator_tagEN6_GuardD1Ev
FNF:6
FNH:0
DA:221,0
DA:225,0
DA:227,0
DA:229,0
DA:230,0
DA:245,0
DA:247,0
DA:249,0
DA:251,0
DA:252,0
DA:221,0
DA:225,0
DA:227,0
DA:229,0
DA:230,0
DA:245,0
DA:247,0
DA:249,0
DA:251,0
DA:252,0
DA:239,0
DA:239,0
DA:242,0
DA:242,0
LF:24
LH:0
end_of_record
SF:C:\workspace\matrixGenerator\include\PrintRandomNumbers.hpp
FN:13,_ZN18PrintRandomNumbersD1Ev
FNDA:1,_ZN18PrintRandomNumbersD1Ev
FNF:1
FNH:1
DA:13,1
LF:1
LH:1
end_of_record
SF:C:\msys64\mingw64\include\c++\14.1.0\bits\stl_algobase.h
FN:233,_ZSt3minIyERKT_S2_S2_
FNDA:201,_ZSt3minIyERKT_S2_S2_
FN:257,_ZSt3maxIyERKT_S2_S2_
FNDA:54,_ZSt3maxIyERKT_S2_S2_
FN:316,_ZSt12__niter_baseIPiET_S1_
FNDA:117,_ZSt12__niter_baseIPiET_S1_
FN:353,_ZSt12__niter_wrapIPiET_RKS1_S1_
FNDA:0,_ZSt12__niter_wrapIPiET_RKS1_S1_
FN:437,_ZNSt11__copy_moveILb1ELb0ESt26random_access_iterator_tagE12__assign_oneIiiEEvPT_PT0_
FNDA:0,_ZNSt11__copy_moveILb1ELb0ESt26random_access_iterator_tagE12__assign_oneIiiEEvPT_PT0_
FN:448,_ZNSt11__copy_moveILb1ELb1ESt26random_access_iterator_tagE8__copy_mIiiEEPT0_PT_S6_S4_
FNDA:0,_ZNSt11__copy_moveILb1ELb1ESt26random_access_iterator_tagE8__copy_mIiiEEPT0_PT_S6_S4_
FN:512,_ZSt14__copy_move_a2ILb1EPiS0_ET1_T0_S2_S1_
FNDA:0,_ZSt14__copy_move_a2ILb1EPiS0_ET1_T0_S2_S1_
FN:547,_ZSt14__copy_move_a1ILb1EPiS0_ET1_T0_S2_S1_
FNDA:0,_ZSt14__copy_move_a1ILb1EPiS0_ET1_T0_S2_S1_
FN:553,_ZSt13__copy_move_aILb1EPiS0_ET1_T0_S2_S1_
FNDA:0,_ZSt13__copy_move_aILb1EPiS0_ET1_T0_S2_S1_
FN:642,_ZSt4copyISt13move_iteratorIPiES1_ET0_T_S4_S3_
FNDA:0,_ZSt4copyISt13move_iteratorIPiES1_ET0_T_S4_S3_
FNF:10
FNH:3
DA:233,201
DA:238,201
DA:239,0
DA:240,201
DA:257,54
DA:262,54
DA:263,14
DA:264,40
DA:316,117
DA:318,117
DA:353,0
DA:354,0
DA:437,0
DA:438,0
DA:448,0
DA:450,0
DA:451,0
DA:452,0
DA:453,0
DA:455,0
DA:456,0
DA:512,0
DA:521,0
DA:547,0
DA:548,0
DA:553,0
DA:555,0
DA:558,0
DA:642,0
DA:651,0
LF:30
LH:9
end_of_record
SF:C:\workspace\matrixGenerator\include\RandomGeneratorAbstract.hpp
FN:7,_ZN23RandomGeneratorAbstractC2Ev
FNDA:2,_ZN23RandomGeneratorAbstractC2Ev
FNF:1
FNH:1
DA:7,2
LF:1
LH:1
end_of_record
SF:C:\msys64\mingw64\include\c++\14.1.0\bits\alloc_traits.h
DA:478,39
DA:513,34
DA:534,10013
DA:538,10013
DA:570,78
DA:584,10
DA:944,2
DA:945,2
LF:8
LH:8
end_of_record
SF:C:\workspace\matrixGenerator\include\RandomGenerator.hpp
FN:10,_ZN15RandomGeneratorC1Ev
FNDA:2,_ZN15RandomGeneratorC1Ev
FNF:1
FNH:1
DA:10,2
LF:1
LH:1
end_of_record
SF:C:\workspace\matrixGenerator\build\_deps\googletest-src\googletest\include\gtest\gtest-message.h
LF:0
LH:0
end_of_record
SF:C:\msys64\mingw64\include\c++\14.1.0\bits\unique_ptr.h
FN:87,_ZNKSt14default_deleteINSt7__cxx1112basic_stringIcSt11char_traitsIcESaIcEEEEclEPS5_
FNDA:0,_ZNKSt14default_deleteINSt7__cxx1112basic_stringIcSt11char_traitsIcESaIcEEEEclEPS5_
FN:87,_ZNKSt14default_deleteINSt7__cxx1118basic_stringstreamIcSt11char_traitsIcESaIcEEEEclEPS5_
FNDA:201,_ZNKSt14default_deleteINSt7__cxx1118basic_stringstreamIcSt11char_traitsIcESaIcEEEEclEPS5_
FN:168,_ZNSt15__uniq_ptr_implINSt7__cxx1112basic_stringIcSt11char_traitsIcESaIcEEESt14default_deleteIS5_EEC2Ev
FNDA:211,_ZNSt15__uniq_ptr_implINSt7__cxx1112basic_stringIcSt11char_traitsIcESaIcEEESt14default_deleteIS5_EEC2Ev
FN:191,_ZNSt15__uniq_ptr_implINSt7__cxx1112basic_stringIcSt11char_traitsIcESaIcEEESt14default_deleteIS5_EE6_M_ptrEv
FNDA:211,_ZNSt15__uniq_ptr_implINSt7__cxx1112basic_stringIcSt11char_traitsIcESaIcEEESt14default_deleteIS5_EE6_M_ptrEv
FN:191,_ZNSt15__uniq_ptr_implINSt7__cxx1118basic_stringstreamIcSt11char_traitsIcESaIcEEESt14default_deleteIS5_EE6_M_ptrEv
FNDA:402,_ZNSt15__uniq_ptr_implINSt7__cxx1118basic_stringstreamIcSt11char_traitsIcESaIcEEESt14default_deleteIS5_EE6_M_ptrEv
FN:195,_ZNSt15__uniq_ptr_implINSt7__cxx1112basic_stringIcSt11char_traitsIcESaIcEEESt14default_deleteIS5_EE10_M_deleterEv
FNDA:0,_ZNSt15__uniq_ptr_implINSt7__cxx1112basic_stringIcSt11char_traitsIcESaIcEEESt14default_deleteIS5_EE10_M_deleterEv
FN:195,_ZNSt15__uniq_ptr_implINSt7__cxx1118basic_stringstreamIcSt11char_traitsIcESaIcEEESt14default_deleteIS5_EE10_M_deleterEv
FNDA:201,_ZNSt15__uniq_ptr_implINSt7__cxx1118basic_stringstreamIcSt11char_traitsIcESaIcEEESt14default_deleteIS5_EE10_M_deleterEv
FN:298,_ZNSt10unique_ptrINSt7__cxx1112basic_stringIcSt11char_traitsIcESaIcEEESt14default_deleteIS5_EEC1IS7_vEEv
FNDA:211,_ZNSt10unique_ptrINSt7__cxx1112basic_stringIcSt11char_traitsIcESaIcEEESt14default_deleteIS5_EEC1IS7_vEEv
FN:392,_ZNSt10unique_ptrINSt7__cxx1112basic_stringIcSt11char_traitsIcESaIcEEESt14default_deleteIS5_EED1Ev
FNDA:211,_ZNSt10unique_ptrINSt7__cxx1112basic_stringIcSt11char_traitsIcESaIcEEESt14default_deleteIS5_EED1Ev
FN:392,_ZNSt10unique_ptrINSt7__cxx1118basic_stringstreamIcSt11char_traitsIcESaIcEEESt14default_deleteIS5_EED1Ev
FNDA:201,_ZNSt10unique_ptrINSt7__cxx1118basic_stringstreamIcSt11char_traitsIcESaIcEEESt14default_deleteIS5_EED1Ev
FN:469,_ZNSt10unique_ptrINSt7__cxx1112basic_stringIcSt11char_traitsIcESaIcEEESt14default_deleteIS5_EE11get_deleterEv
FNDA:0,_ZNSt10unique_ptrINSt7__cxx1112basic_stringIcSt11char_traitsIcESaIcEEESt14default_deleteIS5_EE11get_deleterEv
FN:469,_ZNSt10unique_ptrINSt7__cxx1118basic_stringstreamIcSt11char_traitsIcESaIcEEESt14default_deleteIS5_EE11get_deleterEv
FNDA:201,_ZNSt10unique_ptrINSt7__cxx1118basic_stringstreamIcSt11char_traitsIcESaIcEEESt14default_deleteIS5_EE11get_deleterEv
FNF:12
FNH:9
DA:87,0
DA:93,0
DA:94,0
DA:87,201
DA:93,201
DA:94,201
DA:168,211
DA:191,211
DA:191,402
DA:195,0
DA:195,201
DA:298,211
DA:299,211
DA:300,211
DA:392,211
DA:396,211
DA:397,211
DA:398,0
DA:399,211
DA:400,211
DA:392,201
DA:396,201
DA:397,201
DA:398,201
DA:399,201
DA:400,201
DA:469,0
DA:470,0
DA:469,201
DA:470,201
LF:30
LH:23
end_of_record
SF:C:\msys64\mingw64\include\c++\14.1.0\bits\move.h
FN:70,_ZSt7forwardIiEOT_RNSt16remove_referenceIS0_E4typeE
FNDA:30078,_ZSt7forwardIiEOT_RNSt16remove_referenceIS0_E4typeE
FN:126,_ZSt4moveIRPiEONSt16remove_referenceIT_E4typeEOS3_
FNDA:0,_ZSt4moveIRPiEONSt16remove_referenceIT_E4typeEOS3_
FN:126,_ZSt4moveIRiEONSt16remove_referenceIT_E4typeEOS2_
FNDA:10013,_ZSt4moveIRiEONSt16remove_referenceIT_E4typeEOS2_
FN:126,_ZSt4moveIRPNSt7__cxx1112basic_stringIcSt11char_traitsIcESaIcEEEEONSt16remove_referenceIT_E4typeEOS9_
FNDA:0,_ZSt4moveIRPNSt7__cxx1112basic_stringIcSt11char_traitsIcESaIcEEEEONSt16remove_referenceIT_E4typeEOS9_
FN:126,_ZSt4moveIRPNSt7__cxx1118basic_stringstreamIcSt11char_traitsIcESaIcEEEEONSt16remove_referenceIT_E4typeEOS9_
FNDA:201,_ZSt4moveIRPNSt7__cxx1118basic_stringstreamIcSt11char_traitsIcESaIcEEEEONSt16remove_referenceIT_E4typeEOS9_
FN:126,_ZSt4moveIRSaIcEEONSt16remove_referenceIT_E4typeEOS3_
FNDA:0,_ZSt4moveIRSaIcEEONSt16remove_referenceIT_E4typeEOS3_
FNF:6
FNH:3
DA:70,30078
DA:71,30078
DA:126,0
DA:127,0
DA:126,10013
DA:127,10013
DA:126,0
DA:127,0
DA:126,201
DA:127,201
DA:126,0
DA:127,0
LF:12
LH:6
end_of_record
SF:C:\msys64\mingw64\include\c++\14.1.0\bits\cpp_type_traits.h
FN:607,_ZSt12__miter_baseIPiET_S1_
FNDA:0,_ZSt12__miter_baseIPiET_S1_
FNF:1
FNH:0
DA:607,0
DA:608,0
LF:2
LH:0
end_of_record
SF:C:\msys64\mingw64\include\c++\14.1.0\bits\ptr_traits.h
FN:205,_ZSt12__to_addressIiEPT_S1_
FNDA:39,_ZSt12__to_addressIiEPT_S1_
FNF:1
FNH:1
DA:205,39
DA:208,39
LF:2
LH:2
end_of_record
SF:C:\msys64\mingw64\include\c++\14.1.0\bits\stl_vector.h
FN:98,_ZNSt12_Vector_baseIiSaIiEE17_Vector_impl_dataC2Ev
FNDA:7,_ZNSt12_Vector_baseIiSaIiEE17_Vector_impl_dataC2Ev
FN:136,_ZNSt12_Vector_baseIiSaIiEE12_Vector_implC1Ev
FNDA:7,_ZNSt12_Vector_baseIiSaIiEE12_Vector_implC1Ev
FN:300,_ZNSt12_Vector_baseIiSaIiEE19_M_get_Tp_allocatorEv
FNDA:41,_ZNSt12_Vector_baseIiSaIiEE19_M_get_Tp_allocatorEv
FN:305,_ZNKSt12_Vector_baseIiSaIiEE19_M_get_Tp_allocatorEv
FNDA:78,_ZNKSt12_Vector_baseIiSaIiEE19_M_get_Tp_allocatorEv
FN:314,_ZNSt12_Vector_baseIiSaIiEEC2Ev
FNDA:7,_ZNSt12_Vector_baseIiSaIiEEC2Ev
FN:366,_ZNSt12_Vector_baseIiSaIiEED2Ev
FNDA:2,_ZNSt12_Vector_baseIiSaIiEED2Ev
FN:377,_ZNSt12_Vector_baseIiSaIiEE11_M_allocateEy
FNDA:39,_ZNSt12_Vector_baseIiSaIiEE11_M_allocateEy
FN:385,_ZNSt12_Vector_baseIiSaIiEE13_M_deallocateEPiy
FNDA:2,_ZNSt12_Vector_baseIiSaIiEE13_M_deallocateEPiy
FN:470,_ZNSt6vectorIiSaIiEE19_S_nothrow_relocateESt17integral_constantIbLb1EE
FNDA:39,_ZNSt6vectorIiSaIiEE19_S_nothrow_relocateESt17integral_constantIbLb1EE
FN:483,_ZNSt6vectorIiSaIiEE15_S_use_relocateEv
FNDA:39,_ZNSt6vectorIiSaIiEE15_S_use_relocateEv
FN:492,_ZNSt6vectorIiSaIiEE14_S_do_relocateEPiS2_S2_RS0_St17integral_constantIbLb1EE
FNDA:39,_ZNSt6vectorIiSaIiEE14_S_do_relocateEPiS2_S2_RS0_St17integral_constantIbLb1EE
FN:504,_ZNSt6vectorIiSaIiEE11_S_relocateEPiS2_S2_RS0_
FNDA:39,_ZNSt6vectorIiSaIiEE11_S_relocateEPiS2_S2_RS0_
FN:531,_ZNSt6vectorIiSaIiEEC1Ev
FNDA:7,_ZNSt6vectorIiSaIiEEC1Ev
FN:733,_ZNSt6vectorIiSaIiEED1Ev
FNDA:2,_ZNSt6vectorIiSaIiEED1Ev
FN:873,_ZNSt6vectorIiSaIiEE5beginEv
FNDA:40,_ZNSt6vectorIiSaIiEE5beginEv
FN:883,_ZNKSt6vectorIiSaIiEE5beginEv
FNDA:1,_ZNKSt6vectorIiSaIiEE5beginEv
FN:893,_ZNSt6vectorIiSaIiEE3endEv
FNDA:40,_ZNSt6vectorIiSaIiEE3endEv
FN:903,_ZNKSt6vectorIiSaIiEE3endEv
FNDA:1,_ZNKSt6vectorIiSaIiEE3endEv
FN:992,_ZNKSt6vectorIiSaIiEE4sizeEv
FNDA:221,_ZNKSt6vectorIiSaIiEE4sizeEv
FN:998,_ZNKSt6vectorIiSaIiEE8max_sizeEv
FNDA:78,_ZNKSt6vectorIiSaIiEE8max_sizeEv
FN:1090,_ZNKSt6vectorIiSaIiEE5emptyEv
FNDA:1,_ZNKSt6vectorIiSaIiEE5emptyEv
FN:1300,_ZNSt6vectorIiSaIiEE9push_backEOi
FNDA:10013,_ZNSt6vectorIiSaIiEE9push_backEOi
FN:1906,_ZNKSt6vectorIiSaIiEE12_M_check_lenEyPKc
FNDA:39,_ZNKSt6vectorIiSaIiEE12_M_check_lenEyPKc
FN:1926,_ZNSt6vectorIiSaIiEE11_S_max_sizeERKS0_
FNDA:78,_ZNSt6vectorIiSaIiEE11_S_max_sizeERKS0_
FNF:24
FNH:24
DA:98,7
DA:99,7
DA:100,7
DA:136,7
DA:141,7
DA:142,7
DA:300,41
DA:301,41
DA:305,78
DA:306,78
DA:314,7
DA:366,2
DA:368,2
DA:369,2
DA:370,2
DA:377,39
DA:380,78
DA:385,2
DA:388,2
DA:389,2
DA:390,2
DA:470,39
DA:475,39
DA:483,39
DA:488,39
DA:492,39
DA:495,39
DA:504,39
DA:512,39
DA:531,7
DA:733,2
DA:735,2
DA:736,2
DA:738,2
DA:873,40
DA:874,40
DA:883,1
DA:884,1
DA:893,40
DA:894,40
DA:903,1
DA:904,1
DA:992,221
DA:993,221
DA:998,78
DA:999,78
DA:1090,1
DA:1091,1
DA:1300,10013
DA:1301,10013
DA:1906,39
DA:1908,39
DA:1909,0
DA:1911,39
DA:1912,39
DA:1926,78
DA:1931,78
DA:1933,78
DA:1934,78
LF:59
LH:58
end_of_record
SF:C:\msys64\mingw64\include\c++\14.1.0\bits\stl_iterator.h
FN:1067,_ZN9__gnu_cxx17__normal_iteratorIPiSt6vectorIiSaIiEEEC1ERKS1_
FNDA:80,_ZN9__gnu_cxx17__normal_iteratorIPiSt6vectorIiSaIiEEEC1ERKS1_
FN:1067,_ZN9__gnu_cxx17__normal_iteratorIPKiSt6vectorIiSaIiEEEC1ERKS2_
FNDA:2,_ZN9__gnu_cxx17__normal_iteratorIPKiSt6vectorIiSaIiEEEC1ERKS2_
FN:1153,_ZNK9__gnu_cxx17__normal_iteratorIPiSt6vectorIiSaIiEEE4baseEv
FNDA:10080,_ZNK9__gnu_cxx17__normal_iteratorIPiSt6vectorIiSaIiEEE4baseEv
FN:1153,_ZNK9__gnu_cxx17__normal_iteratorIPKiSt6vectorIiSaIiEEE4baseEv
FNDA:2,_ZNK9__gnu_cxx17__normal_iteratorIPKiSt6vectorIiSaIiEEE4baseEv
FN:1216,_ZN9__gnu_cxxeqIPKiSt6vectorIiSaIiEEEEbRKNS_17__normal_iteratorIT_T0_EESB_
FNDA:1,_ZN9__gnu_cxxeqIPKiSt6vectorIiSaIiEEEEbRKNS_17__normal_iteratorIT_T0_EESB_
FN:1325,_ZN9__gnu_cxxmiIPiSt6vectorIiSaIiEEEENS_17__normal_iteratorIT_T0_E15difference_typeERKS8_SB_
FNDA:39,_ZN9__gnu_cxxmiIPiSt6vectorIiSaIiEEEENS_17__normal_iteratorIT_T0_E15difference_typeERKS8_SB_
FN:1508,_ZNSt13move_iteratorIPiEC1ES0_
FNDA:0,_ZNSt13move_iteratorIPiEC1ES0_
FN:1534,_ZNKSt13move_iteratorIPiE4baseEv
FNDA:0,_ZNKSt13move_iteratorIPiE4baseEv
FN:1821,_ZSt32__make_move_if_noexcept_iteratorIiSt13move_iteratorIPiEET0_PT_
FNDA:0,_ZSt32__make_move_if_noexcept_iteratorIiSt13move_iteratorIPiEET0_PT_
FN:2969,_ZSt12__miter_baseIPiEDTcl12__miter_basecldtfp_4baseEEESt13move_iteratorIT_E
FNDA:0,_ZSt12__miter_baseIPiEDTcl12__miter_basecldtfp_4baseEEESt13move_iteratorIT_E
FNF:10
FNH:6
DA:1067,80
DA:1068,80
DA:1067,2
DA:1068,2
DA:1153,10080
DA:1154,10080
DA:1153,2
DA:1154,2
DA:1216,1
DA:1219,1
DA:1325,39
DA:1328,39
DA:1508,0
DA:1509,0
DA:1534,0
DA:1535,0
DA:1821,0
DA:1822,0
DA:2969,0
DA:2971,0
LF:20
LH:12
end_of_record
TN:
SF:C:\workspace\matrixGenerator\build\_deps\googletest-src\googletest\include\gtest\gtest-printers.h
FN:212,_ZN7testing8internal52internal_stream_operator_without_lexical_name_lookup13StreamPrinter10PrintValueIivRSoEEvRKT_PSo
FNDA:0,_ZN7testing8internal52internal_stream_operator_without_lexical_name_lookup13StreamPrinter10PrintValueIivRSoEEvRKT_PSo
FN:306,_ZN7testing8internal17PrintWithFallbackIiEEvRKT_PSo
FNDA:0,_ZN7testing8internal17PrintWithFallbackIiEEvRKT_PSo
FN:333,_ZN7testing8internal19FormatForComparisonIiiE6FormatB5cxx11ERKi
FNDA:0,_ZN7testing8internal19FormatForComparisonIiiE6FormatB5cxx11ERKi
FN:413,_ZN7testing8internal33FormatForComparisonFailureMessageIiiEENSt7__cxx1112basic_stringIcSt11char_traitsIcESaIcEEERKT_RKT0_
FNDA:0,_ZN7testing8internal33FormatForComparisonFailureMessageIiiEENSt7__cxx1112basic_stringIcSt11char_traitsIcESaIcEEERKT_RKT0_
FN:440,_ZN7testing8internal7PrintToIiEEvRKT_PSo
FNDA:0,_ZN7testing8internal7PrintToIiEEvRKT_PSo
FN:682,_ZN7testing8internal16UniversalPrinterIiE5PrintERKiPSo
FNDA:0,_ZN7testing8internal16UniversalPrinterIiE5PrintERKiPSo
FN:864,_ZN7testing8internal21UniversalTersePrinterIiE5PrintERKiPSo
FNDA:0,_ZN7testing8internal21UniversalTersePrinterIiE5PrintERKiPSo
FN:976,_ZN7testing8internal14UniversalPrintIiEEvRKT_PSo
FNDA:0,_ZN7testing8internal14UniversalPrintIiEEvRKT_PSo
FN:1016,_ZN7testing13PrintToStringIiEENSt7__cxx1112basic_stringIcSt11char_traitsIcESaIcEEERKT_
FNDA:0,_ZN7testing13PrintToStringIiEENSt7__cxx1112basic_stringIcSt11char_traitsIcESaIcEEERKT_
FNF:9
FNH:0
DA:212,0
DA:215,0
DA:216,0
DA:306,0
DA:312,0
DA:313,0
DA:333,0
DA:334,0
DA:413,0
DA:415,0
DA:440,0
DA:441,0
DA:442,0
DA:682,0
DA:691,0
DA:692,0
DA:864,0
DA:865,0
DA:866,0
DA:976,0
DA:980,0
DA:981,0
DA:1016,0
DA:1017,0
DA:1018,0
DA:1019,0
DA:1020,0
LF:27
LH:0
end_of_record
SF:C:\workspace\matrixGenerator\build\_deps\googletest-src\googletest\include\gtest\gtest.h
FN:324,_ZNK7testing15AssertionResultcvbEv
FNDA:0,_ZNK7testing15AssertionResultcvbEv
FN:333,_ZNK7testing15AssertionResult7messageEv
FNDA:0,_ZNK7testing15AssertionResult7messageEv
FN:337,_ZNK7testing15AssertionResult15failure_messageEv
FNDA:0,_ZNK7testing15AssertionResult15failure_messageEv
FN:340,_ZN7testing15AssertionResultlsINSt7__cxx1112basic_stringIcSt11char_traitsIcESaIcEEEEERS0_RKT_
FNDA:0,_ZN7testing15AssertionResultlsINSt7__cxx1112basic_stringIcSt11char_traitsIcESaIcEEEEERS0_RKT_
FN:340,_ZN7testing15AssertionResultlsIA12_cEERS0_RKT_
FNDA:0,_ZN7testing15AssertionResultlsIA12_cEERS0_RKT_
FN:340,_ZN7testing15AssertionResultlsIPKcEERS0_RKT_
FNDA:0,_ZN7testing15AssertionResultlsIPKcEERS0_RKT_
FN:340,_ZN7testing15AssertionResultlsIA3_cEERS0_RKT_
FNDA:0,_ZN7testing15AssertionResultlsIA3_cEERS0_RKT_
FN:340,_ZN7testing15AssertionResultlsIA5_cEERS0_RKT_
FNDA:0,_ZN7testing15AssertionResultlsIA5_cEERS0_RKT_
FN:355,_ZN7testing15AssertionResult13AppendMessageERKNS_7MessageE
FNDA:0,_ZN7testing15AssertionResult13AppendMessageERKNS_7MessageE
FN:427,_ZN7testing4Test14SetUpTestSuiteEv
FNDA:0,_ZN7testing4Test14SetUpTestSuiteEv
FN:435,_ZN7testing4Test17TearDownTestSuiteEv
FNDA:0,_ZN7testing4Test17TearDownTestSuiteEv
FN:440,_ZN7testing4Test16TearDownTestCaseEv
FNDA:0,_ZN7testing4Test16TearDownTestCaseEv
FN:441,_ZN7testing4Test13SetUpTestCaseEv
FNDA:0,_ZN7testing4Test13SetUpTestCaseEv
FN:522,_ZN7testing4Test5SetupEv
FNDA:0,_ZN7testing4Test5SetupEv
FN:1595,_ZN7testing8internal18CmpHelperOpFailureIiiEENS_15AssertionResultEPKcS4_RKT_RKT0_S4_
FNDA:0,_ZN7testing8internal18CmpHelperOpFailureIiiEENS_15AssertionResultEPKcS4_RKT_RKT0_S4_
FN:1628,_ZN7testing8internal11CmpHelperLTIiiEENS_15AssertionResultEPKcS4_RKT_RKT0_
FNDA:100,_ZN7testing8internal11CmpHelperLTIiiEENS_15AssertionResultEPKcS4_RKT_RKT0_
FN:1630,_ZN7testing8internal11CmpHelperGEIiiEENS_15AssertionResultEPKcS4_RKT_RKT0_
FNDA:104,_ZN7testing8internal11CmpHelperGEIiiEENS_15AssertionResultEPKcS4_RKT_RKT0_
FNF:17
FNH:2
DA:324,0
DA:333,0
DA:334,0
DA:337,0
DA:340,0
DA:341,0
DA:342,0
DA:340,0
DA:341,0
DA:342,0
DA:340,0
DA:341,0
DA:342,0
DA:340,0
DA:341,0
DA:342,0
DA:340,0
DA:341,0
DA:342,0
DA:355,0
DA:356,0
DA:357,0
DA:358,0
DA:427,0
DA:435,0
DA:440,0
DA:441,0
DA:522,0
DA:1595,0
DA:1598,0
DA:1599,0
DA:1600,0
DA:1601,0
DA:1628,100
DA:1630,104
LF:35
LH:2
end_of_record
SF:C:\workspace\matrixGenerator\build\_deps\googletest-src\googletest\include\gtest\internal\gtest-internal.h
FN:435,_ZN7testing8internal9GetTypeIdI19RandomGeneratorTestEEPKvv
FNDA:1,_ZN7testing8internal9GetTypeIdI19RandomGeneratorTestEEPKvv
FN:454,_ZN7testing8internal15TestFactoryBaseD2Ev
FNDA:0,_ZN7testing8internal15TestFactoryBaseD2Ev
FN:461,_ZN7testing8internal15TestFactoryBaseC2Ev
FNDA:0,_ZN7testing8internal15TestFactoryBaseC2Ev
FN:472,_ZN7testing8internal15TestFactoryImplI50RandomGeneratorTest_GenerateRandomNumbersTest_TestE10CreateTestEv
FNDA:1,_ZN7testing8internal15TestFactoryImplI50RandomGeneratorTest_GenerateRandomNumbersTest_TestE10CreateTestEv
FN:493,_ZN7testing8internal12CodeLocationC1ERKNSt7__cxx1112basic_stringIcSt11char_traitsIcESaIcEEEi
FNDA:0,_ZN7testing8internal12CodeLocationC1ERKNSt7__cxx1112basic_stringIcSt11char_traitsIcESaIcEEEi
FN:506,_ZN7testing8internal19GetNotDefaultOrNullEPFvvES2_
FNDA:0,_ZN7testing8internal19GetNotDefaultOrNullEPFvvES2_
FN:521,_ZN7testing8internal16SuiteApiResolverI19RandomGeneratorTestE19GetSetUpCaseOrSuiteEPKci
FNDA:1,_ZN7testing8internal16SuiteApiResolverI19RandomGeneratorTestE19GetSetUpCaseOrSuiteEPKci
FN:542,_ZN7testing8internal16SuiteApiResolverI19RandomGeneratorTestE22GetTearDownCaseOrSuiteEPKci
FNDA:1,_ZN7testing8internal16SuiteApiResolverI19RandomGeneratorTestE22GetTearDownCaseOrSuiteEPKci
FNF:8
FNH:4
DA:435,1
DA:440,1
DA:454,0
DA:461,0
DA:472,1
DA:493,0
DA:494,0
DA:506,0
DA:508,0
DA:521,1
DA:525,1
DA:527,1
DA:529,1
DA:532,0
DA:534,1
DA:542,1
DA:546,1
DA:548,1
DA:550,1
DA:553,0
DA:555,1
LF:21
LH:13
end_of_record
SF:C:\msys64\mingw64\include\c++\14.1.0\bits\basic_string.h
DA:360,0
LF:1
LH:0
end_of_record
SF:C:\workspace\matrixGenerator\tests\RandomGeneratorTest.cpp
FN:10,_ZN19RandomGeneratorTest5SetUpEv
FNDA:1,_ZN19RandomGeneratorTest5SetUpEv
FN:15,_ZN19RandomGeneratorTest8TearDownEv
FNDA:1,_ZN19RandomGeneratorTest8TearDownEv
FN:21,_ZN50RandomGeneratorTest_GenerateRandomNumbersTest_TestC1Ev
FNDA:1,_ZN50RandomGeneratorTest_GenerateRandomNumbersTest_TestC1Ev
FN:21,_ZN50RandomGeneratorTest_GenerateRandomNumbersTest_TestD0Ev
FNDA:1,_ZN50RandomGeneratorTest_GenerateRandomNumbersTest_TestD0Ev
FN:21,_ZN50RandomGeneratorTest_GenerateRandomNumbersTest_TestD1Ev
FNDA:1,_ZN50RandomGeneratorTest_GenerateRandomNumbersTest_TestD1Ev
FN:21,_ZN50RandomGeneratorTest_GenerateRandomNumbersTest_Test8TestBodyEv
FNDA:1,_ZN50RandomGeneratorTest_GenerateRandomNumbersTest_Test8TestBodyEv
FNF:6
FNH:6
DA:10,1
DA:12,1
DA:13,1
DA:15,1
DA:17,1
DA:18,1
DA:21,1
DA:21,1
DA:21,1
DA:21,1
DA:23,1
DA:24,1
DA:26,1
DA:28,1
DA:30,1
DA:32,101
DA:34,100
DA:35,100
DA:37,1
LF:19
LH:19
end_of_record
SF:C:\msys64\mingw64\include\c++\14.1.0\bits\allocator.h
LF:0
LH:0
end_of_record
SF:C:\msys64\mingw64\include\c++\14.1.0\bits\new_allocator.h
FN:104,_ZNSt15__new_allocatorIcED2Ev
FNDA:0,_ZNSt15__new_allocatorIcED2Ev
FNF:1
FNH:0
DA:104,0
LF:1
LH:0
end_of_record
SF:C:\msys64\mingw64\include\c++\14.1.0\bits\char_traits.h
FN:385,_ZNSt11char_traitsIcE6lengthEPKc
FNDA:0,_ZNSt11char_traitsIcE6lengthEPKc
FNF:1
FNH:0
DA:385,0
DA:391,0
LF:2
LH:0
end_of_record
SF:C:\msys64\mingw64\include\c++\14.1.0\bits\move.h
FN:126,_ZSt4moveIRPNSt7__cxx1112basic_stringIcSt11char_traitsIcESaIcEEEEONSt16remove_referenceIT_E4typeEOS9_
FNDA:0,_ZSt4moveIRPNSt7__cxx1112basic_stringIcSt11char_traitsIcESaIcEEEEONSt16remove_referenceIT_E4typeEOS9_
FN:126,_ZSt4moveIRPNSt7__cxx1118basic_stringstreamIcSt11char_traitsIcESaIcEEEEONSt16remove_referenceIT_E4typeEOS9_
FNDA:0,_ZSt4moveIRPNSt7__cxx1118basic_stringstreamIcSt11char_traitsIcESaIcEEEEONSt16remove_referenceIT_E4typeEOS9_
FN:126,_ZSt4moveIRSaIcEEONSt16remove_referenceIT_E4typeEOS3_
FNDA:0,_ZSt4moveIRSaIcEEONSt16remove_referenceIT_E4typeEOS3_
FNF:3
FNH:0
DA:126,0
DA:127,0
DA:126,0
DA:127,0
DA:126,0
DA:127,0
LF:6
LH:0
end_of_record
SF:C:\workspace\matrixGenerator\include\RandomGeneratorAbstract.hpp
FN:7,_ZN23RandomGeneratorAbstractC2Ev
FNDA:0,_ZN23RandomGeneratorAbstractC2Ev
FNF:1
FNH:0
DA:7,0
LF:1
LH:0
end_of_record
SF:C:\workspace\matrixGenerator\include\RandomGenerator.hpp
FN:10,_ZN15RandomGeneratorC1Ev
FNDA:0,_ZN15RandomGeneratorC1Ev
FNF:1
FNH:0
DA:10,0
LF:1
LH:0
end_of_record
SF:C:\msys64\mingw64\include\c++\14.1.0\bits\unique_ptr.h
FN:87,_ZNKSt14default_deleteINSt7__cxx1118basic_stringstreamIcSt11char_traitsIcESaIcEEEEclEPS5_
FNDA:0,_ZNKSt14default_deleteINSt7__cxx1118basic_stringstreamIcSt11char_traitsIcESaIcEEEEclEPS5_
FN:87,_ZNKSt14default_deleteINSt7__cxx1112basic_stringIcSt11char_traitsIcESaIcEEEEclEPS5_
FNDA:0,_ZNKSt14default_deleteINSt7__cxx1112basic_stringIcSt11char_traitsIcESaIcEEEEclEPS5_
FN:191,_ZNSt15__uniq_ptr_implINSt7__cxx1118basic_stringstreamIcSt11char_traitsIcESaIcEEESt14default_deleteIS5_EE6_M_ptrEv
FNDA:0,_ZNSt15__uniq_ptr_implINSt7__cxx1118basic_stringstreamIcSt11char_traitsIcESaIcEEESt14default_deleteIS5_EE6_M_ptrEv
FN:191,_ZNSt15__uniq_ptr_implINSt7__cxx1112basic_stringIcSt11char_traitsIcESaIcEEESt14default_deleteIS5_EE6_M_ptrEv
FNDA:0,_ZNSt15__uniq_ptr_implINSt7__cxx1112basic_stringIcSt11char_traitsIcESaIcEEESt14default_deleteIS5_EE6_M_ptrEv
FN:193,_ZNKSt15__uniq_ptr_implINSt7__cxx1118basic_stringstreamIcSt11char_traitsIcESaIcEEESt14default_deleteIS5_EE6_M_ptrEv
FNDA:1822,_ZNKSt15__uniq_ptr_implINSt7__cxx1118basic_stringstreamIcSt11char_traitsIcESaIcEEESt14default_deleteIS5_EE6_M_ptrEv
FN:193,_ZNKSt15__uniq_ptr_implINSt7__cxx1112basic_stringIcSt11char_traitsIcESaIcEEESt14default_deleteIS5_EE6_M_ptrEv
FNDA:0,_ZNKSt15__uniq_ptr_implINSt7__cxx1112basic_stringIcSt11char_traitsIcESaIcEEESt14default_deleteIS5_EE6_M_ptrEv
FN:195,_ZNSt15__uniq_ptr_implINSt7__cxx1118basic_stringstreamIcSt11char_traitsIcESaIcEEESt14default_deleteIS5_EE10_M_deleterEv
FNDA:0,_ZNSt15__uniq_ptr_implINSt7__cxx1118basic_stringstreamIcSt11char_traitsIcESaIcEEESt14default_deleteIS5_EE10_M_deleterEv
FN:195,_ZNSt15__uniq_ptr_implINSt7__cxx1112basic_stringIcSt11char_traitsIcESaIcEEESt14default_deleteIS5_EE10_M_deleterEv
FNDA:0,_ZNSt15__uniq_ptr_implINSt7__cxx1112basic_stringIcSt11char_traitsIcESaIcEEESt14default_deleteIS5_EE10_M_deleterEv
FN:200,_ZNSt15__uniq_ptr_implINSt7__cxx1112basic_stringIcSt11char_traitsIcESaIcEEESt14default_deleteIS5_EE5resetEPS5_
FNDA:0,_ZNSt15__uniq_ptr_implINSt7__cxx1112basic_stringIcSt11char_traitsIcESaIcEEESt14default_deleteIS5_EE5resetEPS5_
FN:392,_ZNSt10unique_ptrINSt7__cxx1112basic_stringIcSt11char_traitsIcESaIcEEESt14default_deleteIS5_EED1Ev
FNDA:0,_ZNSt10unique_ptrINSt7__cxx1112basic_stringIcSt11char_traitsIcESaIcEEESt14default_deleteIS5_EED1Ev
FN:392,_ZNSt10unique_ptrINSt7__cxx1118basic_stringstreamIcSt11char_traitsIcESaIcEEESt14default_deleteIS5_EED1Ev
FNDA:0,_ZNSt10unique_ptrINSt7__cxx1118basic_stringstreamIcSt11char_traitsIcESaIcEEESt14default_deleteIS5_EED1Ev
FN:445,_ZNKSt10unique_ptrINSt7__cxx1118basic_stringstreamIcSt11char_traitsIcESaIcEEESt14default_deleteIS5_EEdeEv
FNDA:1621,_ZNKSt10unique_ptrINSt7__cxx1118basic_stringstreamIcSt11char_traitsIcESaIcEEESt14default_deleteIS5_EEdeEv
FN:454,_ZNKSt10unique_ptrINSt7__cxx1112basic_stringIcSt11char_traitsIcESaIcEEESt14default_deleteIS5_EEptEv
FNDA:0,_ZNKSt10unique_ptrINSt7__cxx1112basic_stringIcSt11char_traitsIcESaIcEEESt14default_deleteIS5_EEptEv
FN:463,_ZNKSt10unique_ptrINSt7__cxx1118basic_stringstreamIcSt11char_traitsIcESaIcEEESt14default_deleteIS5_EE3getEv
FNDA:1822,_ZNKSt10unique_ptrINSt7__cxx1118basic_stringstreamIcSt11char_traitsIcESaIcEEESt14default_deleteIS5_EE3getEv
FN:463,_ZNKSt10unique_ptrINSt7__cxx1112basic_stringIcSt11char_traitsIcESaIcEEESt14default_deleteIS5_EE3getEv
FNDA:0,_ZNKSt10unique_ptrINSt7__cxx1112basic_stringIcSt11char_traitsIcESaIcEEESt14default_deleteIS5_EE3getEv
FN:469,_ZNSt10unique_ptrINSt7__cxx1112basic_stringIcSt11char_traitsIcESaIcEEESt14default_deleteIS5_EE11get_deleterEv
FNDA:0,_ZNSt10unique_ptrINSt7__cxx1112basic_stringIcSt11char_traitsIcESaIcEEESt14default_deleteIS5_EE11get_deleterEv
FN:469,_ZNSt10unique_ptrINSt7__cxx1118basic_stringstreamIcSt11char_traitsIcESaIcEEESt14default_deleteIS5_EE11get_deleterEv
FNDA:0,_ZNSt10unique_ptrINSt7__cxx1118basic_stringstreamIcSt11char_traitsIcESaIcEEESt14default_deleteIS5_EE11get_deleterEv
FN:499,_ZNSt10unique_ptrINSt7__cxx1112basic_stringIcSt11char_traitsIcESaIcEEESt14default_deleteIS5_EE5resetEPS5_
FNDA:0,_ZNSt10unique_ptrINSt7__cxx1112basic_stringIcSt11char_traitsIcESaIcEEESt14default_deleteIS5_EE5resetEPS5_
FNF:18
FNH:3
DA:87,0
DA:93,0
DA:94,0
DA:87,0
DA:93,0
DA:94,0
DA:191,0
DA:191,0
DA:193,1822
DA:193,0
DA:195,0
DA:195,0
DA:200,0
DA:202,0
DA:203,0
DA:204,0
DA:205,0
DA:206,0
DA:392,0
DA:396,0
DA:397,0
DA:398,0
DA:399,0
DA:400,0
DA:392,0
DA:396,0
DA:397,0
DA:398,0
DA:399,0
DA:400,0
DA:445,1621
DA:447,1621
DA:448,1621
DA:454,0
DA:457,0
DA:463,1822
DA:464,1822
DA:463,0
DA:464,0
DA:469,0
DA:470,0
DA:469,0
DA:470,0
DA:499,0
DA:503,0
DA:504,0
LF:46
LH:6
end_of_record
SF:C:\workspace\matrixGenerator\build\_deps\googletest-src\googletest\include\gtest\gtest-message.h
FN:113,_ZN7testing7MessagelsIA5_cEERS0_RKT_
FNDA:0,_ZN7testing7MessagelsIA5_cEERS0_RKT_
FN:113,_ZN7testing7MessagelsINSt7__cxx1112basic_stringIcSt11char_traitsIcESaIcEEEEERS0_RKT_
FNDA:0,_ZN7testing7MessagelsINSt7__cxx1112basic_stringIcSt11char_traitsIcESaIcEEEEERS0_RKT_
FN:113,_ZN7testing7MessagelsIA3_cEERS0_RKT_
FNDA:0,_ZN7testing7MessagelsIA3_cEERS0_RKT_
FN:113,_ZN7testing7MessagelsIA12_cEERS0_RKT_
FNDA:0,_ZN7testing7MessagelsIA12_cEERS0_RKT_
FN:147,_ZN7testing7MessagelsIKcEERS0_RKPT_
FNDA:20,_ZN7testing7MessagelsIKcEERS0_RKPT_
FNF:5
FNH:1
DA:113,0
DA:129,0
DA:130,0
DA:113,0
DA:129,0
DA:130,0
DA:113,0
DA:129,0
DA:130,0
DA:113,0
DA:129,0
DA:130,0
DA:147,20
DA:148,20
DA:149,0
DA:151,20
DA:153,20
LF:17
LH:4
end_of_record
SF:C:\msys64\mingw64\include\c++\14.1.0\bits\basic_string.tcc
FN:221,_ZNSt7__cxx1112basic_stringIcSt11char_traitsIcESaIcEE12_M_constructIPcEEvT_S7_St20forward_iterator_tag
FNDA:0,_ZNSt7__cxx1112basic_stringIcSt11char_traitsIcESaIcEE12_M_constructIPcEEvT_S7_St20forward_iterator_tag
FN:221,_ZNSt7__cxx1112basic_stringIcSt11char_traitsIcESaIcEE12_M_constructIPKcEEvT_S8_St20forward_iterator_tag
FNDA:0,_ZNSt7__cxx1112basic_stringIcSt11char_traitsIcESaIcEE12_M_constructIPKcEEvT_S8_St20forward_iterator_tag
FN:239,_ZZNSt7__cxx1112basic_stringIcSt11char_traitsIcESaIcEE12_M_constructIPcEEvT_S7_St20forward_iterator_tagEN6_GuardC1EPS4_
FNDA:0,_ZZNSt7__cxx1112basic_stringIcSt11char_traitsIcESaIcEE12_M_constructIPcEEvT_S7_St20forward_iterator_tagEN6_GuardC1EPS4_
FN:239,_ZZNSt7__cxx1112basic_stringIcSt11char_traitsIcESaIcEE12_M_constructIPKcEEvT_S8_St20forward_iterator_tagEN6_GuardC1EPS4_
FNDA:0,_ZZNSt7__cxx1112basic_stringIcSt11char_traitsIcESaIcEE12_M_constructIPKcEEvT_S8_St20forward_iterator_tagEN6_GuardC1EPS4_
FN:242,_ZZNSt7__cxx1112basic_stringIcSt11char_traitsIcESaIcEE12_M_constructIPcEEvT_S7_St20forward_iterator_tagEN6_GuardD1Ev
FNDA:0,_ZZNSt7__cxx1112basic_stringIcSt11char_traitsIcESaIcEE12_M_constructIPcEEvT_S7_St20forward_iterator_tagEN6_GuardD1Ev
FN:242,_ZZNSt7__cxx1112basic_stringIcSt11char_traitsIcESaIcEE12_M_constructIPKcEEvT_S8_St20forward_iterator_tagEN6_GuardD1Ev
FNDA:0,_ZZNSt7__cxx1112basic_stringIcSt11char_traitsIcESaIcEE12_M_constructIPKcEEvT_S8_St20forward_iterator_tagEN6_GuardD1Ev
FNF:6
FNH:0
DA:221,0
DA:225,0
DA:227,0
DA:229,0
DA:230,0
DA:245,0
DA:247,0
DA:249,0
DA:251,0
DA:252,0
DA:221,0
DA:225,0
DA:227,0
DA:229,0
DA:230,0
DA:245,0
DA:247,0
DA:249,0
DA:251,0
DA:252,0
DA:239,0
DA:239,0
DA:242,0
DA:242,0
LF:24
LH:0
end_of_record
SF:C:\workspace\matrixGenerator\build\_deps\googletest-src\googletest\include\gtest\internal\gtest-port.h
FN:974,_ZN7testing8internal8GTestLog9GetStreamEv
FNDA:0,_ZN7testing8internal8GTestLog9GetStreamEv
FNF:1
FNH:0
DA:974,0
LF:1
LH:0
end_of_record
SF:C:\msys64\mingw64\include\c++\14.1.0\bits\stl_iterator_base_types.h
DA:240,0
LF:1
LH:0
end_of_record
SF:C:\msys64\mingw64\include\c++\14.1.0\bits\stl_iterator_base_funcs.h
DA:106,0
DA:151,0
DA:152,0
LF:3
LH:0
end_of_record
SF:C:\msys64\mingw64\include\c++\14.1.0\tuple
FN:133,_ZNSt10_Head_baseILy1ESt14default_deleteINSt7__cxx1112basic_stringIcSt11char_traitsIcESaIcEEEELb1EE7_M_headERS8_
FNDA:0,_ZNSt10_Head_baseILy1ESt14default_deleteINSt7__cxx1112basic_stringIcSt11char_traitsIcESaIcEEEELb1EE7_M_headERS8_
FN:133,_ZNSt10_Head_baseILy1ESt14default_deleteINSt7__cxx1118basic_stringstreamIcSt11char_traitsIcESaIcEEEELb1EE7_M_headERS8_
FNDA:0,_ZNSt10_Head_baseILy1ESt14default_deleteINSt7__cxx1118basic_stringstreamIcSt11char_traitsIcESaIcEEEELb1EE7_M_headERS8_
FN:242,_ZNSt10_Head_baseILy0EPNSt7__cxx1112basic_stringIcSt11char_traitsIcESaIcEEELb0EE7_M_headERS7_
FNDA:0,_ZNSt10_Head_baseILy0EPNSt7__cxx1112basic_stringIcSt11char_traitsIcESaIcEEELb0EE7_M_headERS7_
FN:242,_ZNSt10_Head_baseILy0EPNSt7__cxx1118basic_stringstreamIcSt11char_traitsIcESaIcEEELb0EE7_M_headERS7_
FNDA:0,_ZNSt10_Head_baseILy0EPNSt7__cxx1118basic_stringstreamIcSt11char_traitsIcESaIcEEELb0EE7_M_headERS7_
FN:245,_ZNSt10_Head_baseILy0EPNSt7__cxx1118basic_stringstreamIcSt11char_traitsIcESaIcEEELb0EE7_M_headERKS7_
FNDA:1822,_ZNSt10_Head_baseILy0EPNSt7__cxx1118basic_stringstreamIcSt11char_traitsIcESaIcEEELb0EE7_M_headERKS7_
FN:245,_ZNSt10_Head_baseILy0EPNSt7__cxx1112basic_stringIcSt11char_traitsIcESaIcEEELb0EE7_M_headERKS7_
FNDA:0,_ZNSt10_Head_baseILy0EPNSt7__cxx1112basic_stringIcSt11char_traitsIcESaIcEEELb0EE7_M_headERKS7_
FN:293,_ZNSt11_Tuple_implILy0EJPNSt7__cxx1112basic_stringIcSt11char_traitsIcESaIcEEESt14default_deleteIS5_EEE7_M_headERS9_
FNDA:0,_ZNSt11_Tuple_implILy0EJPNSt7__cxx1112basic_stringIcSt11char_traitsIcESaIcEEESt14default_deleteIS5_EEE7_M_headERS9_
FN:293,_ZNSt11_Tuple_implILy0EJPNSt7__cxx1118basic_stringstreamIcSt11char_traitsIcESaIcEEESt14default_deleteIS5_EEE7_M_headERS9_
FNDA:0,_ZNSt11_Tuple_implILy0EJPNSt7__cxx1118basic_stringstreamIcSt11char_traitsIcESaIcEEESt14default_deleteIS5_EEE7_M_headERS9_
FN:296,_ZNSt11_Tuple_implILy0EJPNSt7__cxx1118basic_stringstreamIcSt11char_traitsIcESaIcEEESt14default_deleteIS5_EEE7_M_headERKS9_
FNDA:1822,_ZNSt11_Tuple_implILy0EJPNSt7__cxx1118basic_stringstreamIcSt11char_traitsIcESaIcEEESt14default_deleteIS5_EEE7_M_headERKS9_
FN:296,_ZNSt11_Tuple_implILy0EJPNSt7__cxx1112basic_stringIcSt11char_traitsIcESaIcEEESt14default_deleteIS5_EEE7_M_headERKS9_
FNDA:0,_ZNSt11_Tuple_implILy0EJPNSt7__cxx1112basic_stringIcSt11char_traitsIcESaIcEEESt14default_deleteIS5_EEE7_M_headERKS9_
FN:556,_ZNSt11_Tuple_implILy1EJSt14default_deleteINSt7__cxx1118basic_stringstreamIcSt11char_traitsIcESaIcEEEEEE7_M_headERS8_
FNDA:0,_ZNSt11_Tuple_implILy1EJSt14default_deleteINSt7__cxx1118basic_stringstreamIcSt11char_traitsIcESaIcEEEEEE7_M_headERS8_
FN:556,_ZNSt11_Tuple_implILy1EJSt14default_deleteINSt7__cxx1112basic_stringIcSt11char_traitsIcESaIcEEEEEE7_M_headERS8_
FNDA:0,_ZNSt11_Tuple_implILy1EJSt14default_deleteINSt7__cxx1112basic_stringIcSt11char_traitsIcESaIcEEEEEE7_M_headERS8_
FN:2427,_ZSt12__get_helperILy1ESt14default_deleteINSt7__cxx1112basic_stringIcSt11char_traitsIcESaIcEEEEJEERT0_RSt11_Tuple_implIXT_EJS8_DpT1_EE
FNDA:0,_ZSt12__get_helperILy1ESt14default_deleteINSt7__cxx1112basic_stringIcSt11char_traitsIcESaIcEEEEJEERT0_RSt11_Tuple_implIXT_EJS8_DpT1_EE
FN:2427,_ZSt12__get_helperILy1ESt14default_deleteINSt7__cxx1118basic_stringstreamIcSt11char_traitsIcESaIcEEEEJEERT0_RSt11_Tuple_implIXT_EJS8_DpT1_EE
FNDA:0,_ZSt12__get_helperILy1ESt14default_deleteINSt7__cxx1118basic_stringstreamIcSt11char_traitsIcESaIcEEEEJEERT0_RSt11_Tuple_implIXT_EJS8_DpT1_EE
FN:2427,_ZSt12__get_helperILy0EPNSt7__cxx1112basic_stringIcSt11char_traitsIcESaIcEEEJSt14default_deleteIS5_EEERT0_RSt11_Tuple_implIXT_EJS9_DpT1_EE
FNDA:0,_ZSt12__get_helperILy0EPNSt7__cxx1112basic_stringIcSt11char_traitsIcESaIcEEEJSt14default_deleteIS5_EEERT0_RSt11_Tuple_implIXT_EJS9_DpT1_EE
FN:2427,_ZSt12__get_helperILy0EPNSt7__cxx1118basic_stringstreamIcSt11char_traitsIcESaIcEEEJSt14default_deleteIS5_EEERT0_RSt11_Tuple_implIXT_EJS9_DpT1_EE
FNDA:0,_ZSt12__get_helperILy0EPNSt7__cxx1118basic_stringstreamIcSt11char_traitsIcESaIcEEEJSt14default_deleteIS5_EEERT0_RSt11_Tuple_implIXT_EJS9_DpT1_EE
FN:2432,_ZSt12__get_helperILy0EPNSt7__cxx1118basic_stringstreamIcSt11char_traitsIcESaIcEEEJSt14default_deleteIS5_EEERKT0_RKSt11_Tuple_implIXT_EJS9_DpT1_EE
FNDA:1822,_ZSt12__get_helperILy0EPNSt7__cxx1118basic_stringstreamIcSt11char_traitsIcESaIcEEEJSt14default_deleteIS5_EEERKT0_RKSt11_Tuple_implIXT_EJS9_DpT1_EE
FN:2432,_ZSt12__get_helperILy0EPNSt7__cxx1112basic_stringIcSt11char_traitsIcESaIcEEEJSt14default_deleteIS5_EEERKT0_RKSt11_Tuple_implIXT_EJS9_DpT1_EE
FNDA:0,_ZSt12__get_helperILy0EPNSt7__cxx1112basic_stringIcSt11char_traitsIcESaIcEEEJSt14default_deleteIS5_EEERKT0_RKSt11_Tuple_implIXT_EJS9_DpT1_EE
FN:2443,_ZSt3getILy1EJPNSt7__cxx1118basic_stringstreamIcSt11char_traitsIcESaIcEEESt14default_deleteIS5_EEERNSt13tuple_elementIXT_ESt5tupleIJDpT0_EEE4typeERSD_
FNDA:0,_ZSt3getILy1EJPNSt7__cxx1118basic_stringstreamIcSt11char_traitsIcESaIcEEESt14default_deleteIS5_EEERNSt13tuple_elementIXT_ESt5tupleIJDpT0_EEE4typeERSD_
FN:2443,_ZSt3getILy1EJPNSt7__cxx1112basic_stringIcSt11char_traitsIcESaIcEEESt14default_deleteIS5_EEERNSt13tuple_elementIXT_ESt5tupleIJDpT0_EEE4typeERSD_
FNDA:0,_ZSt3getILy1EJPNSt7__cxx1112basic_stringIcSt11char_traitsIcESaIcEEESt14default_deleteIS5_EEERNSt13tuple_elementIXT_ESt5tupleIJDpT0_EEE4typeERSD_
FN:2443,_ZSt3getILy0EJPNSt7__cxx1112basic_stringIcSt11char_traitsIcESaIcEEESt14default_deleteIS5_EEERNSt13tuple_elementIXT_ESt5tupleIJDpT0_EEE4typeERSD_
FNDA:0,_ZSt3getILy0EJPNSt7__cxx1112basic_stringIcSt11char_traitsIcESaIcEEESt14default_deleteIS5_EEERNSt13tuple_elementIXT_ESt5tupleIJDpT0_EEE4typeERSD_
FN:2443,_ZSt3getILy0EJPNSt7__cxx1118basic_stringstreamIcSt11char_traitsIcESaIcEEESt14default_deleteIS5_EEERNSt13tuple_elementIXT_ESt5tupleIJDpT0_EEE4typeERSD_
FNDA:0,_ZSt3getILy0EJPNSt7__cxx1118basic_stringstreamIcSt11char_traitsIcESaIcEEESt14default_deleteIS5_EEERNSt13tuple_elementIXT_ESt5tupleIJDpT0_EEE4typeERSD_
FN:2449,_ZSt3getILy0EJPNSt7__cxx1118basic_stringstreamIcSt11char_traitsIcESaIcEEESt14default_deleteIS5_EEERKNSt13tuple_elementIXT_ESt5tupleIJDpT0_EEE4typeERKSD_
FNDA:1822,_ZSt3getILy0EJPNSt7__cxx1118basic_stringstreamIcSt11char_traitsIcESaIcEEESt14default_deleteIS5_EEERKNSt13tuple_elementIXT_ESt5tupleIJDpT0_EEE4typeERKSD_
FN:2449,_ZSt3getILy0EJPNSt7__cxx1112basic_stringIcSt11char_traitsIcESaIcEEESt14default_deleteIS5_EEERKNSt13tuple_elementIXT_ESt5tupleIJDpT0_EEE4typeERKSD_
FNDA:0,_ZSt3getILy0EJPNSt7__cxx1112basic_stringIcSt11char_traitsIcESaIcEEESt14default_deleteIS5_EEERKNSt13tuple_elementIXT_ESt5tupleIJDpT0_EEE4typeERKSD_
FNF:24
FNH:4
DA:133,0
DA:133,0
DA:242,0
DA:242,0
DA:245,1822
DA:245,0
DA:293,0
DA:293,0
DA:296,1822
DA:296,0
DA:556,0
DA:556,0
DA:2427,0
DA:2428,0
DA:2427,0
DA:2428,0
DA:2427,0
DA:2428,0
DA:2427,0
DA:2428,0
DA:2432,1822
DA:2433,1822
DA:2432,0
DA:2433,0
DA:2443,0
DA:2444,0
DA:2443,0
DA:2444,0
DA:2443,0
DA:2444,0
DA:2443,0
DA:2444,0
DA:2449,1822
DA:2450,1822
DA:2449,0
DA:2450,0
LF:36
LH:6
end_of_record
SF:C:\msys64\mingw64\include\c++\14.1.0\x86_64-w64-mingw32\bits\c++config.h
DA:550,1621
DA:606,0
LF:2
LH:1
end_of_record
TN:
SF:C:\workspace\matrixGenerator\tests\ReadWindowsSizeTest.cpp
FN:11,_ZN19ReadWindowsSizeTest5SetUpEv
FNDA:5,_ZN19ReadWindowsSizeTest5SetUpEv
FN:17,_ZN19ReadWindowsSizeTest8TearDownEv
FNDA:5,_ZN19ReadWindowsSizeTest8TearDownEv
FN:23,_ZN43ReadWindowsSizeTest_CheckSavedDataTest_TestC1Ev
FNDA:1,_ZN43ReadWindowsSizeTest_CheckSavedDataTest_TestC1Ev
FN:23,_ZN43ReadWindowsSizeTest_CheckSavedDataTest_Test8TestBodyEv
FNDA:1,_ZN43ReadWindowsSizeTest_CheckSavedDataTest_Test8TestBodyEv
FN:23,_ZN43ReadWindowsSizeTest_CheckSavedDataTest_TestD0Ev
FNDA:1,_ZN43ReadWindowsSizeTest_CheckSavedDataTest_TestD0Ev
FN:23,_ZN43ReadWindowsSizeTest_CheckSavedDataTest_TestD1Ev
FNDA:1,_ZN43ReadWindowsSizeTest_CheckSavedDataTest_TestD1Ev
FN:39,_ZN45ReadWindowsSizeTest_CheckWindowsSizeTest_TestC1Ev
FNDA:1,_ZN45ReadWindowsSizeTest_CheckWindowsSizeTest_TestC1Ev
FN:39,_ZN45ReadWindowsSizeTest_CheckWindowsSizeTest_Test8TestBodyEv
FNDA:1,_ZN45ReadWindowsSizeTest_CheckWindowsSizeTest_Test8TestBodyEv
FN:39,_ZN45ReadWindowsSizeTest_CheckWindowsSizeTest_TestD1Ev
FNDA:1,_ZN45ReadWindowsSizeTest_CheckWindowsSizeTest_TestD1Ev
FN:39,_ZN45ReadWindowsSizeTest_CheckWindowsSizeTest_TestD0Ev
FNDA:1,_ZN45ReadWindowsSizeTest_CheckWindowsSizeTest_TestD0Ev
FN:48,_ZN45ReadWindowsSizeTest_CheckColumnValueTest_TestD0Ev
FNDA:1,_ZN45ReadWindowsSizeTest_CheckColumnValueTest_TestD0Ev
FN:48,_ZN45ReadWindowsSizeTest_CheckColumnValueTest_TestD1Ev
FNDA:1,_ZN45ReadWindowsSizeTest_CheckColumnValueTest_TestD1Ev
FN:48,_ZN45ReadWindowsSizeTest_CheckColumnValueTest_Test8TestBodyEv
FNDA:1,_ZN45ReadWindowsSizeTest_CheckColumnValueTest_Test8TestBodyEv
FN:48,_ZN45ReadWindowsSizeTest_CheckColumnValueTest_TestC1Ev
FNDA:1,_ZN45ReadWindowsSizeTest_CheckColumnValueTest_TestC1Ev
FN:54,_ZN42ReadWindowsSizeTest_CheckRowValueTest_TestD0Ev
FNDA:1,_ZN42ReadWindowsSizeTest_CheckRowValueTest_TestD0Ev
FN:54,_ZN42ReadWindowsSizeTest_CheckRowValueTest_TestD1Ev
FNDA:1,_ZN42ReadWindowsSizeTest_CheckRowValueTest_TestD1Ev
FN:54,_ZN42ReadWindowsSizeTest_CheckRowValueTest_Test8TestBodyEv
FNDA:1,_ZN42ReadWindowsSizeTest_CheckRowValueTest_Test8TestBodyEv
FN:54,_ZN42ReadWindowsSizeTest_CheckRowValueTest_TestC1Ev
FNDA:1,_ZN42ReadWindowsSizeTest_CheckRowValueTest_TestC1Ev
FN:60,_ZN62ReadWindowsSizeTest_CheckPossibilityToSaveWindowsSizeTest_TestD0Ev
FNDA:1,_ZN62ReadWindowsSizeTest_CheckPossibilityToSaveWindowsSizeTest_TestD0Ev
FN:60,_ZN62ReadWindowsSizeTest_CheckPossibilityToSaveWindowsSizeTest_TestD1Ev
FNDA:1,_ZN62ReadWindowsSizeTest_CheckPossibilityToSaveWindowsSizeTest_TestD1Ev
FN:60,_ZN62ReadWindowsSizeTest_CheckPossibilityToSaveWindowsSizeTest_Test8TestBodyEv
FNDA:1,_ZN62ReadWindowsSizeTest_CheckPossibilityToSaveWindowsSizeTest_Test8TestBodyEv
FN:60,_ZN62ReadWindowsSizeTest_CheckPossibilityToSaveWindowsSizeTest_TestC1Ev
FNDA:1,_ZN62ReadWindowsSizeTest_CheckPossibilityToSaveWindowsSizeTest_TestC1Ev
FNF:22
FNH:22
DA:11,5
DA:13,5
DA:14,5
DA:15,5
DA:17,5
DA:19,5
DA:20,5
DA:23,1
DA:23,1
DA:23,1
DA:23,1
DA:25,2
DA:36,1
DA:37,1
DA:39,1
DA:39,1
DA:39,1
DA:39,1
DA:41,1
DA:42,1
DA:44,1
DA:45,1
DA:46,1
DA:48,1
DA:48,1
DA:48,1
DA:48,1
DA:50,1
DA:51,1
DA:52,1
DA:54,1
DA:54,1
DA:54,1
DA:54,1
DA:56,1
DA:57,1
DA:58,1
DA:60,1
DA:60,1
DA:60,1
DA:60,1
DA:62,1
DA:63,1
DA:65,1
DA:66,1
DA:68,2
DA:69,1
DA:70,1
DA:72,1
DA:73,1
DA:75,1
DA:76,1
LF:52
LH:52
end_of_record
SF:C:\msys64\mingw64\include\c++\14.1.0\x86_64-w64-mingw32\bits\c++config.h
DA:550,0
DA:606,0
LF:2
LH:0
end_of_record
SF:C:\msys64\mingw64\include\c++\14.1.0\tuple
FN:89,_ZNSt10_Head_baseILy1ESt14default_deleteINSt7__cxx1112basic_stringIcSt11char_traitsIcESaIcEEEELb1EEC2Ev
FNDA:0,_ZNSt10_Head_baseILy1ESt14default_deleteINSt7__cxx1112basic_stringIcSt11char_traitsIcESaIcEEEELb1EEC2Ev
FN:133,_ZNSt10_Head_baseILy1ESt14default_deleteINSt7__cxx1118basic_stringstreamIcSt11char_traitsIcESaIcEEEELb1EE7_M_headERS8_
FNDA:0,_ZNSt10_Head_baseILy1ESt14default_deleteINSt7__cxx1118basic_stringstreamIcSt11char_traitsIcESaIcEEEELb1EE7_M_headERS8_
FN:133,_ZNSt10_Head_baseILy1ESt14default_deleteINSt7__cxx1112basic_stringIcSt11char_traitsIcESaIcEEEELb1EE7_M_headERS8_
FNDA:0,_ZNSt10_Head_baseILy1ESt14default_deleteINSt7__cxx1112basic_stringIcSt11char_traitsIcESaIcEEEELb1EE7_M_headERS8_
FN:198,_ZNSt10_Head_baseILy0EPNSt7__cxx1112basic_stringIcSt11char_traitsIcESaIcEEELb0EEC2Ev
FNDA:0,_ZNSt10_Head_baseILy0EPNSt7__cxx1112basic_stringIcSt11char_traitsIcESaIcEEELb0EEC2Ev
FN:242,_ZNSt10_Head_baseILy0EPNSt7__cxx1112basic_stringIcSt11char_traitsIcESaIcEEELb0EE7_M_headERS7_
FNDA:0,_ZNSt10_Head_baseILy0EPNSt7__cxx1112basic_stringIcSt11char_traitsIcESaIcEEELb0EE7_M_headERS7_
FN:242,_ZNSt10_Head_baseILy0EPNSt7__cxx1118basic_stringstreamIcSt11char_traitsIcESaIcEEELb0EE7_M_headERS7_
FNDA:0,_ZNSt10_Head_baseILy0EPNSt7__cxx1118basic_stringstreamIcSt11char_traitsIcESaIcEEELb0EE7_M_headERS7_
FN:245,_ZNSt10_Head_baseILy0EPNSt7__cxx1118basic_stringstreamIcSt11char_traitsIcESaIcEEELb0EE7_M_headERKS7_
FNDA:0,_ZNSt10_Head_baseILy0EPNSt7__cxx1118basic_stringstreamIcSt11char_traitsIcESaIcEEELb0EE7_M_headERKS7_
FN:245,_ZNSt10_Head_baseILy0EPNSt7__cxx1112basic_stringIcSt11char_traitsIcESaIcEEELb0EE7_M_headERKS7_
FNDA:0,_ZNSt10_Head_baseILy0EPNSt7__cxx1112basic_stringIcSt11char_traitsIcESaIcEEELb0EE7_M_headERKS7_
FN:293,_ZNSt11_Tuple_implILy0EJPNSt7__cxx1118basic_stringstreamIcSt11char_traitsIcESaIcEEESt14default_deleteIS5_EEE7_M_headERS9_
FNDA:0,_ZNSt11_Tuple_implILy0EJPNSt7__cxx1118basic_stringstreamIcSt11char_traitsIcESaIcEEESt14default_deleteIS5_EEE7_M_headERS9_
FN:293,_ZNSt11_Tuple_implILy0EJPNSt7__cxx1112basic_stringIcSt11char_traitsIcESaIcEEESt14default_deleteIS5_EEE7_M_headERS9_
FNDA:0,_ZNSt11_Tuple_implILy0EJPNSt7__cxx1112basic_stringIcSt11char_traitsIcESaIcEEESt14default_deleteIS5_EEE7_M_headERS9_
FN:296,_ZNSt11_Tuple_implILy0EJPNSt7__cxx1112basic_stringIcSt11char_traitsIcESaIcEEESt14default_deleteIS5_EEE7_M_headERKS9_
FNDA:0,_ZNSt11_Tuple_implILy0EJPNSt7__cxx1112basic_stringIcSt11char_traitsIcESaIcEEESt14default_deleteIS5_EEE7_M_headERKS9_
FN:296,_ZNSt11_Tuple_implILy0EJPNSt7__cxx1118basic_stringstreamIcSt11char_traitsIcESaIcEEESt14default_deleteIS5_EEE7_M_headERKS9_
FNDA:0,_ZNSt11_Tuple_implILy0EJPNSt7__cxx1118basic_stringstreamIcSt11char_traitsIcESaIcEEESt14default_deleteIS5_EEE7_M_headERKS9_
FN:304,_ZNSt11_Tuple_implILy0EJPNSt7__cxx1112basic_stringIcSt11char_traitsIcESaIcEEESt14default_deleteIS5_EEEC2Ev
FNDA:0,_ZNSt11_Tuple_implILy0EJPNSt7__cxx1112basic_stringIcSt11char_traitsIcESaIcEEESt14default_deleteIS5_EEEC2Ev
FN:556,_ZNSt11_Tuple_implILy1EJSt14default_deleteINSt7__cxx1118basic_stringstreamIcSt11char_traitsIcESaIcEEEEEE7_M_headERS8_
FNDA:0,_ZNSt11_Tuple_implILy1EJSt14default_deleteINSt7__cxx1118basic_stringstreamIcSt11char_traitsIcESaIcEEEEEE7_M_headERS8_
FN:556,_ZNSt11_Tuple_implILy1EJSt14default_deleteINSt7__cxx1112basic_stringIcSt11char_traitsIcESaIcEEEEEE7_M_headERS8_
FNDA:0,_ZNSt11_Tuple_implILy1EJSt14default_deleteINSt7__cxx1112basic_stringIcSt11char_traitsIcESaIcEEEEEE7_M_headERS8_
FN:562,_ZNSt11_Tuple_implILy1EJSt14default_deleteINSt7__cxx1112basic_stringIcSt11char_traitsIcESaIcEEEEEEC2Ev
FNDA:0,_ZNSt11_Tuple_implILy1EJSt14default_deleteINSt7__cxx1112basic_stringIcSt11char_traitsIcESaIcEEEEEEC2Ev
FN:2089,_ZNSt5tupleIJPNSt7__cxx1112basic_stringIcSt11char_traitsIcESaIcEEESt14default_deleteIS5_EEEC1ILb1ELb1EEEv
FNDA:0,_ZNSt5tupleIJPNSt7__cxx1112basic_stringIcSt11char_traitsIcESaIcEEESt14default_deleteIS5_EEEC1ILb1ELb1EEEv
FN:2427,_ZSt12__get_helperILy1ESt14default_deleteINSt7__cxx1112basic_stringIcSt11char_traitsIcESaIcEEEEJEERT0_RSt11_Tuple_implIXT_EJS8_DpT1_EE
FNDA:0,_ZSt12__get_helperILy1ESt14default_deleteINSt7__cxx1112basic_stringIcSt11char_traitsIcESaIcEEEEJEERT0_RSt11_Tuple_implIXT_EJS8_DpT1_EE
FN:2427,_ZSt12__get_helperILy0EPNSt7__cxx1118basic_stringstreamIcSt11char_traitsIcESaIcEEEJSt14default_deleteIS5_EEERT0_RSt11_Tuple_implIXT_EJS9_DpT1_EE
FNDA:0,_ZSt12__get_helperILy0EPNSt7__cxx1118basic_stringstreamIcSt11char_traitsIcESaIcEEEJSt14default_deleteIS5_EEERT0_RSt11_Tuple_implIXT_EJS9_DpT1_EE
FN:2427,_ZSt12__get_helperILy0EPNSt7__cxx1112basic_stringIcSt11char_traitsIcESaIcEEEJSt14default_deleteIS5_EEERT0_RSt11_Tuple_implIXT_EJS9_DpT1_EE
FNDA:0,_ZSt12__get_helperILy0EPNSt7__cxx1112basic_stringIcSt11char_traitsIcESaIcEEEJSt14default_deleteIS5_EEERT0_RSt11_Tuple_implIXT_EJS9_DpT1_EE
FN:2427,_ZSt12__get_helperILy1ESt14default_deleteINSt7__cxx1118basic_stringstreamIcSt11char_traitsIcESaIcEEEEJEERT0_RSt11_Tuple_implIXT_EJS8_DpT1_EE
FNDA:0,_ZSt12__get_helperILy1ESt14default_deleteINSt7__cxx1118basic_stringstreamIcSt11char_traitsIcESaIcEEEEJEERT0_RSt11_Tuple_implIXT_EJS8_DpT1_EE
FN:2432,_ZSt12__get_helperILy0EPNSt7__cxx1112basic_stringIcSt11char_traitsIcESaIcEEEJSt14default_deleteIS5_EEERKT0_RKSt11_Tuple_implIXT_EJS9_DpT1_EE
FNDA:0,_ZSt12__get_helperILy0EPNSt7__cxx1112basic_stringIcSt11char_traitsIcESaIcEEEJSt14default_deleteIS5_EEERKT0_RKSt11_Tuple_implIXT_EJS9_DpT1_EE
FN:2432,_ZSt12__get_helperILy0EPNSt7__cxx1118basic_stringstreamIcSt11char_traitsIcESaIcEEEJSt14default_deleteIS5_EEERKT0_RKSt11_Tuple_implIXT_EJS9_DpT1_EE
FNDA:0,_ZSt12__get_helperILy0EPNSt7__cxx1118basic_stringstreamIcSt11char_traitsIcESaIcEEEJSt14default_deleteIS5_EEERKT0_RKSt11_Tuple_implIXT_EJS9_DpT1_EE
FN:2443,_ZSt3getILy1EJPNSt7__cxx1118basic_stringstreamIcSt11char_traitsIcESaIcEEESt14default_deleteIS5_EEERNSt13tuple_elementIXT_ESt5tupleIJDpT0_EEE4typeERSD_
FNDA:0,_ZSt3getILy1EJPNSt7__cxx1118basic_stringstreamIcSt11char_traitsIcESaIcEEESt14default_deleteIS5_EEERNSt13tuple_elementIXT_ESt5tupleIJDpT0_EEE4typeERSD_
FN:2443,_ZSt3getILy0EJPNSt7__cxx1112basic_stringIcSt11char_traitsIcESaIcEEESt14default_deleteIS5_EEERNSt13tuple_elementIXT_ESt5tupleIJDpT0_EEE4typeERSD_
FNDA:0,_ZSt3getILy0EJPNSt7__cxx1112basic_stringIcSt11char_traitsIcESaIcEEESt14default_deleteIS5_EEERNSt13tuple_elementIXT_ESt5tupleIJDpT0_EEE4typeERSD_
FN:2443,_ZSt3getILy0EJPNSt7__cxx1118basic_stringstreamIcSt11char_traitsIcESaIcEEESt14default_deleteIS5_EEERNSt13tuple_elementIXT_ESt5tupleIJDpT0_EEE4typeERSD_
FNDA:0,_ZSt3getILy0EJPNSt7__cxx1118basic_stringstreamIcSt11char_traitsIcESaIcEEESt14default_deleteIS5_EEERNSt13tuple_elementIXT_ESt5tupleIJDpT0_EEE4typeERSD_
FN:2443,_ZSt3getILy1EJPNSt7__cxx1112basic_stringIcSt11char_traitsIcESaIcEEESt14default_deleteIS5_EEERNSt13tuple_elementIXT_ESt5tupleIJDpT0_EEE4typeERSD_
FNDA:0,_ZSt3getILy1EJPNSt7__cxx1112basic_stringIcSt11char_traitsIcESaIcEEESt14default_deleteIS5_EEERNSt13tuple_elementIXT_ESt5tupleIJDpT0_EEE4typeERSD_
FN:2449,_ZSt3getILy0EJPNSt7__cxx1118basic_stringstreamIcSt11char_traitsIcESaIcEEESt14default_deleteIS5_EEERKNSt13tuple_elementIXT_ESt5tupleIJDpT0_EEE4typeERKSD_
FNDA:0,_ZSt3getILy0EJPNSt7__cxx1118basic_stringstreamIcSt11char_traitsIcESaIcEEESt14default_deleteIS5_EEERKNSt13tuple_elementIXT_ESt5tupleIJDpT0_EEE4typeERKSD_
FN:2449,_ZSt3getILy0EJPNSt7__cxx1112basic_stringIcSt11char_traitsIcESaIcEEESt14default_deleteIS5_EEERKNSt13tuple_elementIXT_ESt5tupleIJDpT0_EEE4typeERKSD_
FNDA:0,_ZSt3getILy0EJPNSt7__cxx1112basic_stringIcSt11char_traitsIcESaIcEEESt14default_deleteIS5_EEERKNSt13tuple_elementIXT_ESt5tupleIJDpT0_EEE4typeERKSD_
FNF:29
FNH:0
DA:89,0
DA:90,0
DA:133,0
DA:133,0
DA:198,0
DA:199,0
DA:242,0
DA:242,0
DA:245,0
DA:245,0
DA:293,0
DA:293,0
DA:296,0
DA:296,0
DA:304,0
DA:305,0
DA:556,0
DA:556,0
DA:562,0
DA:563,0
DA:2089,0
DA:2091,0
DA:2427,0
DA:2428,0
DA:2427,0
DA:2428,0
DA:2427,0
DA:2428,0
DA:2427,0
DA:2428,0
DA:2432,0
DA:2433,0
DA:2432,0
DA:2433,0
DA:2443,0
DA:2444,0
DA:2443,0
DA:2444,0
DA:2443,0
DA:2444,0
DA:2443,0
DA:2444,0
DA:2449,0
DA:2450,0
DA:2449,0
DA:2450,0
LF:46
LH:0
end_of_record
SF:C:\msys64\mingw64\include\c++\14.1.0\bits\stl_iterator_base_types.h
DA:240,0
LF:1
LH:0
end_of_record
SF:C:\msys64\mingw64\include\c++\14.1.0\bits\stl_iterator_base_funcs.h
DA:106,0
DA:151,0
DA:152,0
LF:3
LH:0
end_of_record
SF:C:\workspace\matrixGenerator\build\_deps\googletest-src\googletest\include\gtest\internal\gtest-port.h
FN:974,_ZN7testing8internal8GTestLog9GetStreamEv
FNDA:0,_ZN7testing8internal8GTestLog9GetStreamEv
FNF:1
FNH:0
DA:974,0
LF:1
LH:0
end_of_record
SF:C:\workspace\matrixGenerator\build\_deps\googletest-src\googletest\include\gtest\internal\gtest-type-util.h
FN:55,_ZN7testing8internal31CanonicalizeForStdLibVersioningENSt7__cxx1112basic_stringIcSt11char_traitsIcESaIcEEE
FNDA:0,_ZN7testing8internal31CanonicalizeForStdLibVersioningENSt7__cxx1112basic_stringIcSt11char_traitsIcESaIcEEE
FN:69,_ZN7testing8internal11GetTypeNameB5cxx11ERKSt9type_info
FNDA:0,_ZN7testing8internal11GetTypeNameB5cxx11ERKSt9type_info
FNF:2
FNH:0
DA:55,0
DA:57,0
DA:58,0
DA:59,0
DA:61,0
DA:64,0
DA:69,0
DA:70,0
DA:72,0
DA:78,0
DA:79,0
DA:80,0
DA:81,0
DA:85,0
LF:14
LH:0
end_of_record
SF:C:\msys64\mingw64\include\c++\14.1.0\bits\basic_string.tcc
FN:221,_ZNSt7__cxx1112basic_stringIcSt11char_traitsIcESaIcEE12_M_constructIPcEEvT_S7_St20forward_iterator_tag
FNDA:0,_ZNSt7__cxx1112basic_stringIcSt11char_traitsIcESaIcEE12_M_constructIPcEEvT_S7_St20forward_iterator_tag
FN:221,_ZNSt7__cxx1112basic_stringIcSt11char_traitsIcESaIcEE12_M_constructIPKcEEvT_S8_St20forward_iterator_tag
FNDA:0,_ZNSt7__cxx1112basic_stringIcSt11char_traitsIcESaIcEE12_M_constructIPKcEEvT_S8_St20forward_iterator_tag
FN:239,_ZZNSt7__cxx1112basic_stringIcSt11char_traitsIcESaIcEE12_M_constructIPcEEvT_S7_St20forward_iterator_tagEN6_GuardC1EPS4_
FNDA:0,_ZZNSt7__cxx1112basic_stringIcSt11char_traitsIcESaIcEE12_M_constructIPcEEvT_S7_St20forward_iterator_tagEN6_GuardC1EPS4_
FN:239,_ZZNSt7__cxx1112basic_stringIcSt11char_traitsIcESaIcEE12_M_constructIPKcEEvT_S8_St20forward_iterator_tagEN6_GuardC1EPS4_
FNDA:0,_ZZNSt7__cxx1112basic_stringIcSt11char_traitsIcESaIcEE12_M_constructIPKcEEvT_S8_St20forward_iterator_tagEN6_GuardC1EPS4_
FN:242,_ZZNSt7__cxx1112basic_stringIcSt11char_traitsIcESaIcEE12_M_constructIPcEEvT_S7_St20forward_iterator_tagEN6_GuardD1Ev
FNDA:0,_ZZNSt7__cxx1112basic_stringIcSt11char_traitsIcESaIcEE12_M_constructIPcEEvT_S7_St20forward_iterator_tagEN6_GuardD1Ev
FN:242,_ZZNSt7__cxx1112basic_stringIcSt11char_traitsIcESaIcEE12_M_constructIPKcEEvT_S8_St20forward_iterator_tagEN6_GuardD1Ev
FNDA:0,_ZZNSt7__cxx1112basic_stringIcSt11char_traitsIcESaIcEE12_M_constructIPKcEEvT_S8_St20forward_iterator_tagEN6_GuardD1Ev
FN:583,_ZNSt7__cxx1112basic_stringIcSt11char_traitsIcESaIcEE22__resize_and_overwriteIZNS_9to_stringEiEUlPcyE_EEvyT_
FNDA:2,_ZNSt7__cxx1112basic_stringIcSt11char_traitsIcESaIcEE22__resize_and_overwriteIZNS_9to_stringEiEUlPcyE_EEvyT_
FN:597,_ZZNSt7__cxx1112basic_stringIcSt11char_traitsIcESaIcEE22__resize_and_overwriteIZNS_9to_stringEiEUlPcyE_EEvyT_EN11_TerminatorD1Ev
FNDA:2,_ZZNSt7__cxx1112basic_stringIcSt11char_traitsIcESaIcEE22__resize_and_overwriteIZNS_9to_stringEiEUlPcyE_EEvyT_EN11_TerminatorD1Ev
FNF:8
FNH:2
DA:221,0
DA:225,0
DA:227,0
DA:229,0
DA:230,0
DA:245,0
DA:247,0
DA:249,0
DA:251,0
DA:252,0
DA:221,0
DA:225,0
DA:227,0
DA:229,0
DA:230,0
DA:245,0
DA:247,0
DA:249,0
DA:251,0
DA:252,0
DA:239,0
DA:239,0
DA:242,0
DA:242,0
DA:583,2
DA:590,2
DA:591,2
DA:597,2
DA:601,2
DA:602,2
DA:610,2
DA:611,2
DA:612,0
DA:613,2
LF:34
LH:9
end_of_record
SF:C:\msys64\mingw64\include\c++\14.1.0\bits\unique_ptr.h
FN:87,_ZNKSt14default_deleteINSt7__cxx1112basic_stringIcSt11char_traitsIcESaIcEEEEclEPS5_
FNDA:0,_ZNKSt14default_deleteINSt7__cxx1112basic_stringIcSt11char_traitsIcESaIcEEEEclEPS5_
FN:87,_ZNKSt14default_deleteINSt7__cxx1118basic_stringstreamIcSt11char_traitsIcESaIcEEEEclEPS5_
FNDA:0,_ZNKSt14default_deleteINSt7__cxx1118basic_stringstreamIcSt11char_traitsIcESaIcEEEEclEPS5_
FN:168,_ZNSt15__uniq_ptr_implINSt7__cxx1112basic_stringIcSt11char_traitsIcESaIcEEESt14default_deleteIS5_EEC2Ev
FNDA:0,_ZNSt15__uniq_ptr_implINSt7__cxx1112basic_stringIcSt11char_traitsIcESaIcEEESt14default_deleteIS5_EEC2Ev
FN:191,_ZNSt15__uniq_ptr_implINSt7__cxx1112basic_stringIcSt11char_traitsIcESaIcEEESt14default_deleteIS5_EE6_M_ptrEv
FNDA:0,_ZNSt15__uniq_ptr_implINSt7__cxx1112basic_stringIcSt11char_traitsIcESaIcEEESt14default_deleteIS5_EE6_M_ptrEv
FN:191,_ZNSt15__uniq_ptr_implINSt7__cxx1118basic_stringstreamIcSt11char_traitsIcESaIcEEESt14default_deleteIS5_EE6_M_ptrEv
FNDA:0,_ZNSt15__uniq_ptr_implINSt7__cxx1118basic_stringstreamIcSt11char_traitsIcESaIcEEESt14default_deleteIS5_EE6_M_ptrEv
FN:193,_ZNKSt15__uniq_ptr_implINSt7__cxx1118basic_stringstreamIcSt11char_traitsIcESaIcEEESt14default_deleteIS5_EE6_M_ptrEv
FNDA:0,_ZNKSt15__uniq_ptr_implINSt7__cxx1118basic_stringstreamIcSt11char_traitsIcESaIcEEESt14default_deleteIS5_EE6_M_ptrEv
FN:193,_ZNKSt15__uniq_ptr_implINSt7__cxx1112basic_stringIcSt11char_traitsIcESaIcEEESt14default_deleteIS5_EE6_M_ptrEv
FNDA:0,_ZNKSt15__uniq_ptr_implINSt7__cxx1112basic_stringIcSt11char_traitsIcESaIcEEESt14default_deleteIS5_EE6_M_ptrEv
FN:195,_ZNSt15__uniq_ptr_implINSt7__cxx1118basic_stringstreamIcSt11char_traitsIcESaIcEEESt14default_deleteIS5_EE10_M_deleterEv
FNDA:0,_ZNSt15__uniq_ptr_implINSt7__cxx1118basic_stringstreamIcSt11char_traitsIcESaIcEEESt14default_deleteIS5_EE10_M_deleterEv
FN:195,_ZNSt15__uniq_ptr_implINSt7__cxx1112basic_stringIcSt11char_traitsIcESaIcEEESt14default_deleteIS5_EE10_M_deleterEv
FNDA:0,_ZNSt15__uniq_ptr_implINSt7__cxx1112basic_stringIcSt11char_traitsIcESaIcEEESt14default_deleteIS5_EE10_M_deleterEv
FN:200,_ZNSt15__uniq_ptr_implINSt7__cxx1112basic_stringIcSt11char_traitsIcESaIcEEESt14default_deleteIS5_EE5resetEPS5_
FNDA:0,_ZNSt15__uniq_ptr_implINSt7__cxx1112basic_stringIcSt11char_traitsIcESaIcEEESt14default_deleteIS5_EE5resetEPS5_
FN:298,_ZNSt10unique_ptrINSt7__cxx1112basic_stringIcSt11char_traitsIcESaIcEEESt14default_deleteIS5_EEC1IS7_vEEv
FNDA:0,_ZNSt10unique_ptrINSt7__cxx1112basic_stringIcSt11char_traitsIcESaIcEEESt14default_deleteIS5_EEC1IS7_vEEv
FN:392,_ZNSt10unique_ptrINSt7__cxx1118basic_stringstreamIcSt11char_traitsIcESaIcEEESt14default_deleteIS5_EED1Ev
FNDA:0,_ZNSt10unique_ptrINSt7__cxx1118basic_stringstreamIcSt11char_traitsIcESaIcEEESt14default_deleteIS5_EED1Ev
FN:392,_ZNSt10unique_ptrINSt7__cxx1112basic_stringIcSt11char_traitsIcESaIcEEESt14default_deleteIS5_EED1Ev
FNDA:0,_ZNSt10unique_ptrINSt7__cxx1112basic_stringIcSt11char_traitsIcESaIcEEESt14default_deleteIS5_EED1Ev
FN:445,_ZNKSt10unique_ptrINSt7__cxx1118basic_stringstreamIcSt11char_traitsIcESaIcEEESt14default_deleteIS5_EEdeEv
FNDA:0,_ZNKSt10unique_ptrINSt7__cxx1118basic_stringstreamIcSt11char_traitsIcESaIcEEESt14default_deleteIS5_EEdeEv
FN:454,_ZNKSt10unique_ptrINSt7__cxx1112basic_stringIcSt11char_traitsIcESaIcEEESt14default_deleteIS5_EEptEv
FNDA:0,_ZNKSt10unique_ptrINSt7__cxx1112basic_stringIcSt11char_traitsIcESaIcEEESt14default_deleteIS5_EEptEv
FN:463,_ZNKSt10unique_ptrINSt7__cxx1118basic_stringstreamIcSt11char_traitsIcESaIcEEESt14default_deleteIS5_EE3getEv
FNDA:0,_ZNKSt10unique_ptrINSt7__cxx1118basic_stringstreamIcSt11char_traitsIcESaIcEEESt14default_deleteIS5_EE3getEv
FN:463,_ZNKSt10unique_ptrINSt7__cxx1112basic_stringIcSt11char_traitsIcESaIcEEESt14default_deleteIS5_EE3getEv
FNDA:0,_ZNKSt10unique_ptrINSt7__cxx1112basic_stringIcSt11char_traitsIcESaIcEEESt14default_deleteIS5_EE3getEv
FN:469,_ZNSt10unique_ptrINSt7__cxx1118basic_stringstreamIcSt11char_traitsIcESaIcEEESt14default_deleteIS5_EE11get_deleterEv
FNDA:0,_ZNSt10unique_ptrINSt7__cxx1118basic_stringstreamIcSt11char_traitsIcESaIcEEESt14default_deleteIS5_EE11get_deleterEv
FN:469,_ZNSt10unique_ptrINSt7__cxx1112basic_stringIcSt11char_traitsIcESaIcEEESt14default_deleteIS5_EE11get_deleterEv
FNDA:0,_ZNSt10unique_ptrINSt7__cxx1112basic_stringIcSt11char_traitsIcESaIcEEESt14default_deleteIS5_EE11get_deleterEv
FN:499,_ZNSt10unique_ptrINSt7__cxx1112basic_stringIcSt11char_traitsIcESaIcEEESt14default_deleteIS5_EE5resetEPS5_
FNDA:0,_ZNSt10unique_ptrINSt7__cxx1112basic_stringIcSt11char_traitsIcESaIcEEESt14default_deleteIS5_EE5resetEPS5_
FNF:20
FNH:0
DA:87,0
DA:93,0
DA:94,0
DA:87,0
DA:93,0
DA:94,0
DA:168,0
DA:191,0
DA:191,0
DA:193,0
DA:193,0
DA:195,0
DA:195,0
DA:200,0
DA:202,0
DA:203,0
DA:204,0
DA:205,0
DA:206,0
DA:298,0
DA:299,0
DA:300,0
DA:392,0
DA:396,0
DA:397,0
DA:398,0
DA:399,0
DA:400,0
DA:392,0
DA:396,0
DA:397,0
DA:398,0
DA:399,0
DA:400,0
DA:445,0
DA:447,0
DA:448,0
DA:454,0
DA:457,0
DA:463,0
DA:464,0
DA:463,0
DA:464,0
DA:469,0
DA:470,0
DA:469,0
DA:470,0
DA:499,0
DA:503,0
DA:504,0
LF:50
LH:0
end_of_record
SF:C:\workspace\matrixGenerator\build\_deps\googletest-src\googletest\include\gtest\gtest-message.h
FN:113,_ZN7testing7MessagelsIA5_cEERS0_RKT_
FNDA:0,_ZN7testing7MessagelsIA5_cEERS0_RKT_
FN:113,_ZN7testing7MessagelsINSt7__cxx1112basic_stringIcSt11char_traitsIcESaIcEEEEERS0_RKT_
FNDA:0,_ZN7testing7MessagelsINSt7__cxx1112basic_stringIcSt11char_traitsIcESaIcEEEEERS0_RKT_
FN:113,_ZN7testing7MessagelsIA3_cEERS0_RKT_
FNDA:0,_ZN7testing7MessagelsIA3_cEERS0_RKT_
FN:113,_ZN7testing7MessagelsIA12_cEERS0_RKT_
FNDA:0,_ZN7testing7MessagelsIA12_cEERS0_RKT_
FN:113,_ZN7testing7MessagelsIA23_cEERS0_RKT_
FNDA:0,_ZN7testing7MessagelsIA23_cEERS0_RKT_
FN:113,_ZN7testing7MessagelsIA26_cEERS0_RKT_
FNDA:0,_ZN7testing7MessagelsIA26_cEERS0_RKT_
FN:113,_ZN7testing7MessagelsIA41_cEERS0_RKT_
FNDA:0,_ZN7testing7MessagelsIA41_cEERS0_RKT_
FN:147,_ZN7testing7MessagelsIKcEERS0_RKPT_
FNDA:0,_ZN7testing7MessagelsIKcEERS0_RKPT_
FNF:8
FNH:0
DA:113,0
DA:129,0
DA:130,0
DA:113,0
DA:129,0
DA:130,0
DA:113,0
DA:129,0
DA:130,0
DA:113,0
DA:129,0
DA:130,0
DA:113,0
DA:129,0
DA:130,0
DA:113,0
DA:129,0
DA:130,0
DA:113,0
DA:129,0
DA:130,0
DA:147,0
DA:148,0
DA:149,0
DA:151,0
DA:153,0
LF:26
LH:0
end_of_record
SF:C:\msys64\mingw64\include\c++\14.1.0\bits\move.h
FN:126,_ZSt4moveIRPNSt7__cxx1112basic_stringIcSt11char_traitsIcESaIcEEEEONSt16remove_referenceIT_E4typeEOS9_
FNDA:0,_ZSt4moveIRPNSt7__cxx1112basic_stringIcSt11char_traitsIcESaIcEEEEONSt16remove_referenceIT_E4typeEOS9_
FN:126,_ZSt4moveIRPNSt7__cxx1118basic_stringstreamIcSt11char_traitsIcESaIcEEEEONSt16remove_referenceIT_E4typeEOS9_
FNDA:0,_ZSt4moveIRPNSt7__cxx1118basic_stringstreamIcSt11char_traitsIcESaIcEEEEONSt16remove_referenceIT_E4typeEOS9_
FN:126,_ZSt4moveIRNSt7__cxx1112basic_stringIcSt11char_traitsIcESaIcEEEEONSt16remove_referenceIT_E4typeEOS8_
FNDA:231,_ZSt4moveIRNSt7__cxx1112basic_stringIcSt11char_traitsIcESaIcEEEEONSt16remove_referenceIT_E4typeEOS8_
FN:126,_ZSt4moveIRSaIcEEONSt16remove_referenceIT_E4typeEOS3_
FNDA:0,_ZSt4moveIRSaIcEEONSt16remove_referenceIT_E4typeEOS3_
FN:126,_ZSt4moveIRZNSt7__cxx119to_stringEiEUlPcyE_EONSt16remove_referenceIT_E4typeEOS5_
FNDA:2,_ZSt4moveIRZNSt7__cxx119to_stringEiEUlPcyE_EONSt16remove_referenceIT_E4typeEOS5_
FNF:5
FNH:2
DA:126,0
DA:127,0
DA:126,0
DA:127,0
DA:126,231
DA:127,231
DA:126,0
DA:127,0
DA:126,2
DA:127,2
LF:10
LH:4
end_of_record
SF:C:\msys64\mingw64\include\c++\14.1.0\bits\char_traits.h
FN:366,_ZNSt11char_traitsIcE7compareEPKcS2_y
FNDA:227,_ZNSt11char_traitsIcE7compareEPKcS2_y
FN:385,_ZNSt11char_traitsIcE6lengthEPKc
FNDA:0,_ZNSt11char_traitsIcE6lengthEPKc
FN:419,_ZNSt11char_traitsIcE4copyEPcPKcy
FNDA:0,_ZNSt11char_traitsIcE4copyEPcPKcy
FNF:3
FNH:1
DA:366,227
DA:368,227
DA:369,1
DA:381,226
DA:385,0
DA:391,0
DA:419,0
DA:421,0
DA:422,0
DA:427,0
LF:10
LH:4
end_of_record
SF:C:\msys64\mingw64\include\c++\14.1.0\bits\charconv.h
FN:55,_ZNSt8__detail14__to_chars_lenIjEEjT_i
FNDA:2,_ZNSt8__detail14__to_chars_lenIjEEjT_i
FN:81,_ZNSt8__detail18__to_chars_10_implIjEEvPcjT_
FNDA:2,_ZNSt8__detail18__to_chars_10_implIjEEvPcjT_
FNF:2
FNH:2
DA:55,2
DA:61,2
DA:62,2
DA:63,2
DA:64,2
DA:67,2
DA:68,0
DA:69,0
DA:70,0
DA:71,0
DA:72,0
DA:81,2
DA:87,2
DA:93,2
DA:94,2
DA:96,0
DA:97,0
DA:98,0
DA:99,0
DA:100,0
DA:102,2
DA:104,0
DA:105,0
DA:106,0
DA:109,2
DA:110,2
LF:26
LH:13
end_of_record
SF:C:\msys64\mingw64\include\c++\14.1.0\bits\new_allocator.h
FN:104,_ZNSt15__new_allocatorIcED2Ev
FNDA:0,_ZNSt15__new_allocatorIcED2Ev
FNF:1
FNH:0
DA:88,0
DA:104,0
LF:2
LH:0
end_of_record
SF:C:\msys64\mingw64\include\c++\14.1.0\bits\allocator.h
DA:161,0
DA:182,0
LF:2
LH:0
end_of_record
SF:C:\msys64\mingw64\include\c++\14.1.0\bits\basic_string.h
FN:3719,_ZStplIcSt11char_traitsIcESaIcEENSt7__cxx1112basic_stringIT_T0_T1_EEPKS5_OS8_
FNDA:2,_ZStplIcSt11char_traitsIcESaIcEENSt7__cxx1112basic_stringIT_T0_T1_EEPKS5_OS8_
FN:3755,_ZSteqIcSt11char_traitsIcESaIcEEbRKNSt7__cxx1112basic_stringIT_T0_T1_EESA_
FNDA:438,_ZSteqIcSt11char_traitsIcESaIcEEbRKNSt7__cxx1112basic_stringIT_T0_T1_EESA_
FN:4240,_ZNSt7__cxx119to_stringEi
FNDA:2,_ZNSt7__cxx119to_stringEi
FN:4249,_ZZNSt7__cxx119to_stringEiENKUlPcyE_clES0_y
FNDA:2,_ZZNSt7__cxx119to_stringEiENKUlPcyE_clES0_y
FNF:4
FNH:4
DA:360,0
DA:3719,2
DA:3721,2
DA:3755,438
DA:3759,438
DA:3760,438
DA:4240,2
DA:4245,2
DA:4246,2
DA:4247,2
DA:4248,2
DA:4249,2
DA:4250,2
DA:4251,2
DA:4252,2
DA:4254,2
LF:16
LH:15
end_of_record
SF:C:\workspace\matrixGenerator\build\_deps\googletest-src\googletest\include\gtest\internal\gtest-internal.h
FN:435,_ZN7testing8internal9GetTypeIdI19ReadWindowsSizeTestEEPKvv
FNDA:5,_ZN7testing8internal9GetTypeIdI19ReadWindowsSizeTestEEPKvv
FN:454,_ZN7testing8internal15TestFactoryBaseD2Ev
FNDA:0,_ZN7testing8internal15TestFactoryBaseD2Ev
FN:461,_ZN7testing8internal15TestFactoryBaseC2Ev
FNDA:0,_ZN7testing8internal15TestFactoryBaseC2Ev
FN:472,_ZN7testing8internal15TestFactoryImplI43ReadWindowsSizeTest_CheckSavedDataTest_TestE10CreateTestEv
FNDA:1,_ZN7testing8internal15TestFactoryImplI43ReadWindowsSizeTest_CheckSavedDataTest_TestE10CreateTestEv
FN:472,_ZN7testing8internal15TestFactoryImplI45ReadWindowsSizeTest_CheckWindowsSizeTest_TestE10CreateTestEv
FNDA:1,_ZN7testing8internal15TestFactoryImplI45ReadWindowsSizeTest_CheckWindowsSizeTest_TestE10CreateTestEv
FN:472,_ZN7testing8internal15TestFactoryImplI45ReadWindowsSizeTest_CheckColumnValueTest_TestE10CreateTestEv
FNDA:1,_ZN7testing8internal15TestFactoryImplI45ReadWindowsSizeTest_CheckColumnValueTest_TestE10CreateTestEv
FN:472,_ZN7testing8internal15TestFactoryImplI42ReadWindowsSizeTest_CheckRowValueTest_TestE10CreateTestEv
FNDA:1,_ZN7testing8internal15TestFactoryImplI42ReadWindowsSizeTest_CheckRowValueTest_TestE10CreateTestEv
FN:472,_ZN7testing8internal15TestFactoryImplI62ReadWindowsSizeTest_CheckPossibilityToSaveWindowsSizeTest_TestE10CreateTestEv
FNDA:1,_ZN7testing8internal15TestFactoryImplI62ReadWindowsSizeTest_CheckPossibilityToSaveWindowsSizeTest_TestE10CreateTestEv
FN:493,_ZN7testing8internal12CodeLocationC1ERKNSt7__cxx1112basic_stringIcSt11char_traitsIcESaIcEEEi
FNDA:0,_ZN7testing8internal12CodeLocationC1ERKNSt7__cxx1112basic_stringIcSt11char_traitsIcESaIcEEEi
FN:506,_ZN7testing8internal19GetNotDefaultOrNullEPFvvES2_
FNDA:0,_ZN7testing8internal19GetNotDefaultOrNullEPFvvES2_
FN:521,_ZN7testing8internal16SuiteApiResolverI19ReadWindowsSizeTestE19GetSetUpCaseOrSuiteEPKci
FNDA:5,_ZN7testing8internal16SuiteApiResolverI19ReadWindowsSizeTestE19GetSetUpCaseOrSuiteEPKci
FN:542,_ZN7testing8internal16SuiteApiResolverI19ReadWindowsSizeTestE22GetTearDownCaseOrSuiteEPKci
FNDA:5,_ZN7testing8internal16SuiteApiResolverI19ReadWindowsSizeTestE22GetTearDownCaseOrSuiteEPKci
FN:858,_ZN7testing8internal14TrueWithStringC1Ev
FNDA:0,_ZN7testing8internal14TrueWithStringC1Ev
FN:861,_ZNK7testing8internal14TrueWithStringcvbEv
FNDA:0,_ZNK7testing8internal14TrueWithStringcvbEv
FNF:14
FNH:8
DA:435,5
DA:440,5
DA:454,0
DA:461,0
DA:472,1
DA:472,1
DA:472,1
DA:472,1
DA:472,1
DA:493,0
DA:494,0
DA:506,0
DA:508,0
DA:521,5
DA:525,5
DA:527,5
DA:529,5
DA:532,0
DA:534,5
DA:542,5
DA:546,5
DA:548,5
DA:550,5
DA:553,0
DA:555,5
DA:858,0
DA:861,0
LF:27
LH:17
end_of_record
SF:C:\workspace\matrixGenerator\build\_deps\googletest-src\googletest\include\gtest\gtest-printers.h
FN:212,_ZN7testing8internal52internal_stream_operator_without_lexical_name_lookup13StreamPrinter10PrintValueIivRSoEEvRKT_PSo
FNDA:0,_ZN7testing8internal52internal_stream_operator_without_lexical_name_lookup13StreamPrinter10PrintValueIivRSoEEvRKT_PSo
FN:306,_ZN7testing8internal17PrintWithFallbackIiEEvRKT_PSo
FNDA:0,_ZN7testing8internal17PrintWithFallbackIiEEvRKT_PSo
FN:333,_ZN7testing8internal19FormatForComparisonINSt7__cxx1112basic_stringIcSt11char_traitsIcESaIcEEES7_E6FormatERKS7_
FNDA:0,_ZN7testing8internal19FormatForComparisonINSt7__cxx1112basic_stringIcSt11char_traitsIcESaIcEEES7_E6FormatERKS7_
FN:333,_ZN7testing8internal19FormatForComparisonIiiE6FormatB5cxx11ERKi
FNDA:0,_ZN7testing8internal19FormatForComparisonIiiE6FormatB5cxx11ERKi
FN:413,_ZN7testing8internal33FormatForComparisonFailureMessageINSt7__cxx1112basic_stringIcSt11char_traitsIcESaIcEEES7_EES7_RKT_RKT0_
FNDA:0,_ZN7testing8internal33FormatForComparisonFailureMessageINSt7__cxx1112basic_stringIcSt11char_traitsIcESaIcEEES7_EES7_RKT_RKT0_
FN:413,_ZN7testing8internal33FormatForComparisonFailureMessageIiiEENSt7__cxx1112basic_stringIcSt11char_traitsIcESaIcEEERKT_RKT0_
FNDA:0,_ZN7testing8internal33FormatForComparisonFailureMessageIiiEENSt7__cxx1112basic_stringIcSt11char_traitsIcESaIcEEERKT_RKT0_
FN:440,_ZN7testing8internal7PrintToIiEEvRKT_PSo
FNDA:0,_ZN7testing8internal7PrintToIiEEvRKT_PSo
FN:549,_ZN7testing8internal7PrintToERKNSt7__cxx1112basic_stringIcSt11char_traitsIcESaIcEEEPSo
FNDA:0,_ZN7testing8internal7PrintToERKNSt7__cxx1112basic_stringIcSt11char_traitsIcESaIcEEEPSo
FN:682,_ZN7testing8internal16UniversalPrinterIiE5PrintERKiPSo
FNDA:0,_ZN7testing8internal16UniversalPrinterIiE5PrintERKiPSo
FN:682,_ZN7testing8internal16UniversalPrinterINSt7__cxx1112basic_stringIcSt11char_traitsIcESaIcEEEE5PrintERKS7_PSo
FNDA:0,_ZN7testing8internal16UniversalPrinterINSt7__cxx1112basic_stringIcSt11char_traitsIcESaIcEEEE5PrintERKS7_PSo
FN:864,_ZN7testing8internal21UniversalTersePrinterINSt7__cxx1112basic_stringIcSt11char_traitsIcESaIcEEEE5PrintERKS7_PSo
FNDA:0,_ZN7testing8internal21UniversalTersePrinterINSt7__cxx1112basic_stringIcSt11char_traitsIcESaIcEEEE5PrintERKS7_PSo
FN:864,_ZN7testing8internal21UniversalTersePrinterIiE5PrintERKiPSo
FNDA:0,_ZN7testing8internal21UniversalTersePrinterIiE5PrintERKiPSo
FN:976,_ZN7testing8internal14UniversalPrintIiEEvRKT_PSo
FNDA:0,_ZN7testing8internal14UniversalPrintIiEEvRKT_PSo
FN:976,_ZN7testing8internal14UniversalPrintINSt7__cxx1112basic_stringIcSt11char_traitsIcESaIcEEEEEvRKT_PSo
FNDA:0,_ZN7testing8internal14UniversalPrintINSt7__cxx1112basic_stringIcSt11char_traitsIcESaIcEEEEEvRKT_PSo
FN:1016,_ZN7testing13PrintToStringINSt7__cxx1112basic_stringIcSt11char_traitsIcESaIcEEEEES6_RKT_
FNDA:0,_ZN7testing13PrintToStringINSt7__cxx1112basic_stringIcSt11char_traitsIcESaIcEEEEES6_RKT_
FN:1016,_ZN7testing13PrintToStringIiEENSt7__cxx1112basic_stringIcSt11char_traitsIcESaIcEEERKT_
FNDA:0,_ZN7testing13PrintToStringIiEENSt7__cxx1112basic_stringIcSt11char_traitsIcESaIcEEERKT_
FNF:16
FNH:0
DA:212,0
DA:215,0
DA:216,0
DA:306,0
DA:312,0
DA:313,0
DA:333,0
DA:334,0
DA:333,0
DA:334,0
DA:413,0
DA:415,0
DA:413,0
DA:415,0
DA:440,0
DA:441,0
DA:442,0
DA:549,0
DA:550,0
DA:551,0
DA:682,0
DA:691,0
DA:692,0
DA:682,0
DA:691,0
DA:692,0
DA:864,0
DA:865,0
DA:866,0
DA:864,0
DA:865,0
DA:866,0
DA:976,0
DA:980,0
DA:981,0
DA:976,0
DA:980,0
DA:981,0
DA:1016,0
DA:1017,0
DA:1018,0
DA:1019,0
DA:1020,0
DA:1016,0
DA:1017,0
DA:1018,0
DA:1019,0
DA:1020,0
LF:48
LH:0
end_of_record
SF:C:\workspace\matrixGenerator\build\_deps\googletest-src\googletest\include\gtest\gtest.h
FN:305,_ZN7testing15AssertionResultC1IbEERKT_PNSt9enable_ifIXntsrSt14is_convertibleIS2_S0_E5valueEvE4typeE
FNDA:0,_ZN7testing15AssertionResultC1IbEERKT_PNSt9enable_ifIXntsrSt14is_convertibleIS2_S0_E5valueEvE4typeE
FN:324,_ZNK7testing15AssertionResultcvbEv
FNDA:0,_ZNK7testing15AssertionResultcvbEv
FN:333,_ZNK7testing15AssertionResult7messageEv
FNDA:0,_ZNK7testing15AssertionResult7messageEv
FN:337,_ZNK7testing15AssertionResult15failure_messageEv
FNDA:0,_ZNK7testing15AssertionResult15failure_messageEv
FN:340,_ZN7testing15AssertionResultlsIA5_cEERS0_RKT_
FNDA:0,_ZN7testing15AssertionResultlsIA5_cEERS0_RKT_
FN:340,_ZN7testing15AssertionResultlsIA12_cEERS0_RKT_
FNDA:0,_ZN7testing15AssertionResultlsIA12_cEERS0_RKT_
FN:340,_ZN7testing15AssertionResultlsIPKcEERS0_RKT_
FNDA:0,_ZN7testing15AssertionResultlsIPKcEERS0_RKT_
FN:340,_ZN7testing15AssertionResultlsIA3_cEERS0_RKT_
FNDA:0,_ZN7testing15AssertionResultlsIA3_cEERS0_RKT_
FN:340,_ZN7testing15AssertionResultlsINSt7__cxx1112basic_stringIcSt11char_traitsIcESaIcEEEEERS0_RKT_
FNDA:0,_ZN7testing15AssertionResultlsINSt7__cxx1112basic_stringIcSt11char_traitsIcESaIcEEEEERS0_RKT_
FN:355,_ZN7testing15AssertionResult13AppendMessageERKNS_7MessageE
FNDA:0,_ZN7testing15AssertionResult13AppendMessageERKNS_7MessageE
FN:427,_ZN7testing4Test14SetUpTestSuiteEv
FNDA:0,_ZN7testing4Test14SetUpTestSuiteEv
FN:435,_ZN7testing4Test17TearDownTestSuiteEv
FNDA:0,_ZN7testing4Test17TearDownTestSuiteEv
FN:440,_ZN7testing4Test16TearDownTestCaseEv
FNDA:0,_ZN7testing4Test16TearDownTestCaseEv
FN:441,_ZN7testing4Test13SetUpTestCaseEv
FNDA:0,_ZN7testing4Test13SetUpTestCaseEv
FN:522,_ZN7testing4Test5SetupEv
FNDA:0,_ZN7testing4Test5SetupEv
FN:1522,_ZN7testing8internal18CmpHelperEQFailureINSt7__cxx1112basic_stringIcSt11char_traitsIcESaIcEEES7_EENS_15AssertionResultEPKcSA_RKT_RKT0_
FNDA:0,_ZN7testing8internal18CmpHelperEQFailureINSt7__cxx1112basic_stringIcSt11char_traitsIcESaIcEEES7_EENS_15AssertionResultEPKcSA_RKT_RKT0_
FN:1541,_ZN7testing8internal11CmpHelperEQINSt7__cxx1112basic_stringIcSt11char_traitsIcESaIcEEES7_EENS_15AssertionResultEPKcSA_RKT_RKT0_
FNDA:2,_ZN7testing8internal11CmpHelperEQINSt7__cxx1112basic_stringIcSt11char_traitsIcESaIcEEES7_EENS_15AssertionResultEPKcSA_RKT_RKT0_
FN:1561,_ZN7testing8internal8EqHelper7CompareINSt7__cxx1112basic_stringIcSt11char_traitsIcESaIcEEES8_LPv0EEENS_15AssertionResultEPKcSC_RKT_RKT0_
FNDA:2,_ZN7testing8internal8EqHelper7CompareINSt7__cxx1112basic_stringIcSt11char_traitsIcESaIcEEES8_LPv0EEENS_15AssertionResultEPKcSC_RKT_RKT0_
FN:1595,_ZN7testing8internal18CmpHelperOpFailureIiiEENS_15AssertionResultEPKcS4_RKT_RKT0_S4_
FNDA:0,_ZN7testing8internal18CmpHelperOpFailureIiiEENS_15AssertionResultEPKcS4_RKT_RKT0_S4_
FN:1630,_ZN7testing8internal11CmpHelperGEIiiEENS_15AssertionResultEPKcS4_RKT_RKT0_
FNDA:0,_ZN7testing8internal11CmpHelperGEIiiEENS_15AssertionResultEPKcS4_RKT_RKT0_
FNF:20
FNH:2
DA:305,0
DA:311,0
DA:324,0
DA:333,0
DA:334,0
DA:337,0
DA:340,0
DA:341,0
DA:342,0
DA:340,0
DA:341,0
DA:342,0
DA:340,0
DA:341,0
DA:342,0
DA:340,0
DA:341,0
DA:342,0
DA:340,0
DA:341,0
DA:342,0
DA:355,0
DA:356,0
DA:357,0
DA:358,0
DA:427,0
DA:435,0
DA:440,0
DA:441,0
DA:522,0
DA:1522,0
DA:1527,0
DA:1528,0
DA:1529,0
DA:1541,2
DA:1545,2
DA:1546,2
DA:1549,0
DA:1561,2
DA:1564,2
DA:1595,0
DA:1598,0
DA:1599,0
DA:1600,0
DA:1601,0
DA:1630,0
LF:46
LH:5
end_of_record
SF:C:\msys64\mingw64\include\c++\14.1.0\typeinfo
FN:102,_ZNKSt9type_info4nameEv
FNDA:0,_ZNKSt9type_info4nameEv
FNF:1
FNH:0
DA:102,0
DA:103,0
LF:2
LH:0
end_of_record
SF:C:\workspace\matrixGenerator\include\ReadWindowsSize.hpp
FN:10,_ZN15ReadWindowsSizeC1Ev
FNDA:5,_ZN15ReadWindowsSizeC1Ev
FNF:1
FNH:1
DA:10,5
LF:1
LH:1
end_of_record
TN:
SF:C:\workspace\matrixGenerator\tests\TimeMeasurementsTest.cpp
FN:11,_ZN20TimeMeasurementsTest5SetUpEv
FNDA:2,_ZN20TimeMeasurementsTest5SetUpEv
FN:16,_ZN20TimeMeasurementsTest8TearDownEv
FNDA:2,_ZN20TimeMeasurementsTest8TearDownEv
FN:22,_ZN41TimeMeasurementsTest_MeasureTimeTest_TestC1Ev
FNDA:1,_ZN41TimeMeasurementsTest_MeasureTimeTest_TestC1Ev
FN:22,_ZN41TimeMeasurementsTest_MeasureTimeTest_TestD0Ev
FNDA:1,_ZN41TimeMeasurementsTest_MeasureTimeTest_TestD0Ev
FN:22,_ZN41TimeMeasurementsTest_MeasureTimeTest_TestD1Ev
FNDA:1,_ZN41TimeMeasurementsTest_MeasureTimeTest_TestD1Ev
FN:22,_ZN41TimeMeasurementsTest_MeasureTimeTest_Test8TestBodyEv
FNDA:1,_ZN41TimeMeasurementsTest_MeasureTimeTest_Test8TestBodyEv
FN:35,_ZN39TimeMeasurementsTest_TimeValueTest_TestC1Ev
FNDA:1,_ZN39TimeMeasurementsTest_TimeValueTest_TestC1Ev
FN:35,_ZN39TimeMeasurementsTest_TimeValueTest_TestD0Ev
FNDA:1,_ZN39TimeMeasurementsTest_TimeValueTest_TestD0Ev
FN:35,_ZN39TimeMeasurementsTest_TimeValueTest_TestD1Ev
FNDA:1,_ZN39TimeMeasurementsTest_TimeValueTest_TestD1Ev
FN:35,_ZN39TimeMeasurementsTest_TimeValueTest_Test8TestBodyEv
FNDA:1,_ZN39TimeMeasurementsTest_TimeValueTest_Test8TestBodyEv
FNF:10
FNH:10
DA:11,2
DA:13,2
DA:14,2
DA:16,2
DA:18,2
DA:19,2
DA:22,1
DA:22,1
DA:22,1
DA:22,1
DA:24,1
DA:26,1
DA:28,1
DA:30,1
DA:32,1
DA:35,1
DA:35,1
DA:35,1
DA:35,1
DA:37,1
DA:39,1
DA:41,1
DA:43,1
DA:45,1
DA:46,1
LF:25
LH:25
end_of_record
SF:C:\msys64\mingw64\include\c++\14.1.0\bits\move.h
FN:126,_ZSt4moveIRPNSt7__cxx1112basic_stringIcSt11char_traitsIcESaIcEEEEONSt16remove_referenceIT_E4typeEOS9_
FNDA:0,_ZSt4moveIRPNSt7__cxx1112basic_stringIcSt11char_traitsIcESaIcEEEEONSt16remove_referenceIT_E4typeEOS9_
FN:126,_ZSt4moveIRPNSt7__cxx1118basic_stringstreamIcSt11char_traitsIcESaIcEEEEONSt16remove_referenceIT_E4typeEOS9_
FNDA:0,_ZSt4moveIRPNSt7__cxx1118basic_stringstreamIcSt11char_traitsIcESaIcEEEEONSt16remove_referenceIT_E4typeEOS9_
FN:126,_ZSt4moveIRSaIcEEONSt16remove_referenceIT_E4typeEOS3_
FNDA:0,_ZSt4moveIRSaIcEEONSt16remove_referenceIT_E4typeEOS3_
FNF:3
FNH:0
DA:126,0
DA:127,0
DA:126,0
DA:127,0
DA:126,0
DA:127,0
LF:6
LH:0
end_of_record
SF:C:\workspace\matrixGenerator\build\_deps\googletest-src\googletest\include\gtest\gtest-message.h
FN:113,_ZN7testing7MessagelsIA5_cEERS0_RKT_
FNDA:0,_ZN7testing7MessagelsIA5_cEERS0_RKT_
FN:113,_ZN7testing7MessagelsINSt7__cxx1112basic_stringIcSt11char_traitsIcESaIcEEEEERS0_RKT_
FNDA:0,_ZN7testing7MessagelsINSt7__cxx1112basic_stringIcSt11char_traitsIcESaIcEEEEERS0_RKT_
FN:113,_ZN7testing7MessagelsIA3_cEERS0_RKT_
FNDA:0,_ZN7testing7MessagelsIA3_cEERS0_RKT_
FN:113,_ZN7testing7MessagelsIA12_cEERS0_RKT_
FNDA:0,_ZN7testing7MessagelsIA12_cEERS0_RKT_
FN:147,_ZN7testing7MessagelsIKcEERS0_RKPT_
FNDA:0,_ZN7testing7MessagelsIKcEERS0_RKPT_
FNF:5
FNH:0
DA:113,0
DA:129,0
DA:130,0
DA:113,0
DA:129,0
DA:130,0
DA:113,0
DA:129,0
DA:130,0
DA:113,0
DA:129,0
DA:130,0
DA:147,0
DA:148,0
DA:149,0
DA:151,0
DA:153,0
LF:17
LH:0
end_of_record
SF:C:\msys64\mingw64\include\c++\14.1.0\bits\unique_ptr.h
FN:87,_ZNKSt14default_deleteINSt7__cxx1118basic_stringstreamIcSt11char_traitsIcESaIcEEEEclEPS5_
FNDA:0,_ZNKSt14default_deleteINSt7__cxx1118basic_stringstreamIcSt11char_traitsIcESaIcEEEEclEPS5_
FN:87,_ZNKSt14default_deleteINSt7__cxx1112basic_stringIcSt11char_traitsIcESaIcEEEEclEPS5_
FNDA:0,_ZNKSt14default_deleteINSt7__cxx1112basic_stringIcSt11char_traitsIcESaIcEEEEclEPS5_
FN:191,_ZNSt15__uniq_ptr_implINSt7__cxx1118basic_stringstreamIcSt11char_traitsIcESaIcEEESt14default_deleteIS5_EE6_M_ptrEv
FNDA:0,_ZNSt15__uniq_ptr_implINSt7__cxx1118basic_stringstreamIcSt11char_traitsIcESaIcEEESt14default_deleteIS5_EE6_M_ptrEv
FN:191,_ZNSt15__uniq_ptr_implINSt7__cxx1112basic_stringIcSt11char_traitsIcESaIcEEESt14default_deleteIS5_EE6_M_ptrEv
FNDA:0,_ZNSt15__uniq_ptr_implINSt7__cxx1112basic_stringIcSt11char_traitsIcESaIcEEESt14default_deleteIS5_EE6_M_ptrEv
FN:193,_ZNKSt15__uniq_ptr_implINSt7__cxx1118basic_stringstreamIcSt11char_traitsIcESaIcEEESt14default_deleteIS5_EE6_M_ptrEv
FNDA:0,_ZNKSt15__uniq_ptr_implINSt7__cxx1118basic_stringstreamIcSt11char_traitsIcESaIcEEESt14default_deleteIS5_EE6_M_ptrEv
FN:193,_ZNKSt15__uniq_ptr_implINSt7__cxx1112basic_stringIcSt11char_traitsIcESaIcEEESt14default_deleteIS5_EE6_M_ptrEv
FNDA:0,_ZNKSt15__uniq_ptr_implINSt7__cxx1112basic_stringIcSt11char_traitsIcESaIcEEESt14default_deleteIS5_EE6_M_ptrEv
FN:195,_ZNSt15__uniq_ptr_implINSt7__cxx1118basic_stringstreamIcSt11char_traitsIcESaIcEEESt14default_deleteIS5_EE10_M_deleterEv
FNDA:0,_ZNSt15__uniq_ptr_implINSt7__cxx1118basic_stringstreamIcSt11char_traitsIcESaIcEEESt14default_deleteIS5_EE10_M_deleterEv
FN:195,_ZNSt15__uniq_ptr_implINSt7__cxx1112basic_stringIcSt11char_traitsIcESaIcEEESt14default_deleteIS5_EE10_M_deleterEv
FNDA:0,_ZNSt15__uniq_ptr_implINSt7__cxx1112basic_stringIcSt11char_traitsIcESaIcEEESt14default_deleteIS5_EE10_M_deleterEv
FN:200,_ZNSt15__uniq_ptr_implINSt7__cxx1112basic_stringIcSt11char_traitsIcESaIcEEESt14default_deleteIS5_EE5resetEPS5_
FNDA:0,_ZNSt15__uniq_ptr_implINSt7__cxx1112basic_stringIcSt11char_traitsIcESaIcEEESt14default_deleteIS5_EE5resetEPS5_
FN:392,_ZNSt10unique_ptrINSt7__cxx1112basic_stringIcSt11char_traitsIcESaIcEEESt14default_deleteIS5_EED1Ev
FNDA:0,_ZNSt10unique_ptrINSt7__cxx1112basic_stringIcSt11char_traitsIcESaIcEEESt14default_deleteIS5_EED1Ev
FN:392,_ZNSt10unique_ptrINSt7__cxx1118basic_stringstreamIcSt11char_traitsIcESaIcEEESt14default_deleteIS5_EED1Ev
FNDA:0,_ZNSt10unique_ptrINSt7__cxx1118basic_stringstreamIcSt11char_traitsIcESaIcEEESt14default_deleteIS5_EED1Ev
FN:445,_ZNKSt10unique_ptrINSt7__cxx1118basic_stringstreamIcSt11char_traitsIcESaIcEEESt14default_deleteIS5_EEdeEv
FNDA:0,_ZNKSt10unique_ptrINSt7__cxx1118basic_stringstreamIcSt11char_traitsIcESaIcEEESt14default_deleteIS5_EEdeEv
FN:454,_ZNKSt10unique_ptrINSt7__cxx1112basic_stringIcSt11char_traitsIcESaIcEEESt14default_deleteIS5_EEptEv
FNDA:0,_ZNKSt10unique_ptrINSt7__cxx1112basic_stringIcSt11char_traitsIcESaIcEEESt14default_deleteIS5_EEptEv
FN:463,_ZNKSt10unique_ptrINSt7__cxx1118basic_stringstreamIcSt11char_traitsIcESaIcEEESt14default_deleteIS5_EE3getEv
FNDA:0,_ZNKSt10unique_ptrINSt7__cxx1118basic_stringstreamIcSt11char_traitsIcESaIcEEESt14default_deleteIS5_EE3getEv
FN:463,_ZNKSt10unique_ptrINSt7__cxx1112basic_stringIcSt11char_traitsIcESaIcEEESt14default_deleteIS5_EE3getEv
FNDA:0,_ZNKSt10unique_ptrINSt7__cxx1112basic_stringIcSt11char_traitsIcESaIcEEESt14default_deleteIS5_EE3getEv
FN:469,_ZNSt10unique_ptrINSt7__cxx1112basic_stringIcSt11char_traitsIcESaIcEEESt14default_deleteIS5_EE11get_deleterEv
FNDA:0,_ZNSt10unique_ptrINSt7__cxx1112basic_stringIcSt11char_traitsIcESaIcEEESt14default_deleteIS5_EE11get_deleterEv
FN:469,_ZNSt10unique_ptrINSt7__cxx1118basic_stringstreamIcSt11char_traitsIcESaIcEEESt14default_deleteIS5_EE11get_deleterEv
FNDA:0,_ZNSt10unique_ptrINSt7__cxx1118basic_stringstreamIcSt11char_traitsIcESaIcEEESt14default_deleteIS5_EE11get_deleterEv
FN:499,_ZNSt10unique_ptrINSt7__cxx1112basic_stringIcSt11char_traitsIcESaIcEEESt14default_deleteIS5_EE5resetEPS5_
FNDA:0,_ZNSt10unique_ptrINSt7__cxx1112basic_stringIcSt11char_traitsIcESaIcEEESt14default_deleteIS5_EE5resetEPS5_
FNF:18
FNH:0
DA:87,0
DA:93,0
DA:94,0
DA:87,0
DA:93,0
DA:94,0
DA:191,0
DA:191,0
DA:193,0
DA:193,0
DA:195,0
DA:195,0
DA:200,0
DA:202,0
DA:203,0
DA:204,0
DA:205,0
DA:206,0
DA:392,0
DA:396,0
DA:397,0
DA:398,0
DA:399,0
DA:400,0
DA:392,0
DA:396,0
DA:397,0
DA:398,0
DA:399,0
DA:400,0
DA:445,0
DA:447,0
DA:448,0
DA:454,0
DA:457,0
DA:463,0
DA:464,0
DA:463,0
DA:464,0
DA:469,0
DA:470,0
DA:469,0
DA:470,0
DA:499,0
DA:503,0
DA:504,0
LF:46
LH:0
end_of_record
SF:C:\msys64\mingw64\include\c++\14.1.0\bits\basic_string.tcc
FN:221,_ZNSt7__cxx1112basic_stringIcSt11char_traitsIcESaIcEE12_M_constructIPcEEvT_S7_St20forward_iterator_tag
FNDA:0,_ZNSt7__cxx1112basic_stringIcSt11char_traitsIcESaIcEE12_M_constructIPcEEvT_S7_St20forward_iterator_tag
FN:221,_ZNSt7__cxx1112basic_stringIcSt11char_traitsIcESaIcEE12_M_constructIPKcEEvT_S8_St20forward_iterator_tag
FNDA:0,_ZNSt7__cxx1112basic_stringIcSt11char_traitsIcESaIcEE12_M_constructIPKcEEvT_S8_St20forward_iterator_tag
FN:239,_ZZNSt7__cxx1112basic_stringIcSt11char_traitsIcESaIcEE12_M_constructIPcEEvT_S7_St20forward_iterator_tagEN6_GuardC1EPS4_
FNDA:0,_ZZNSt7__cxx1112basic_stringIcSt11char_traitsIcESaIcEE12_M_constructIPcEEvT_S7_St20forward_iterator_tagEN6_GuardC1EPS4_
FN:239,_ZZNSt7__cxx1112basic_stringIcSt11char_traitsIcESaIcEE12_M_constructIPKcEEvT_S8_St20forward_iterator_tagEN6_GuardC1EPS4_
FNDA:0,_ZZNSt7__cxx1112basic_stringIcSt11char_traitsIcESaIcEE12_M_constructIPKcEEvT_S8_St20forward_iterator_tagEN6_GuardC1EPS4_
FN:242,_ZZNSt7__cxx1112basic_stringIcSt11char_traitsIcESaIcEE12_M_constructIPcEEvT_S7_St20forward_iterator_tagEN6_GuardD1Ev
FNDA:0,_ZZNSt7__cxx1112basic_stringIcSt11char_traitsIcESaIcEE12_M_constructIPcEEvT_S7_St20forward_iterator_tagEN6_GuardD1Ev
FN:242,_ZZNSt7__cxx1112basic_stringIcSt11char_traitsIcESaIcEE12_M_constructIPKcEEvT_S8_St20forward_iterator_tagEN6_GuardD1Ev
FNDA:0,_ZZNSt7__cxx1112basic_stringIcSt11char_traitsIcESaIcEE12_M_constructIPKcEEvT_S8_St20forward_iterator_tagEN6_GuardD1Ev
FNF:6
FNH:0
DA:221,0
DA:225,0
DA:227,0
DA:229,0
DA:230,0
DA:245,0
DA:247,0
DA:249,0
DA:251,0
DA:252,0
DA:221,0
DA:225,0
DA:227,0
DA:229,0
DA:230,0
DA:245,0
DA:247,0
DA:249,0
DA:251,0
DA:252,0
DA:239,0
DA:239,0
DA:242,0
DA:242,0
LF:24
LH:0
end_of_record
SF:C:\workspace\matrixGenerator\build\_deps\googletest-src\googletest\include\gtest\internal\gtest-port.h
FN:974,_ZN7testing8internal8GTestLog9GetStreamEv
FNDA:0,_ZN7testing8internal8GTestLog9GetStreamEv
FNF:1
FNH:0
DA:974,0
LF:1
LH:0
end_of_record
SF:C:\msys64\mingw64\include\c++\14.1.0\bits\stl_iterator_base_funcs.h
DA:106,0
DA:151,0
DA:152,0
LF:3
LH:0
end_of_record
SF:C:\msys64\mingw64\include\c++\14.1.0\bits\stl_iterator_base_types.h
DA:240,0
LF:1
LH:0
end_of_record
SF:C:\msys64\mingw64\include\c++\14.1.0\tuple
FN:133,_ZNSt10_Head_baseILy1ESt14default_deleteINSt7__cxx1112basic_stringIcSt11char_traitsIcESaIcEEEELb1EE7_M_headERS8_
FNDA:0,_ZNSt10_Head_baseILy1ESt14default_deleteINSt7__cxx1112basic_stringIcSt11char_traitsIcESaIcEEEELb1EE7_M_headERS8_
FN:133,_ZNSt10_Head_baseILy1ESt14default_deleteINSt7__cxx1118basic_stringstreamIcSt11char_traitsIcESaIcEEEELb1EE7_M_headERS8_
FNDA:0,_ZNSt10_Head_baseILy1ESt14default_deleteINSt7__cxx1118basic_stringstreamIcSt11char_traitsIcESaIcEEEELb1EE7_M_headERS8_
FN:242,_ZNSt10_Head_baseILy0EPNSt7__cxx1112basic_stringIcSt11char_traitsIcESaIcEEELb0EE7_M_headERS7_
FNDA:0,_ZNSt10_Head_baseILy0EPNSt7__cxx1112basic_stringIcSt11char_traitsIcESaIcEEELb0EE7_M_headERS7_
FN:242,_ZNSt10_Head_baseILy0EPNSt7__cxx1118basic_stringstreamIcSt11char_traitsIcESaIcEEELb0EE7_M_headERS7_
FNDA:0,_ZNSt10_Head_baseILy0EPNSt7__cxx1118basic_stringstreamIcSt11char_traitsIcESaIcEEELb0EE7_M_headERS7_
FN:245,_ZNSt10_Head_baseILy0EPNSt7__cxx1118basic_stringstreamIcSt11char_traitsIcESaIcEEELb0EE7_M_headERKS7_
FNDA:0,_ZNSt10_Head_baseILy0EPNSt7__cxx1118basic_stringstreamIcSt11char_traitsIcESaIcEEELb0EE7_M_headERKS7_
FN:245,_ZNSt10_Head_baseILy0EPNSt7__cxx1112basic_stringIcSt11char_traitsIcESaIcEEELb0EE7_M_headERKS7_
FNDA:0,_ZNSt10_Head_baseILy0EPNSt7__cxx1112basic_stringIcSt11char_traitsIcESaIcEEELb0EE7_M_headERKS7_
FN:293,_ZNSt11_Tuple_implILy0EJPNSt7__cxx1112basic_stringIcSt11char_traitsIcESaIcEEESt14default_deleteIS5_EEE7_M_headERS9_
FNDA:0,_ZNSt11_Tuple_implILy0EJPNSt7__cxx1112basic_stringIcSt11char_traitsIcESaIcEEESt14default_deleteIS5_EEE7_M_headERS9_
FN:293,_ZNSt11_Tuple_implILy0EJPNSt7__cxx1118basic_stringstreamIcSt11char_traitsIcESaIcEEESt14default_deleteIS5_EEE7_M_headERS9_
FNDA:0,_ZNSt11_Tuple_implILy0EJPNSt7__cxx1118basic_stringstreamIcSt11char_traitsIcESaIcEEESt14default_deleteIS5_EEE7_M_headERS9_
FN:296,_ZNSt11_Tuple_implILy0EJPNSt7__cxx1118basic_stringstreamIcSt11char_traitsIcESaIcEEESt14default_deleteIS5_EEE7_M_headERKS9_
FNDA:0,_ZNSt11_Tuple_implILy0EJPNSt7__cxx1118basic_stringstreamIcSt11char_traitsIcESaIcEEESt14default_deleteIS5_EEE7_M_headERKS9_
FN:296,_ZNSt11_Tuple_implILy0EJPNSt7__cxx1112basic_stringIcSt11char_traitsIcESaIcEEESt14default_deleteIS5_EEE7_M_headERKS9_
FNDA:0,_ZNSt11_Tuple_implILy0EJPNSt7__cxx1112basic_stringIcSt11char_traitsIcESaIcEEESt14default_deleteIS5_EEE7_M_headERKS9_
FN:556,_ZNSt11_Tuple_implILy1EJSt14default_deleteINSt7__cxx1118basic_stringstreamIcSt11char_traitsIcESaIcEEEEEE7_M_headERS8_
FNDA:0,_ZNSt11_Tuple_implILy1EJSt14default_deleteINSt7__cxx1118basic_stringstreamIcSt11char_traitsIcESaIcEEEEEE7_M_headERS8_
FN:556,_ZNSt11_Tuple_implILy1EJSt14default_deleteINSt7__cxx1112basic_stringIcSt11char_traitsIcESaIcEEEEEE7_M_headERS8_
FNDA:0,_ZNSt11_Tuple_implILy1EJSt14default_deleteINSt7__cxx1112basic_stringIcSt11char_traitsIcESaIcEEEEEE7_M_headERS8_
FN:2427,_ZSt12__get_helperILy1ESt14default_deleteINSt7__cxx1112basic_stringIcSt11char_traitsIcESaIcEEEEJEERT0_RSt11_Tuple_implIXT_EJS8_DpT1_EE
FNDA:0,_ZSt12__get_helperILy1ESt14default_deleteINSt7__cxx1112basic_stringIcSt11char_traitsIcESaIcEEEEJEERT0_RSt11_Tuple_implIXT_EJS8_DpT1_EE
FN:2427,_ZSt12__get_helperILy1ESt14default_deleteINSt7__cxx1118basic_stringstreamIcSt11char_traitsIcESaIcEEEEJEERT0_RSt11_Tuple_implIXT_EJS8_DpT1_EE
FNDA:0,_ZSt12__get_helperILy1ESt14default_deleteINSt7__cxx1118basic_stringstreamIcSt11char_traitsIcESaIcEEEEJEERT0_RSt11_Tuple_implIXT_EJS8_DpT1_EE
FN:2427,_ZSt12__get_helperILy0EPNSt7__cxx1112basic_stringIcSt11char_traitsIcESaIcEEEJSt14default_deleteIS5_EEERT0_RSt11_Tuple_implIXT_EJS9_DpT1_EE
FNDA:0,_ZSt12__get_helperILy0EPNSt7__cxx1112basic_stringIcSt11char_traitsIcESaIcEEEJSt14default_deleteIS5_EEERT0_RSt11_Tuple_implIXT_EJS9_DpT1_EE
FN:2427,_ZSt12__get_helperILy0EPNSt7__cxx1118basic_stringstreamIcSt11char_traitsIcESaIcEEEJSt14default_deleteIS5_EEERT0_RSt11_Tuple_implIXT_EJS9_DpT1_EE
FNDA:0,_ZSt12__get_helperILy0EPNSt7__cxx1118basic_stringstreamIcSt11char_traitsIcESaIcEEEJSt14default_deleteIS5_EEERT0_RSt11_Tuple_implIXT_EJS9_DpT1_EE
FN:2432,_ZSt12__get_helperILy0EPNSt7__cxx1118basic_stringstreamIcSt11char_traitsIcESaIcEEEJSt14default_deleteIS5_EEERKT0_RKSt11_Tuple_implIXT_EJS9_DpT1_EE
FNDA:0,_ZSt12__get_helperILy0EPNSt7__cxx1118basic_stringstreamIcSt11char_traitsIcESaIcEEEJSt14default_deleteIS5_EEERKT0_RKSt11_Tuple_implIXT_EJS9_DpT1_EE
FN:2432,_ZSt12__get_helperILy0EPNSt7__cxx1112basic_stringIcSt11char_traitsIcESaIcEEEJSt14default_deleteIS5_EEERKT0_RKSt11_Tuple_implIXT_EJS9_DpT1_EE
FNDA:0,_ZSt12__get_helperILy0EPNSt7__cxx1112basic_stringIcSt11char_traitsIcESaIcEEEJSt14default_deleteIS5_EEERKT0_RKSt11_Tuple_implIXT_EJS9_DpT1_EE
FN:2443,_ZSt3getILy1EJPNSt7__cxx1118basic_stringstreamIcSt11char_traitsIcESaIcEEESt14default_deleteIS5_EEERNSt13tuple_elementIXT_ESt5tupleIJDpT0_EEE4typeERSD_
FNDA:0,_ZSt3getILy1EJPNSt7__cxx1118basic_stringstreamIcSt11char_traitsIcESaIcEEESt14default_deleteIS5_EEERNSt13tuple_elementIXT_ESt5tupleIJDpT0_EEE4typeERSD_
FN:2443,_ZSt3getILy1EJPNSt7__cxx1112basic_stringIcSt11char_traitsIcESaIcEEESt14default_deleteIS5_EEERNSt13tuple_elementIXT_ESt5tupleIJDpT0_EEE4typeERSD_
FNDA:0,_ZSt3getILy1EJPNSt7__cxx1112basic_stringIcSt11char_traitsIcESaIcEEESt14default_deleteIS5_EEERNSt13tuple_elementIXT_ESt5tupleIJDpT0_EEE4typeERSD_
FN:2443,_ZSt3getILy0EJPNSt7__cxx1112basic_stringIcSt11char_traitsIcESaIcEEESt14default_deleteIS5_EEERNSt13tuple_elementIXT_ESt5tupleIJDpT0_EEE4typeERSD_
FNDA:0,_ZSt3getILy0EJPNSt7__cxx1112basic_stringIcSt11char_traitsIcESaIcEEESt14default_deleteIS5_EEERNSt13tuple_elementIXT_ESt5tupleIJDpT0_EEE4typeERSD_
FN:2443,_ZSt3getILy0EJPNSt7__cxx1118basic_stringstreamIcSt11char_traitsIcESaIcEEESt14default_deleteIS5_EEERNSt13tuple_elementIXT_ESt5tupleIJDpT0_EEE4typeERSD_
FNDA:0,_ZSt3getILy0EJPNSt7__cxx1118basic_stringstreamIcSt11char_traitsIcESaIcEEESt14default_deleteIS5_EEERNSt13tuple_elementIXT_ESt5tupleIJDpT0_EEE4typeERSD_
FN:2449,_ZSt3getILy0EJPNSt7__cxx1118basic_stringstreamIcSt11char_traitsIcESaIcEEESt14default_deleteIS5_EEERKNSt13tuple_elementIXT_ESt5tupleIJDpT0_EEE4typeERKSD_
FNDA:0,_ZSt3getILy0EJPNSt7__cxx1118basic_stringstreamIcSt11char_traitsIcESaIcEEESt14default_deleteIS5_EEERKNSt13tuple_elementIXT_ESt5tupleIJDpT0_EEE4typeERKSD_
FN:2449,_ZSt3getILy0EJPNSt7__cxx1112basic_stringIcSt11char_traitsIcESaIcEEESt14default_deleteIS5_EEERKNSt13tuple_elementIXT_ESt5tupleIJDpT0_EEE4typeERKSD_
FNDA:0,_ZSt3getILy0EJPNSt7__cxx1112basic_stringIcSt11char_traitsIcESaIcEEESt14default_deleteIS5_EEERKNSt13tuple_elementIXT_ESt5tupleIJDpT0_EEE4typeERKSD_
FNF:24
FNH:0
DA:133,0
DA:133,0
DA:242,0
DA:242,0
DA:245,0
DA:245,0
DA:293,0
DA:293,0
DA:296,0
DA:296,0
DA:556,0
DA:556,0
DA:2427,0
DA:2428,0
DA:2427,0
DA:2428,0
DA:2427,0
DA:2428,0
DA:2427,0
DA:2428,0
DA:2432,0
DA:2433,0
DA:2432,0
DA:2433,0
DA:2443,0
DA:2444,0
DA:2443,0
DA:2444,0
DA:2443,0
DA:2444,0
DA:2443,0
DA:2444,0
DA:2449,0
DA:2450,0
DA:2449,0
DA:2450,0
LF:36
LH:0
end_of_record
SF:C:\msys64\mingw64\include\c++\14.1.0\x86_64-w64-mingw32\bits\c++config.h
DA:550,0
DA:606,0
LF:2
LH:0
end_of_record
SF:C:\workspace\matrixGenerator\include\TimeMeasurements.hpp
FN:10,_ZN16TimeMeasurementsC1Ev
FNDA:2,_ZN16TimeMeasurementsC1Ev
FNF:1
FNH:1
DA:10,2
LF:1
LH:1
end_of_record
SF:C:\workspace\matrixGenerator\build\_deps\googletest-src\googletest\include\gtest\gtest-printers.h
FN:212,_ZN7testing8internal52internal_stream_operator_without_lexical_name_lookup13StreamPrinter10PrintValueIdvRSoEEvRKT_PSo
FNDA:0,_ZN7testing8internal52internal_stream_operator_without_lexical_name_lookup13StreamPrinter10PrintValueIdvRSoEEvRKT_PSo
FN:306,_ZN7testing8internal17PrintWithFallbackIdEEvRKT_PSo
FNDA:0,_ZN7testing8internal17PrintWithFallbackIdEEvRKT_PSo
FN:333,_ZN7testing8internal19FormatForComparisonIddE6FormatB5cxx11ERKd
FNDA:0,_ZN7testing8internal19FormatForComparisonIddE6FormatB5cxx11ERKd
FN:413,_ZN7testing8internal33FormatForComparisonFailureMessageIddEENSt7__cxx1112basic_stringIcSt11char_traitsIcESaIcEEERKT_RKT0_
FNDA:0,_ZN7testing8internal33FormatForComparisonFailureMessageIddEENSt7__cxx1112basic_stringIcSt11char_traitsIcESaIcEEERKT_RKT0_
FN:440,_ZN7testing8internal7PrintToIdEEvRKT_PSo
FNDA:0,_ZN7testing8internal7PrintToIdEEvRKT_PSo
FN:682,_ZN7testing8internal16UniversalPrinterIdE5PrintERKdPSo
FNDA:0,_ZN7testing8internal16UniversalPrinterIdE5PrintERKdPSo
FN:864,_ZN7testing8internal21UniversalTersePrinterIdE5PrintERKdPSo
FNDA:0,_ZN7testing8internal21UniversalTersePrinterIdE5PrintERKdPSo
FN:976,_ZN7testing8internal14UniversalPrintIdEEvRKT_PSo
FNDA:0,_ZN7testing8internal14UniversalPrintIdEEvRKT_PSo
FN:1016,_ZN7testing13PrintToStringIdEENSt7__cxx1112basic_stringIcSt11char_traitsIcESaIcEEERKT_
FNDA:0,_ZN7testing13PrintToStringIdEENSt7__cxx1112basic_stringIcSt11char_traitsIcESaIcEEERKT_
FNF:9
FNH:0
DA:212,0
DA:215,0
DA:216,0
DA:306,0
DA:312,0
DA:313,0
DA:333,0
DA:334,0
DA:413,0
DA:415,0
DA:440,0
DA:441,0
DA:442,0
DA:682,0
DA:691,0
DA:692,0
DA:864,0
DA:865,0
DA:866,0
DA:976,0
DA:980,0
DA:981,0
DA:1016,0
DA:1017,0
DA:1018,0
DA:1019,0
DA:1020,0
LF:27
LH:0
end_of_record
SF:C:\workspace\matrixGenerator\build\_deps\googletest-src\googletest\include\gtest\gtest.h
FN:324,_ZNK7testing15AssertionResultcvbEv
FNDA:0,_ZNK7testing15AssertionResultcvbEv
FN:333,_ZNK7testing15AssertionResult7messageEv
FNDA:0,_ZNK7testing15AssertionResult7messageEv
FN:337,_ZNK7testing15AssertionResult15failure_messageEv
FNDA:0,_ZNK7testing15AssertionResult15failure_messageEv
FN:340,_ZN7testing15AssertionResultlsINSt7__cxx1112basic_stringIcSt11char_traitsIcESaIcEEEEERS0_RKT_
FNDA:0,_ZN7testing15AssertionResultlsINSt7__cxx1112basic_stringIcSt11char_traitsIcESaIcEEEEERS0_RKT_
FN:340,_ZN7testing15AssertionResultlsIA12_cEERS0_RKT_
FNDA:0,_ZN7testing15AssertionResultlsIA12_cEERS0_RKT_
FN:340,_ZN7testing15AssertionResultlsIPKcEERS0_RKT_
FNDA:0,_ZN7testing15AssertionResultlsIPKcEERS0_RKT_
FN:340,_ZN7testing15AssertionResultlsIA3_cEERS0_RKT_
FNDA:0,_ZN7testing15AssertionResultlsIA3_cEERS0_RKT_
FN:340,_ZN7testing15AssertionResultlsIA5_cEERS0_RKT_
FNDA:0,_ZN7testing15AssertionResultlsIA5_cEERS0_RKT_
FN:355,_ZN7testing15AssertionResult13AppendMessageERKNS_7MessageE
FNDA:0,_ZN7testing15AssertionResult13AppendMessageERKNS_7MessageE
FN:427,_ZN7testing4Test14SetUpTestSuiteEv
FNDA:0,_ZN7testing4Test14SetUpTestSuiteEv
FN:435,_ZN7testing4Test17TearDownTestSuiteEv
FNDA:0,_ZN7testing4Test17TearDownTestSuiteEv
FN:440,_ZN7testing4Test16TearDownTestCaseEv
FNDA:0,_ZN7testing4Test16TearDownTestCaseEv
FN:441,_ZN7testing4Test13SetUpTestCaseEv
FNDA:0,_ZN7testing4Test13SetUpTestCaseEv
FN:522,_ZN7testing4Test5SetupEv
FNDA:0,_ZN7testing4Test5SetupEv
FN:1595,_ZN7testing8internal18CmpHelperOpFailureIddEENS_15AssertionResultEPKcS4_RKT_RKT0_S4_
FNDA:0,_ZN7testing8internal18CmpHelperOpFailureIddEENS_15AssertionResultEPKcS4_RKT_RKT0_S4_
FN:1626,_ZN7testing8internal11CmpHelperLEIddEENS_15AssertionResultEPKcS4_RKT_RKT0_
FNDA:1,_ZN7testing8internal11CmpHelperLEIddEENS_15AssertionResultEPKcS4_RKT_RKT0_
FN:1630,_ZN7testing8internal11CmpHelperGEIddEENS_15AssertionResultEPKcS4_RKT_RKT0_
FNDA:2,_ZN7testing8internal11CmpHelperGEIddEENS_15AssertionResultEPKcS4_RKT_RKT0_
FNF:17
FNH:2
DA:324,0
DA:333,0
DA:334,0
DA:337,0
DA:340,0
DA:341,0
DA:342,0
DA:340,0
DA:341,0
DA:342,0
DA:340,0
DA:341,0
DA:342,0
DA:340,0
DA:341,0
DA:342,0
DA:340,0
DA:341,0
DA:342,0
DA:355,0
DA:356,0
DA:357,0
DA:358,0
DA:427,0
DA:435,0
DA:440,0
DA:441,0
DA:522,0
DA:1595,0
DA:1598,0
DA:1599,0
DA:1600,0
DA:1601,0
DA:1626,1
DA:1630,2
LF:35
LH:2
end_of_record
SF:C:\msys64\mingw64\include\c++\14.1.0\bits\chrono.h
FN:210,_ZNSt6chrono20__duration_cast_implINS_8durationIxSt5ratioILx1ELx1EEEES2_ILx1ELx1000EExLb1ELb0EE6__castIxS5_EES4_RKNS1_IT_T0_EE
FNDA:2,_ZNSt6chrono20__duration_cast_implINS_8durationIxSt5ratioILx1ELx1EEEES2_ILx1ELx1000EExLb1ELb0EE6__castIxS5_EES4_RKNS1_IT_T0_EE
FN:223,_ZNSt6chrono20__duration_cast_implINS_8durationIxSt5ratioILx1ELx1000000000EEEES2_ILx1000000ELx1EExLb0ELb1EE6__castIxS2_ILx1ELx1000EEEES4_RKNS1_IT_T0_EE
FNDA:2,_ZNSt6chrono20__duration_cast_implINS_8durationIxSt5ratioILx1ELx1000000000EEEES2_ILx1000000ELx1EExLb0ELb1EE6__castIxS2_ILx1ELx1000EEEES4_RKNS1_IT_T0_EE
FN:223,_ZNSt6chrono20__duration_cast_implINS_8durationIxSt5ratioILx1ELx1000EEEES2_ILx1000ELx1EExLb0ELb1EE6__castIxS2_ILx1ELx1EEEES4_RKNS1_IT_T0_EE
FNDA:2,_ZNSt6chrono20__duration_cast_implINS_8durationIxSt5ratioILx1ELx1000EEEES2_ILx1000ELx1EExLb0ELb1EE6__castIxS2_ILx1ELx1EEEES4_RKNS1_IT_T0_EE
FN:275,_ZNSt6chrono13duration_castINS_8durationIxSt5ratioILx1ELx1000EEEExS2_ILx1ELx1EEEENSt9enable_ifIXsrNS_13__is_durationIT_EE5valueES8_E4typeERKNS1_IT0_T1_EE
FNDA:2,_ZNSt6chrono13duration_castINS_8durationIxSt5ratioILx1ELx1000EEEExS2_ILx1ELx1EEEENSt9enable_ifIXsrNS_13__is_durationIT_EE5valueES8_E4typeERKNS1_IT0_T1_EE
FN:275,_ZNSt6chrono13duration_castINS_8durationIxSt5ratioILx1ELx1EEEExS2_ILx1ELx1000EEEENSt9enable_ifIXsrNS_13__is_durationIT_EE5valueES8_E4typeERKNS1_IT0_T1_EE
FNDA:2,_ZNSt6chrono13duration_castINS_8durationIxSt5ratioILx1ELx1EEEExS2_ILx1ELx1000EEEENSt9enable_ifIXsrNS_13__is_durationIT_EE5valueES8_E4typeERKNS1_IT0_T1_EE
FN:275,_ZNSt6chrono13duration_castINS_8durationIxSt5ratioILx1ELx1000000000EEEExS2_ILx1ELx1000EEEENSt9enable_ifIXsrNS_13__is_durationIT_EE5valueES8_E4typeERKNS1_IT0_T1_EE
FNDA:2,_ZNSt6chrono13duration_castINS_8durationIxSt5ratioILx1ELx1000000000EEEExS2_ILx1ELx1000EEEENSt9enable_ifIXsrNS_13__is_durationIT_EE5valueES8_E4typeERKNS1_IT0_T1_EE
FN:498,_ZNSt6chrono15duration_valuesIdE4zeroEv
FNDA:2,_ZNSt6chrono15duration_valuesIdE4zeroEv
FN:498,_ZNSt6chrono15duration_valuesIxE4zeroEv
FNDA:6,_ZNSt6chrono15duration_valuesIxE4zeroEv
FN:573,_ZNSt6chrono8durationIdSt5ratioILx1ELx1EEEC1IdvEERKT_
FNDA:4,_ZNSt6chrono8durationIdSt5ratioILx1ELx1EEEC1IdvEERKT_
FN:573,_ZNSt6chrono8durationIxSt5ratioILx1ELx1000000000EEEC1IxvEERKT_
FNDA:50,_ZNSt6chrono8durationIxSt5ratioILx1ELx1000000000EEEC1IxvEERKT_
FN:573,_ZNSt6chrono8durationIxSt5ratioILx1ELx1000EEEC1IxvEERKT_
FNDA:34,_ZNSt6chrono8durationIxSt5ratioILx1ELx1000EEEC1IxvEERKT_
FN:573,_ZNSt6chrono8durationIxSt5ratioILx1ELx1000EEEC1IivEERKT_
FNDA:2,_ZNSt6chrono8durationIxSt5ratioILx1ELx1000EEEC1IivEERKT_
FN:573,_ZNSt6chrono8durationIxSt5ratioILx1ELx1EEEC1IxvEERKT_
FNDA:16,_ZNSt6chrono8durationIxSt5ratioILx1ELx1EEEC1IxvEERKT_
FN:581,_ZNSt6chrono8durationIxSt5ratioILx1ELx1000EEEC1IxS1_ILx1ELx1EEvEERKNS0_IT_T0_EE
FNDA:2,_ZNSt6chrono8durationIxSt5ratioILx1ELx1000EEEC1IxS1_ILx1ELx1EEvEERKNS0_IT_T0_EE
FN:589,_ZNKSt6chrono8durationIxSt5ratioILx1ELx1000EEE5countEv
FNDA:42,_ZNKSt6chrono8durationIxSt5ratioILx1ELx1000EEE5countEv
FN:589,_ZNKSt6chrono8durationIxSt5ratioILx1ELx1000000000EEE5countEv
FNDA:92,_ZNKSt6chrono8durationIxSt5ratioILx1ELx1000000000EEE5countEv
FN:589,_ZNKSt6chrono8durationIxSt5ratioILx1ELx1EEE5countEv
FNDA:18,_ZNKSt6chrono8durationIxSt5ratioILx1ELx1EEE5countEv
FN:673,_ZNSt6chrono8durationIxSt5ratioILx1ELx1000000000EEE4zeroEv
FNDA:4,_ZNSt6chrono8durationIxSt5ratioILx1ELx1000000000EEE4zeroEv
FN:673,_ZNSt6chrono8durationIdSt5ratioILx1ELx1EEE4zeroEv
FNDA:2,_ZNSt6chrono8durationIdSt5ratioILx1ELx1EEE4zeroEv
FN:673,_ZNSt6chrono8durationIxSt5ratioILx1ELx1000EEE4zeroEv
FNDA:2,_ZNSt6chrono8durationIxSt5ratioILx1ELx1000EEE4zeroEv
FN:710,_ZNSt6chronomiIxSt5ratioILx1ELx1000EExS1_ILx1ELx1EEEENSt11common_typeIJNS_8durationIT_T0_EENS5_IT1_T2_EEEE4typeERKS8_RKSB_
FNDA:2,_ZNSt6chronomiIxSt5ratioILx1ELx1000EExS1_ILx1ELx1EEEENSt11common_typeIJNS_8durationIT_T0_EENS5_IT1_T2_EEEE4typeERKS8_RKSB_
FN:822,_ZNSt6chronoltIxSt5ratioILx1ELx1000EExS2_EEbRKNS_8durationIT_T0_EERKNS3_IT1_T2_EE
FNDA:2,_ZNSt6chronoltIxSt5ratioILx1ELx1000EExS2_EEbRKNS_8durationIT_T0_EERKNS3_IT1_T2_EE
FN:855,_ZNSt6chronoleIxSt5ratioILx1ELx1000EExS2_EEbRKNS_8durationIT_T0_EERKNS3_IT1_T2_EE
FNDA:2,_ZNSt6chronoleIxSt5ratioILx1ELx1000EExS2_EEbRKNS_8durationIT_T0_EERKNS3_IT1_T2_EE
FN:933,_ZNSt6chrono10time_pointINS_3_V212system_clockENS_8durationIxSt5ratioILx1ELx1000000000EEEEEC1Ev
FNDA:4,_ZNSt6chrono10time_pointINS_3_V212system_clockENS_8durationIxSt5ratioILx1ELx1000000000EEEEEC1Ev
FNF:24
FNH:24
DA:210,2
DA:213,4
DA:214,2
DA:223,2
DA:226,4
DA:227,2
DA:223,2
DA:226,4
DA:227,2
DA:275,2
DA:289,2
DA:275,2
DA:289,2
DA:275,2
DA:289,2
DA:498,2
DA:499,2
DA:498,6
DA:499,6
DA:573,4
DA:574,4
DA:573,34
DA:574,34
DA:573,2
DA:574,2
DA:573,16
DA:574,16
DA:573,50
DA:574,50
DA:581,2
DA:582,2
DA:589,42
DA:590,42
DA:589,18
DA:590,18
DA:589,92
DA:590,92
DA:673,2
DA:674,2
DA:673,2
DA:674,2
DA:673,4
DA:674,4
DA:710,2
DA:716,2
DA:822,2
DA:828,2
DA:855,2
DA:857,2
DA:933,4
DA:934,4
LF:51
LH:51
end_of_record
SF:C:\workspace\matrixGenerator\build\_deps\googletest-src\googletest\include\gtest\internal\gtest-internal.h
FN:435,_ZN7testing8internal9GetTypeIdI20TimeMeasurementsTestEEPKvv
FNDA:2,_ZN7testing8internal9GetTypeIdI20TimeMeasurementsTestEEPKvv
FN:454,_ZN7testing8internal15TestFactoryBaseD2Ev
FNDA:0,_ZN7testing8internal15TestFactoryBaseD2Ev
FN:461,_ZN7testing8internal15TestFactoryBaseC2Ev
FNDA:0,_ZN7testing8internal15TestFactoryBaseC2Ev
FN:472,_ZN7testing8internal15TestFactoryImplI41TimeMeasurementsTest_MeasureTimeTest_TestE10CreateTestEv
FNDA:1,_ZN7testing8internal15TestFactoryImplI41TimeMeasurementsTest_MeasureTimeTest_TestE10CreateTestEv
FN:472,_ZN7testing8internal15TestFactoryImplI39TimeMeasurementsTest_TimeValueTest_TestE10CreateTestEv
FNDA:1,_ZN7testing8internal15TestFactoryImplI39TimeMeasurementsTest_TimeValueTest_TestE10CreateTestEv
FN:493,_ZN7testing8internal12CodeLocationC1ERKNSt7__cxx1112basic_stringIcSt11char_traitsIcESaIcEEEi
FNDA:0,_ZN7testing8internal12CodeLocationC1ERKNSt7__cxx1112basic_stringIcSt11char_traitsIcESaIcEEEi
FN:506,_ZN7testing8internal19GetNotDefaultOrNullEPFvvES2_
FNDA:0,_ZN7testing8internal19GetNotDefaultOrNullEPFvvES2_
FN:521,_ZN7testing8internal16SuiteApiResolverI20TimeMeasurementsTestE19GetSetUpCaseOrSuiteEPKci
FNDA:2,_ZN7testing8internal16SuiteApiResolverI20TimeMeasurementsTestE19GetSetUpCaseOrSuiteEPKci
FN:542,_ZN7testing8internal16SuiteApiResolverI20TimeMeasurementsTestE22GetTearDownCaseOrSuiteEPKci
FNDA:2,_ZN7testing8internal16SuiteApiResolverI20TimeMeasurementsTestE22GetTearDownCaseOrSuiteEPKci
FNF:9
FNH:5
DA:435,2
DA:440,2
DA:454,0
DA:461,0
DA:472,1
DA:472,1
DA:493,0
DA:494,0
DA:506,0
DA:508,0
DA:521,2
DA:525,2
DA:527,2
DA:529,2
DA:532,0
DA:534,2
DA:542,2
DA:546,2
DA:548,2
DA:550,2
DA:553,0
DA:555,2
LF:22
LH:14
end_of_record
SF:C:\msys64\mingw64\include\c++\14.1.0\bits\this_thread_sleep.h
FN:68,_ZNSt11this_thread9sleep_forIxSt5ratioILx1ELx1000EEEEvRKNSt6chrono8durationIT_T0_EE
FNDA:2,_ZNSt11this_thread9sleep_forIxSt5ratioILx1ELx1000EEEEvRKNSt6chrono8durationIT_T0_EE
FNF:1
FNH:1
DA:68,2
DA:70,2
DA:71,0
DA:72,2
DA:73,2
DA:75,4
DA:77,2
DA:78,2
DA:80,2
LF:9
LH:8
end_of_record
SF:C:\msys64\mingw64\include\c++\14.1.0\bits\basic_string.h
DA:360,0
LF:1
LH:0
end_of_record
SF:C:\msys64\mingw64\include\c++\14.1.0\bits\allocator.h
LF:0
LH:0
end_of_record
SF:C:\msys64\mingw64\include\c++\14.1.0\bits\new_allocator.h
FN:104,_ZNSt15__new_allocatorIcED2Ev
FNDA:0,_ZNSt15__new_allocatorIcED2Ev
FNF:1
FNH:0
DA:104,0
LF:1
LH:0
end_of_record
SF:C:\msys64\mingw64\include\c++\14.1.0\bits\char_traits.h
FN:385,_ZNSt11char_traitsIcE6lengthEPKc
FNDA:0,_ZNSt11char_traitsIcE6lengthEPKc
FNF:1
FNH:0
DA:385,0
DA:391,0
LF:2
LH:0
end_of_record
TN:
SF:C:\workspace\matrixGenerator\include\PrintRandomNumbers.hpp
FN:13,_ZN18PrintRandomNumbersD1Ev
FNDA:1,_ZN18PrintRandomNumbersD1Ev
FNF:1
FNH:1
DA:13,1
LF:1
LH:1
end_of_record
SF:C:\workspace\matrixGenerator\source\main.cpp
FN:6,main
FNDA:1,main
FNF:1
FNH:1
DA:6,1
DA:8,1
DA:9,1
DA:11,1
DA:12,1
DA:16,1
DA:18,0
DA:20,0
DA:21,0
DA:23,1
DA:25,1
DA:26,1
DA:30,1
DA:32,0
DA:34,0
DA:35,0
DA:37,1
DA:41,1
DA:43,0
DA:45,0
DA:46,0
DA:48,1
DA:50,1
DA:52,1
DA:54,1
DA:56,1
DA:57,1
LF:27
LH:18
end_of_record
SF:C:\workspace\matrixGenerator\include\RandomGenerator.hpp
FN:11,_ZN15RandomGeneratorD1Ev
FNDA:1,_ZN15RandomGeneratorD1Ev
FNF:1
FNH:1
DA:11,1
LF:1
LH:1
end_of_record
SF:C:\workspace\matrixGenerator\include\RandomGeneratorAbstract.hpp
FN:8,_ZN23RandomGeneratorAbstractD2Ev
FNDA:1,_ZN23RandomGeneratorAbstractD2Ev
FNF:1
FNH:1
DA:8,1
LF:1
LH:1
end_of_record
SF:C:\msys64\mingw64\include\c++\14.1.0\bits\alloc_traits.h
DA:513,1
DA:944,1
DA:945,1
LF:3
LH:3
end_of_record
SF:C:\msys64\mingw64\include\c++\14.1.0\bits\stl_vector.h
FN:300,_ZNSt12_Vector_baseIiSaIiEE19_M_get_Tp_allocatorEv
FNDA:15,_ZNSt12_Vector_baseIiSaIiEE19_M_get_Tp_allocatorEv
FN:366,_ZNSt12_Vector_baseIiSaIiEED2Ev
FNDA:1,_ZNSt12_Vector_baseIiSaIiEED2Ev
FN:385,_ZNSt12_Vector_baseIiSaIiEE13_M_deallocateEPiy
FNDA:1,_ZNSt12_Vector_baseIiSaIiEE13_M_deallocateEPiy
FN:733,_ZNSt6vectorIiSaIiEED1Ev
FNDA:1,_ZNSt6vectorIiSaIiEED1Ev
FNF:4
FNH:4
DA:300,15
DA:301,15
DA:366,1
DA:368,1
DA:369,1
DA:370,1
DA:385,1
DA:388,1
DA:389,1
DA:390,1
DA:733,1
DA:735,1
DA:736,1
DA:738,1
LF:14
LH:14
end_of_record
SF:C:\msys64\mingw64\include\c++\14.1.0\bits\new_allocator.h
FN:104,_ZNSt15__new_allocatorIiED2Ev
FNDA:1,_ZNSt15__new_allocatorIiED2Ev
FN:156,_ZNSt15__new_allocatorIiE10deallocateEPiy
FNDA:14,_ZNSt15__new_allocatorIiE10deallocateEPiy
FNF:2
FNH:2
DA:104,1
DA:156,14
DA:172,14
DA:173,14
LF:4
LH:4
end_of_record
SF:C:\msys64\mingw64\include\c++\14.1.0\bits\allocator.h
LF:0
LH:0
end_of_record
SF:C:\msys64\mingw64\include\c++\14.1.0\bits\stl_construct.h
FN:172,_ZNSt12_Destroy_auxILb1EE9__destroyIPiEEvT_S3_
FNDA:1,_ZNSt12_Destroy_auxILb1EE9__destroyIPiEEvT_S3_
FN:182,_ZSt8_DestroyIPiEvT_S1_
FNDA:1,_ZSt8_DestroyIPiEvT_S1_
FNF:2
FNH:2
DA:172,1
DA:182,1
DA:196,1
DA:197,1
LF:4
LH:4
end_of_record
TN:
SF:C:\msys64\mingw64\include\c++\14.1.0\bits\stl_construct.h
FN:109,_ZSt10_ConstructISt10shared_ptrIN7testing8internal26ThreadLocalValueHolderBaseEEJS4_EEvPT_DpOT0_
FNDA:0,_ZSt10_ConstructISt10shared_ptrIN7testing8internal26ThreadLocalValueHolderBaseEEJS4_EEvPT_DpOT0_
FN:109,_ZSt10_ConstructIN7testing8internal9TraceInfoEJS2_EEvPT_DpOT0_
FNDA:0,_ZSt10_ConstructIN7testing8internal9TraceInfoEJS2_EEvPT_DpOT0_
FN:109,_ZSt10_ConstructINSt7__cxx1112basic_stringIcSt11char_traitsIcESaIcEEEJRKPKcEEvPT_DpOT0_
FNDA:852,_ZSt10_ConstructINSt7__cxx1112basic_stringIcSt11char_traitsIcESaIcEEEJRKPKcEEvPT_DpOT0_
FN:109,_ZSt10_ConstructIN7testing12TestPropertyEJS1_EEvPT_DpOT0_
FNDA:0,_ZSt10_ConstructIN7testing12TestPropertyEJS1_EEvPT_DpOT0_
FN:109,_ZSt10_ConstructIN7testing14TestPartResultEJS1_EEvPT_DpOT0_
FNDA:0,_ZSt10_ConstructIN7testing14TestPartResultEJS1_EEvPT_DpOT0_
FN:109,_ZSt10_ConstructISt6vectorIN7testing8internal13edit_distance8EditTypeESaIS4_EEJRKS6_EEvPT_DpOT0_
FNDA:0,_ZSt10_ConstructISt6vectorIN7testing8internal13edit_distance8EditTypeESaIS4_EEJRKS6_EEvPT_DpOT0_
FN:109,_ZSt10_ConstructISt6vectorIdSaIdEEJRKS2_EEvPT_DpOT0_
FNDA:0,_ZSt10_ConstructISt6vectorIdSaIdEEJRKS2_EEvPT_DpOT0_
FN:109,_ZSt10_ConstructINSt7__cxx1112basic_stringIcSt11char_traitsIcESaIcEEEJS5_EEvPT_DpOT0_
FNDA:0,_ZSt10_ConstructINSt7__cxx1112basic_stringIcSt11char_traitsIcESaIcEEEJS5_EEvPT_DpOT0_
FN:109,_ZSt10_ConstructIN7testing8internal13edit_distance8EditTypeEJEEvPT_DpOT0_
FNDA:0,_ZSt10_ConstructIN7testing8internal13edit_distance8EditTypeEJEEvPT_DpOT0_
FN:109,_ZSt10_ConstructIdJEEvPT_DpOT0_
FNDA:0,_ZSt10_ConstructIdJEEvPT_DpOT0_
FN:109,_ZSt10_ConstructINSt7__cxx1112basic_stringIcSt11char_traitsIcESaIcEEEJRKS5_EEvPT_DpOT0_
FNDA:2,_ZSt10_ConstructINSt7__cxx1112basic_stringIcSt11char_traitsIcESaIcEEEJRKS5_EEvPT_DpOT0_
FN:146,_ZSt8_DestroyIN7testing12TestPropertyEEvPT_
FNDA:0,_ZSt8_DestroyIN7testing12TestPropertyEEvPT_
FN:146,_ZSt8_DestroyIN7testing14TestPartResultEEvPT_
FNDA:0,_ZSt8_DestroyIN7testing14TestPartResultEEvPT_
FN:146,_ZSt8_DestroyINSt7__cxx1112basic_stringIcSt11char_traitsIcESaIcEEEEvPT_
FNDA:854,_ZSt8_DestroyINSt7__cxx1112basic_stringIcSt11char_traitsIcESaIcEEEEvPT_
FN:146,_ZSt8_DestroyISt6vectorIdSaIdEEEvPT_
FNDA:0,_ZSt8_DestroyISt6vectorIdSaIdEEEvPT_
FN:146,_ZSt8_DestroyISt6vectorIN7testing8internal13edit_distance8EditTypeESaIS4_EEEvPT_
FNDA:0,_ZSt8_DestroyISt6vectorIN7testing8internal13edit_distance8EditTypeESaIS4_EEEvPT_
FN:146,_ZSt8_DestroyISt10shared_ptrIN7testing8internal26ThreadLocalValueHolderBaseEEEvPT_
FNDA:0,_ZSt8_DestroyISt10shared_ptrIN7testing8internal26ThreadLocalValueHolderBaseEEEvPT_
FN:146,_ZSt8_DestroyIN7testing8internal9TraceInfoEEvPT_
FNDA:0,_ZSt8_DestroyIN7testing8internal9TraceInfoEEvPT_
FN:160,_ZNSt12_Destroy_auxILb0EE9__destroyIPN7testing8internal9TraceInfoEEEvT_S6_
FNDA:0,_ZNSt12_Destroy_auxILb0EE9__destroyIPN7testing8internal9TraceInfoEEEvT_S6_
FN:160,_ZNSt12_Destroy_auxILb0EE9__destroyIPSt10shared_ptrIN7testing8internal26ThreadLocalValueHolderBaseEEEEvT_S8_
FNDA:0,_ZNSt12_Destroy_auxILb0EE9__destroyIPSt10shared_ptrIN7testing8internal26ThreadLocalValueHolderBaseEEEEvT_S8_
FN:160,_ZNSt12_Destroy_auxILb0EE9__destroyIPN7testing14TestPartResultEEEvT_S5_
FNDA:0,_ZNSt12_Destroy_auxILb0EE9__destroyIPN7testing14TestPartResultEEEvT_S5_
FN:160,_ZNSt12_Destroy_auxILb0EE9__destroyIPNSt7__cxx1112basic_stringIcSt11char_traitsIcESaIcEEEEEvT_S9_
FNDA:95,_ZNSt12_Destroy_auxILb0EE9__destroyIPNSt7__cxx1112basic_stringIcSt11char_traitsIcESaIcEEEEEvT_S9_
FN:160,_ZNSt12_Destroy_auxILb0EE9__destroyIPSt6vectorIdSaIdEEEEvT_S6_
FNDA:0,_ZNSt12_Destroy_auxILb0EE9__destroyIPSt6vectorIdSaIdEEEEvT_S6_
FN:160,_ZNSt12_Destroy_auxILb0EE9__destroyIPN7testing12TestPropertyEEEvT_S5_
FNDA:0,_ZNSt12_Destroy_auxILb0EE9__destroyIPN7testing12TestPropertyEEEvT_S5_
FN:160,_ZNSt12_Destroy_auxILb0EE9__destroyIPSt6vectorIN7testing8internal13edit_distance8EditTypeESaIS6_EEEEvT_SA_
FNDA:0,_ZNSt12_Destroy_auxILb0EE9__destroyIPSt6vectorIN7testing8internal13edit_distance8EditTypeESaIS6_EEEEvT_SA_
FN:172,_ZNSt12_Destroy_auxILb1EE9__destroyIPPN7testing8TestInfoEEEvT_S6_
FNDA:0,_ZNSt12_Destroy_auxILb1EE9__destroyIPPN7testing8TestInfoEEEvT_S6_
FN:172,_ZNSt12_Destroy_auxILb1EE9__destroyIPPN7testing8internal30ParameterizedTestSuiteInfoBaseEEEvT_S7_
FNDA:0,_ZNSt12_Destroy_auxILb1EE9__destroyIPPN7testing8internal30ParameterizedTestSuiteInfoBaseEEEvT_S7_
FN:172,_ZNSt12_Destroy_auxILb1EE9__destroyIPdEEvT_S3_
FNDA:0,_ZNSt12_Destroy_auxILb1EE9__destroyIPdEEvT_S3_
FN:172,_ZNSt12_Destroy_auxILb1EE9__destroyIPN7testing8internal13edit_distance8EditTypeEEEvT_S7_
FNDA:0,_ZNSt12_Destroy_auxILb1EE9__destroyIPN7testing8internal13edit_distance8EditTypeEEEvT_S7_
FN:172,_ZNSt12_Destroy_auxILb1EE9__destroyIPiEEvT_S3_
FNDA:0,_ZNSt12_Destroy_auxILb1EE9__destroyIPiEEvT_S3_
FN:172,_ZNSt12_Destroy_auxILb1EE9__destroyIPPN7testing17TestEventListenerEEEvT_S6_
FNDA:0,_ZNSt12_Destroy_auxILb1EE9__destroyIPPN7testing17TestEventListenerEEEvT_S6_
FN:172,_ZNSt12_Destroy_auxILb1EE9__destroyIPyEEvT_S3_
FNDA:0,_ZNSt12_Destroy_auxILb1EE9__destroyIPyEEvT_S3_
FN:172,_ZNSt12_Destroy_auxILb1EE9__destroyIPPN7testing11EnvironmentEEEvT_S6_
FNDA:0,_ZNSt12_Destroy_auxILb1EE9__destroyIPPN7testing11EnvironmentEEEvT_S6_
FN:172,_ZNSt12_Destroy_auxILb1EE9__destroyIPPN7testing9TestSuiteEEEvT_S6_
FNDA:0,_ZNSt12_Destroy_auxILb1EE9__destroyIPPN7testing9TestSuiteEEEvT_S6_
FN:182,_ZSt8_DestroyIPN7testing14TestPartResultEEvT_S3_
FNDA:0,_ZSt8_DestroyIPN7testing14TestPartResultEEvT_S3_
FN:182,_ZSt8_DestroyIPPN7testing8internal30ParameterizedTestSuiteInfoBaseEEvT_S5_
FNDA:0,_ZSt8_DestroyIPPN7testing8internal30ParameterizedTestSuiteInfoBaseEEvT_S5_
FN:182,_ZSt8_DestroyIPNSt7__cxx1112basic_stringIcSt11char_traitsIcESaIcEEEEvT_S7_
FNDA:95,_ZSt8_DestroyIPNSt7__cxx1112basic_stringIcSt11char_traitsIcESaIcEEEEvT_S7_
FN:182,_ZSt8_DestroyIPdEvT_S1_
FNDA:0,_ZSt8_DestroyIPdEvT_S1_
FN:182,_ZSt8_DestroyIPSt6vectorIdSaIdEEEvT_S4_
FNDA:0,_ZSt8_DestroyIPSt6vectorIdSaIdEEEvT_S4_
FN:182,_ZSt8_DestroyIPN7testing8internal13edit_distance8EditTypeEEvT_S5_
FNDA:0,_ZSt8_DestroyIPN7testing8internal13edit_distance8EditTypeEEvT_S5_
FN:182,_ZSt8_DestroyIPSt6vectorIN7testing8internal13edit_distance8EditTypeESaIS4_EEEvT_S8_
FNDA:0,_ZSt8_DestroyIPSt6vectorIN7testing8internal13edit_distance8EditTypeESaIS4_EEEvT_S8_
FN:182,_ZSt8_DestroyIPyEvT_S1_
FNDA:0,_ZSt8_DestroyIPyEvT_S1_
FN:182,_ZSt8_DestroyIPN7testing12TestPropertyEEvT_S3_
FNDA:0,_ZSt8_DestroyIPN7testing12TestPropertyEEvT_S3_
FN:182,_ZSt8_DestroyIPPN7testing8TestInfoEEvT_S4_
FNDA:0,_ZSt8_DestroyIPPN7testing8TestInfoEEvT_S4_
FN:182,_ZSt8_DestroyIPiEvT_S1_
FNDA:0,_ZSt8_DestroyIPiEvT_S1_
FN:182,_ZSt8_DestroyIPPN7testing17TestEventListenerEEvT_S4_
FNDA:0,_ZSt8_DestroyIPPN7testing17TestEventListenerEEvT_S4_
FN:182,_ZSt8_DestroyIPPN7testing11EnvironmentEEvT_S4_
FNDA:0,_ZSt8_DestroyIPPN7testing11EnvironmentEEvT_S4_
FN:182,_ZSt8_DestroyIPPN7testing9TestSuiteEEvT_S4_
FNDA:0,_ZSt8_DestroyIPPN7testing9TestSuiteEEvT_S4_
FN:182,_ZSt8_DestroyIPSt10shared_ptrIN7testing8internal26ThreadLocalValueHolderBaseEEEvT_S6_
FNDA:0,_ZSt8_DestroyIPSt10shared_ptrIN7testing8internal26ThreadLocalValueHolderBaseEEEvT_S6_
FN:182,_ZSt8_DestroyIPN7testing8internal9TraceInfoEEvT_S4_
FNDA:0,_ZSt8_DestroyIPN7testing8internal9TraceInfoEEvT_S4_
FNF:50
FNH:5
DA:109,0
DA:119,0
DA:120,0
DA:109,0
DA:119,0
DA:120,0
DA:109,0
DA:119,0
DA:120,0
DA:109,852
DA:119,1704
DA:120,852
DA:109,0
DA:119,0
DA:120,0
DA:109,0
DA:119,0
DA:120,0
DA:109,0
DA:119,0
DA:120,0
DA:109,0
DA:119,0
DA:120,0
DA:109,0
DA:119,0
DA:120,0
DA:109,0
DA:119,0
DA:120,0
DA:109,2
DA:119,2
DA:120,2
DA:146,0
DA:151,0
DA:153,0
DA:146,0
DA:151,0
DA:153,0
DA:146,0
DA:151,0
DA:153,0
DA:146,0
DA:151,0
DA:153,0
DA:146,0
DA:151,0
DA:153,0
DA:146,854
DA:151,854
DA:153,854
DA:146,0
DA:151,0
DA:153,0
DA:160,0
DA:162,0
DA:163,0
DA:164,0
DA:160,0
DA:162,0
DA:163,0
DA:164,0
DA:160,0
DA:162,0
DA:163,0
DA:164,0
DA:160,0
DA:162,0
DA:163,0
DA:164,0
DA:160,0
DA:162,0
DA:163,0
DA:164,0
DA:160,95
DA:162,949
DA:163,854
DA:164,95
DA:160,0
DA:162,0
DA:163,0
DA:164,0
DA:172,0
DA:172,0
DA:172,0
DA:172,0
DA:172,0
DA:172,0
DA:172,0
DA:172,0
DA:172,0
DA:182,0
DA:196,0
DA:197,0
DA:182,0
DA:196,0
DA:197,0
DA:182,0
DA:196,0
DA:197,0
DA:182,0
DA:196,0
DA:197,0
DA:182,0
DA:196,0
DA:197,0
DA:182,0
DA:196,0
DA:197,0
DA:182,0
DA:196,0
DA:197,0
DA:182,0
DA:196,0
DA:197,0
DA:182,0
DA:196,0
DA:197,0
DA:182,0
DA:196,0
DA:197,0
DA:182,0
DA:196,0
DA:197,0
DA:182,0
DA:196,0
DA:197,0
DA:182,0
DA:196,0
DA:197,0
DA:182,95
DA:196,95
DA:197,95
DA:182,0
DA:196,0
DA:197,0
DA:182,0
DA:196,0
DA:197,0
LF:139
LH:16
end_of_record
SF:C:\msys64\mingw64\include\stdio.h
FN:357,_Z7fprintfP6_iobufPKcz
FNDA:1,_Z7fprintfP6_iobufPKcz
FN:368,_Z6printfPKcz
FNDA:56,_Z6printfPKcz
FN:418,_Z7vprintfPKcPc
FNDA:31,_Z7vprintfPKcPc
FN:455,_Z8snprintfPcyPKcz
FNDA:0,_Z8snprintfPcyPKcz
FNF:4
FNH:3
DA:357,1
DA:360,1
DA:361,1
DA:362,1
DA:363,1
DA:368,56
DA:371,56
DA:372,56
DA:373,56
DA:374,56
DA:418,31
DA:420,31
DA:455,0
DA:458,0
DA:459,0
DA:460,0
DA:461,0
LF:17
LH:12
end_of_record
SF:C:\workspace\matrixGenerator\build\_deps\googletest-src\googletest\src\gtest-internal-inl.h
FN:133,_ZN7testing8internal21GetRandomSeedFromFlagEi
FNDA:0,_ZN7testing8internal21GetRandomSeedFromFlagEi
FN:149,_ZN7testing8internal17GetNextRandomSeedEi
FNDA:0,_ZN7testing8internal17GetNextRandomSeedEi
FN:162,_ZN7testing8internal14GTestFlagSaverC1Ev
FNDA:9,_ZN7testing8internal14GTestFlagSaverC1Ev
FN:186,_ZN7testing8internal14GTestFlagSaverD1Ev
FNDA:9,_ZN7testing8internal14GTestFlagSaverD1Ev
FN:289,_ZN7testing8internal7CountIfISt6vectorIPNS_9TestSuiteESaIS4_EEPFbPKS3_EEEiRKT_T0_
FNDA:4,_ZN7testing8internal7CountIfISt6vectorIPNS_9TestSuiteESaIS4_EEPFbPKS3_EEEiRKT_T0_
FN:289,_ZN7testing8internal7CountIfISt6vectorINS_14TestPartResultESaIS3_EEPFbRKS3_EEEiRKT_T0_
FNDA:83,_ZN7testing8internal7CountIfISt6vectorINS_14TestPartResultESaIS3_EEPFbRKS3_EEEiRKT_T0_
FN:289,_ZN7testing8internal7CountIfISt6vectorIPNS_8TestInfoESaIS4_EEPFbPKS3_EEEiRKT_T0_
FNDA:68,_ZN7testing8internal7CountIfISt6vectorIPNS_8TestInfoESaIS4_EEPFbPKS3_EEEiRKT_T0_
FN:302,_ZN7testing8internal7ForEachISt6vectorIPNS_8TestInfoESaIS4_EEPFvS4_EEEvRKT_T0_
FNDA:4,_ZN7testing8internal7ForEachISt6vectorIPNS_8TestInfoESaIS4_EEPFvS4_EEEvRKT_T0_
FN:302,_ZN7testing8internal7ForEachISt6vectorIPNS_9TestSuiteESaIS4_EEPFvS4_EEEvRKT_T0_
FNDA:1,_ZN7testing8internal7ForEachISt6vectorIPNS_9TestSuiteESaIS4_EEPFvS4_EEEvRKT_T0_
FN:302,_ZN7testing8internal7ForEachISt6vectorIPNS_17TestEventListenerESaIS4_EEPFvS4_EEEvRKT_T0_
FNDA:0,_ZN7testing8internal7ForEachISt6vectorIPNS_17TestEventListenerESaIS4_EEPFvS4_EEEvRKT_T0_
FN:302,_ZN7testing8internal7ForEachISt6vectorIPNS_11EnvironmentESaIS4_EEPFvS4_EEEvRKT_T0_
FNDA:1,_ZN7testing8internal7ForEachISt6vectorIPNS_11EnvironmentESaIS4_EEPFvS4_EEEvRKT_T0_
FN:309,_ZN7testing8internal12GetElementOrIiEET_RKSt6vectorIS2_SaIS2_EEiS2_
FNDA:39,_ZN7testing8internal12GetElementOrIiEET_RKSt6vectorIS2_SaIS2_EEiS2_
FN:319,_ZN7testing8internal12ShuffleRangeIiEEvPNS0_6RandomEiiPSt6vectorIT_SaIS5_EE
FNDA:0,_ZN7testing8internal12ShuffleRangeIiEEvPNS0_6RandomEiiPSt6vectorIT_SaIS5_EE
FN:343,_ZN7testing8internal7ShuffleIiEEvPNS0_6RandomEPSt6vectorIT_SaIS5_EE
FNDA:0,_ZN7testing8internal7ShuffleIiEEvPNS0_6RandomEPSt6vectorIT_SaIS5_EE
FN:350,_ZN7testing8internalL6DeleteINS_8TestInfoEEEvPT_
FNDA:0,_ZN7testing8internalL6DeleteINS_8TestInfoEEEvPT_
FN:350,_ZN7testing8internalL6DeleteINS_17TestEventListenerEEEvPT_
FNDA:0,_ZN7testing8internalL6DeleteINS_17TestEventListenerEEEvPT_
FN:350,_ZN7testing8internalL6DeleteINS_9TestSuiteEEEvPT_
FNDA:0,_ZN7testing8internalL6DeleteINS_9TestSuiteEEEvPT_
FN:350,_ZN7testing8internalL6DeleteINS_11EnvironmentEEEvPT_
FNDA:0,_ZN7testing8internalL6DeleteINS_11EnvironmentEEEvPT_
FN:362,_ZN7testing8internal17TestPropertyKeyIsC1ERKNSt7__cxx1112basic_stringIcSt11char_traitsIcESaIcEEE
FNDA:0,_ZN7testing8internal17TestPropertyKeyIsC1ERKNSt7__cxx1112basic_stringIcSt11char_traitsIcESaIcEEE
FN:365,_ZNK7testing8internal17TestPropertyKeyIsclERKNS_12TestPropertyE
FNDA:0,_ZNK7testing8internal17TestPropertyKeyIsclERKNS_12TestPropertyE
FN:423,_ZN7testing8internal27OsStackTraceGetterInterfaceC2Ev
FNDA:1,_ZN7testing8internal27OsStackTraceGetterInterfaceC2Ev
FN:424,_ZN7testing8internal27OsStackTraceGetterInterfaceD2Ev
FNDA:0,_ZN7testing8internal27OsStackTraceGetterInterfaceD2Ev
FN:450,_ZN7testing8internal18OsStackTraceGetterC1Ev
FNDA:1,_ZN7testing8internal18OsStackTraceGetterC1Ev
FN:577,_ZNK7testing8internal12UnitTestImpl15start_timestampEv
FNDA:1,_ZNK7testing8internal12UnitTestImpl15start_timestampEv
FN:580,_ZNK7testing8internal12UnitTestImpl12elapsed_timeEv
FNDA:2,_ZNK7testing8internal12UnitTestImpl12elapsed_timeEv
FN:584,_ZNK7testing8internal12UnitTestImpl6PassedEv
FNDA:2,_ZNK7testing8internal12UnitTestImpl6PassedEv
FN:588,_ZNK7testing8internal12UnitTestImpl6FailedEv
FNDA:2,_ZNK7testing8internal12UnitTestImpl6FailedEv
FN:594,_ZNK7testing8internal12UnitTestImpl12GetTestSuiteEi
FNDA:8,_ZNK7testing8internal12UnitTestImpl12GetTestSuiteEi
FN:601,_ZNK7testing8internal12UnitTestImpl11GetTestCaseEi
FNDA:0,_ZNK7testing8internal12UnitTestImpl11GetTestCaseEi
FN:606,_ZN7testing8internal12UnitTestImpl19GetMutableSuiteCaseEi
FNDA:4,_ZN7testing8internal12UnitTestImpl19GetMutableSuiteCaseEi
FN:612,_ZN7testing8internal12UnitTestImpl9listenersEv
FNDA:16,_ZN7testing8internal12UnitTestImpl9listenersEv
FN:619,_ZNK7testing8internal12UnitTestImpl18ad_hoc_test_resultEv
FNDA:4,_ZNK7testing8internal12UnitTestImpl18ad_hoc_test_resultEv
FN:675,_ZN7testing8internal12UnitTestImpl11AddTestInfoEPFvvES3_PNS_8TestInfoE
FNDA:9,_ZN7testing8internal12UnitTestImpl11AddTestInfoEPFvvES3_PNS_8TestInfoE
FN:700,_ZN7testing8internal12UnitTestImpl27parameterized_test_registryEv
FNDA:0,_ZN7testing8internal12UnitTestImpl27parameterized_test_registryEv
FN:704,_ZN7testing8internal12UnitTestImpl33ignored_parameterized_test_suitesB5cxx11Ev
FNDA:1,_ZN7testing8internal12UnitTestImpl33ignored_parameterized_test_suitesB5cxx11Ev
FN:711,_ZN7testing8internal12UnitTestImpl32type_parameterized_test_registryEv
FNDA:0,_ZN7testing8internal12UnitTestImpl32type_parameterized_test_registryEv
FN:716,_ZN7testing8internal12UnitTestImpl22set_current_test_suiteEPNS_9TestSuiteE
FNDA:8,_ZN7testing8internal12UnitTestImpl22set_current_test_suiteEPNS_9TestSuiteE
FN:723,_ZN7testing8internal12UnitTestImpl21set_current_test_infoEPNS_8TestInfoE
FNDA:18,_ZN7testing8internal12UnitTestImpl21set_current_test_infoEPNS_8TestInfoE
FN:742,_ZN7testing8internal12UnitTestImpl23ClearNonAdHocTestResultEv
FNDA:1,_ZN7testing8internal12UnitTestImpl23ClearNonAdHocTestResultEv
FN:773,_ZNK7testing8internal12UnitTestImpl18current_test_suiteEv
FNDA:9,_ZNK7testing8internal12UnitTestImpl18current_test_suiteEv
FN:774,_ZN7testing8internal12UnitTestImpl17current_test_infoEv
FNDA:9,_ZN7testing8internal12UnitTestImpl17current_test_infoEv
FN:775,_ZNK7testing8internal12UnitTestImpl17current_test_infoEv
FNDA:0,_ZNK7testing8internal12UnitTestImpl17current_test_infoEv
FN:779,_ZN7testing8internal12UnitTestImpl12environmentsEv
FNDA:0,_ZN7testing8internal12UnitTestImpl12environmentsEv
FN:782,_ZN7testing8internal12UnitTestImpl17gtest_trace_stackEv
FNDA:0,_ZN7testing8internal12UnitTestImpl17gtest_trace_stackEv
FN:790,_ZN7testing8internal12UnitTestImpl34InitDeathTestSubprocessControlInfoEv
FNDA:1,_ZN7testing8internal12UnitTestImpl34InitDeathTestSubprocessControlInfoEv
FN:797,_ZNK7testing8internal12UnitTestImpl28internal_run_death_test_flagEv
FNDA:0,_ZNK7testing8internal12UnitTestImpl28internal_run_death_test_flagEv
FN:802,_ZN7testing8internal12UnitTestImpl18death_test_factoryEv
FNDA:0,_ZN7testing8internal12UnitTestImpl18death_test_factoryEv
FN:829,_ZNK7testing8internal12UnitTestImpl11random_seedEv
FNDA:0,_ZNK7testing8internal12UnitTestImpl11random_seedEv
FN:832,_ZN7testing8internal12UnitTestImpl6randomEv
FNDA:0,_ZN7testing8internal12UnitTestImpl6randomEv
FN:843,_ZNK7testing8internal12UnitTestImpl16catch_exceptionsEv
FNDA:55,_ZNK7testing8internal12UnitTestImpl16catch_exceptionsEv
FN:850,_ZN7testing8internal12UnitTestImpl20set_catch_exceptionsEb
FNDA:1,_ZN7testing8internal12UnitTestImpl20set_catch_exceptionsEb
FN:971,_ZN7testing8internal15GetUnitTestImplEv
FNDA:133,_ZN7testing8internal15GetUnitTestImplEv
FN:1011,_ZN7testing8internal18ParseNaturalNumberIyEEbRKNSt7__cxx1112basic_stringIcSt11char_traitsIcESaIcEEEPT_
FNDA:0,_ZN7testing8internal18ParseNaturalNumberIyEEbRKNSt7__cxx1112basic_stringIcSt11char_traitsIcESaIcEEEPT_
FN:1011,_ZN7testing8internal18ParseNaturalNumberIiEEbRKNSt7__cxx1112basic_stringIcSt11char_traitsIcESaIcEEEPT_
FNDA:0,_ZN7testing8internal18ParseNaturalNumberIiEEbRKNSt7__cxx1112basic_stringIcSt11char_traitsIcESaIcEEEPT_
FN:1011,_ZN7testing8internal18ParseNaturalNumberIjEEbRKNSt7__cxx1112basic_stringIcSt11char_traitsIcESaIcEEEPT_
FNDA:0,_ZN7testing8internal18ParseNaturalNumberIjEEbRKNSt7__cxx1112basic_stringIcSt11char_traitsIcESaIcEEEPT_
FNF:55
FNH:30
DA:133,0
DA:134,0
DA:135,0
DA:136,0
DA:140,0
DA:141,0
DA:143,0
DA:149,0
DA:150,0
DA:151,0
DA:152,0
DA:153,0
DA:154,0
DA:162,9
DA:163,9
DA:164,9
DA:165,9
DA:166,9
DA:167,9
DA:168,9
DA:169,9
DA:170,9
DA:171,9
DA:172,9
DA:173,9
DA:174,9
DA:175,9
DA:176,9
DA:177,9
DA:178,9
DA:179,9
DA:180,9
DA:181,9
DA:182,9
DA:183,9
DA:186,9
DA:187,9
DA:188,9
DA:189,9
DA:190,9
DA:191,9
DA:192,9
DA:193,9
DA:194,9
DA:195,9
DA:196,9
DA:197,9
DA:198,9
DA:199,9
DA:200,9
DA:201,9
DA:202,9
DA:203,9
DA:204,9
DA:205,9
DA:206,9
DA:207,9
DA:289,68
DA:292,68
DA:293,221
DA:294,153
DA:295,72
DA:297,68
DA:289,83
DA:292,83
DA:293,83
DA:294,0
DA:295,0
DA:297,83
DA:289,4
DA:292,4
DA:293,20
DA:294,16
DA:295,8
DA:297,4
DA:302,1
DA:303,1
DA:304,1
DA:302,0
DA:303,0
DA:304,0
DA:302,4
DA:303,4
DA:304,4
DA:302,1
DA:303,1
DA:304,1
DA:309,39
DA:310,78
DA:311,78
DA:319,0
DA:321,0
DA:322,0
DA:323,0
DA:324,0
DA:325,0
DA:326,0
DA:327,0
DA:331,0
DA:332,0
DA:333,0
DA:335,0
DA:336,0
DA:337,0
DA:339,0
DA:343,0
DA:344,0
DA:345,0
DA:350,0
DA:351,0
DA:352,0
DA:350,0
DA:351,0
DA:352,0
DA:350,0
DA:351,0
DA:352,0
DA:350,0
DA:351,0
DA:352,0
DA:362,0
DA:365,0
DA:366,0
DA:423,1
DA:424,0
DA:450,1
DA:577,1
DA:580,2
DA:584,2
DA:588,2
DA:589,2
DA:594,8
DA:595,8
DA:596,8
DA:601,0
DA:606,4
DA:607,4
DA:608,4
DA:612,16
DA:619,4
DA:675,9
DA:686,9
DA:687,1
DA:688,1
DA:689,0
DA:695,9
DA:696,9
DA:700,0
DA:701,0
DA:704,1
DA:705,1
DA:711,0
DA:712,0
DA:716,8
DA:717,8
DA:718,8
DA:723,18
DA:724,18
DA:725,18
DA:742,1
DA:743,1
DA:744,1
DA:773,9
DA:774,9
DA:775,0
DA:779,0
DA:782,0
DA:783,0
DA:790,1
DA:791,1
DA:792,1
DA:797,0
DA:798,0
DA:802,0
DA:803,0
DA:829,0
DA:832,0
DA:843,55
DA:850,1
DA:971,133
DA:972,133
DA:1011,0
DA:1015,0
DA:1016,0
DA:1018,0
DA:1025,0
DA:1026,0
DA:1028,0
DA:1030,0
DA:1031,0
DA:1032,0
DA:1033,0
DA:1035,0
DA:1011,0
DA:1015,0
DA:1016,0
DA:1018,0
DA:1025,0
DA:1026,0
DA:1028,0
DA:1030,0
DA:1031,0
DA:1032,0
DA:1033,0
DA:1035,0
DA:1011,0
DA:1015,0
DA:1016,0
DA:1018,0
DA:1025,0
DA:1026,0
DA:1028,0
DA:1030,0
DA:1031,0
DA:1032,0
DA:1033,0
DA:1035,0
LF:217
LH:113
end_of_record
SF:C:\workspace\matrixGenerator\build\_deps\googletest-src\googletest\include\gtest\gtest-printers.h
FN:549,_ZN7testing8internal7PrintToERKNSt7__cxx1112basic_stringIcSt11char_traitsIcESaIcEEEPSo
FNDA:0,_ZN7testing8internal7PrintToERKNSt7__cxx1112basic_stringIcSt11char_traitsIcESaIcEEEPSo
FN:576,_ZN7testing8internal7PrintToERKNSt7__cxx1112basic_stringIwSt11char_traitsIwESaIwEEEPSo
FNDA:0,_ZN7testing8internal7PrintToERKNSt7__cxx1112basic_stringIwSt11char_traitsIwESaIwEEEPSo
FN:682,_ZN7testing8internal16UniversalPrinterINSt7__cxx1112basic_stringIwSt11char_traitsIwESaIwEEEE5PrintERKS7_PSo
FNDA:0,_ZN7testing8internal16UniversalPrinterINSt7__cxx1112basic_stringIwSt11char_traitsIwESaIwEEEE5PrintERKS7_PSo
FN:682,_ZN7testing8internal16UniversalPrinterINSt7__cxx1112basic_stringIcSt11char_traitsIcESaIcEEEE5PrintERKS7_PSo
FNDA:0,_ZN7testing8internal16UniversalPrinterINSt7__cxx1112basic_stringIcSt11char_traitsIcESaIcEEEE5PrintERKS7_PSo
FN:885,_ZN7testing8internal21UniversalTersePrinterIPKcE5PrintES3_PSo
FNDA:0,_ZN7testing8internal21UniversalTersePrinterIPKcE5PrintES3_PSo
FN:948,_ZN7testing8internal21UniversalTersePrinterIPKwE5PrintES3_PSo
FNDA:0,_ZN7testing8internal21UniversalTersePrinterIPKwE5PrintES3_PSo
FN:976,_ZN7testing8internal14UniversalPrintINSt7__cxx1112basic_stringIwSt11char_traitsIwESaIwEEEEEvRKT_PSo
FNDA:0,_ZN7testing8internal14UniversalPrintINSt7__cxx1112basic_stringIwSt11char_traitsIwESaIwEEEEEvRKT_PSo
FN:976,_ZN7testing8internal14UniversalPrintINSt7__cxx1112basic_stringIcSt11char_traitsIcESaIcEEEEEvRKT_PSo
FNDA:0,_ZN7testing8internal14UniversalPrintINSt7__cxx1112basic_stringIcSt11char_traitsIcESaIcEEEEEvRKT_PSo
FN:1016,_ZN7testing13PrintToStringIPKwEENSt7__cxx1112basic_stringIcSt11char_traitsIcESaIcEEERKT_
FNDA:0,_ZN7testing13PrintToStringIPKwEENSt7__cxx1112basic_stringIcSt11char_traitsIcESaIcEEERKT_
FN:1016,_ZN7testing13PrintToStringIPKcEENSt7__cxx1112basic_stringIcSt11char_traitsIcESaIcEEERKT_
FNDA:0,_ZN7testing13PrintToStringIPKcEENSt7__cxx1112basic_stringIcSt11char_traitsIcESaIcEEERKT_
FNF:10
FNH:0
DA:549,0
DA:550,0
DA:551,0
DA:576,0
DA:577,0
DA:578,0
DA:682,0
DA:691,0
DA:692,0
DA:682,0
DA:691,0
DA:692,0
DA:885,0
DA:886,0
DA:887,0
DA:889,0
DA:891,0
DA:948,0
DA:949,0
DA:950,0
DA:952,0
DA:954,0
DA:976,0
DA:980,0
DA:981,0
DA:976,0
DA:980,0
DA:981,0
DA:1016,0
DA:1017,0
DA:1018,0
DA:1019,0
DA:1020,0
DA:1016,0
DA:1017,0
DA:1018,0
DA:1019,0
DA:1020,0
LF:38
LH:0
end_of_record
SF:C:\msys64\mingw64\include\c++\14.1.0\bits\stl_set.h
FN:169,_ZNSt3setINSt7__cxx1112basic_stringIcSt11char_traitsIcESaIcEEESt4lessIS5_ESaIS5_EEC1Ev
FNDA:1,_ZNSt3setINSt7__cxx1112basic_stringIcSt11char_traitsIcESaIcEEESt4lessIS5_ESaIS5_EEC1Ev
FN:283,_ZNSt3setINSt7__cxx1112basic_stringIcSt11char_traitsIcESaIcEEESt4lessIS5_ESaIS5_EED1Ev
FNDA:0,_ZNSt3setINSt7__cxx1112basic_stringIcSt11char_traitsIcESaIcEEESt4lessIS5_ESaIS5_EED1Ev
FN:355,_ZNKSt3setINSt7__cxx1112basic_stringIcSt11char_traitsIcESaIcEEESt4lessIS5_ESaIS5_EE3endEv
FNDA:0,_ZNKSt3setINSt7__cxx1112basic_stringIcSt11char_traitsIcESaIcEEESt4lessIS5_ESaIS5_EE3endEv
FN:511,_ZNSt3setINSt7__cxx1112basic_stringIcSt11char_traitsIcESaIcEEESt4lessIS5_ESaIS5_EE6insertERKS5_
FNDA:0,_ZNSt3setINSt7__cxx1112basic_stringIcSt11char_traitsIcESaIcEEESt4lessIS5_ESaIS5_EE6insertERKS5_
FN:520,_ZNSt3setINSt7__cxx1112basic_stringIcSt11char_traitsIcESaIcEEESt4lessIS5_ESaIS5_EE6insertEOS5_
FNDA:0,_ZNSt3setINSt7__cxx1112basic_stringIcSt11char_traitsIcESaIcEEESt4lessIS5_ESaIS5_EE6insertEOS5_
FN:750,_ZNKSt3setINSt7__cxx1112basic_stringIcSt11char_traitsIcESaIcEEESt4lessIS5_ESaIS5_EE5countERKS5_
FNDA:0,_ZNKSt3setINSt7__cxx1112basic_stringIcSt11char_traitsIcESaIcEEESt4lessIS5_ESaIS5_EE5countERKS5_
FN:800,_ZNKSt3setINSt7__cxx1112basic_stringIcSt11char_traitsIcESaIcEEESt4lessIS5_ESaIS5_EE4findERKS5_
FNDA:0,_ZNKSt3setINSt7__cxx1112basic_stringIcSt11char_traitsIcESaIcEEESt4lessIS5_ESaIS5_EE4findERKS5_
FNF:7
FNH:1
DA:169,1
DA:283,0
DA:355,0
DA:356,0
DA:511,0
DA:514,0
DA:515,0
DA:520,0
DA:523,0
DA:524,0
DA:750,0
DA:751,0
DA:800,0
DA:801,0
LF:14
LH:1
end_of_record
SF:C:\workspace\matrixGenerator\build\_deps\googletest-src\googletest\src\gtest-death-test.cc
FN:146,_ZN7testing8internal16InDeathTestChildEv
FNDA:0,_ZN7testing8internal16InDeathTestChildEv
FN:165,_ZN7testing14ExitedWithCodeC2Ei
FNDA:0,_ZN7testing14ExitedWithCodeC2Ei
FN:169,_ZNK7testing14ExitedWithCodeclEi
FNDA:0,_ZNK7testing14ExitedWithCodeclEi
FN:206,_ZN7testing8internalL11ExitSummaryEi
FNDA:0,_ZN7testing8internalL11ExitSummaryEi
FN:232,_ZN7testing8internal20ExitedUnsuccessfullyEi
FNDA:0,_ZN7testing8internal20ExitedUnsuccessfullyEi
FN:286,_ZN7testing8internalL14DeathTestAbortERKNSt7__cxx1112basic_stringIcSt11char_traitsIcESaIcEEE
FNDA:0,_ZN7testing8internalL14DeathTestAbortERKNSt7__cxx1112basic_stringIcSt11char_traitsIcESaIcEEE
FN:339,_ZN7testing8internal23GetLastErrnoDescriptionB5cxx11Ev
FNDA:0,_ZN7testing8internal23GetLastErrnoDescriptionB5cxx11Ev
FN:347,_ZN7testing8internalL21FailFromInternalErrorEi
FNDA:0,_ZN7testing8internalL21FailFromInternalErrorEi
FN:370,_ZN7testing8internal9DeathTestC2Ev
FNDA:0,_ZN7testing8internal9DeathTestC2Ev
FN:380,_ZN7testing8internal9DeathTest6CreateEPKcNS_7MatcherIRKNSt7__cxx1112basic_stringIcSt11char_traitsIcESaIcEEEEES3_iPPS1_
FNDA:0,_ZN7testing8internal9DeathTest6CreateEPKcNS_7MatcherIRKNSt7__cxx1112basic_stringIcSt11char_traitsIcESaIcEEEEES3_iPPS1_
FN:387,_ZN7testing8internal9DeathTest11LastMessageEv
FNDA:0,_ZN7testing8internal9DeathTest11LastMessageEv
FN:391,_ZN7testing8internal9DeathTest27set_last_death_test_messageERKNSt7__cxx1112basic_stringIcSt11char_traitsIcESaIcEEE
FNDA:0,_ZN7testing8internal9DeathTest27set_last_death_test_messageERKNSt7__cxx1112basic_stringIcSt11char_traitsIcESaIcEEE
FN:400,_ZN7testing8internal13DeathTestImplC2EPKcNS_7MatcherIRKNSt7__cxx1112basic_stringIcSt11char_traitsIcESaIcEEEEE
FNDA:0,_ZN7testing8internal13DeathTestImplC2EPKcNS_7MatcherIRKNSt7__cxx1112basic_stringIcSt11char_traitsIcESaIcEEEEE
FN:410,_ZN7testing8internal13DeathTestImplD2Ev
FNDA:0,_ZN7testing8internal13DeathTestImplD2Ev
FN:415,_ZNK7testing8internal13DeathTestImpl9statementEv
FNDA:0,_ZNK7testing8internal13DeathTestImpl9statementEv
FN:416,_ZNK7testing8internal13DeathTestImpl7spawnedEv
FNDA:0,_ZNK7testing8internal13DeathTestImpl7spawnedEv
FN:417,_ZN7testing8internal13DeathTestImpl11set_spawnedEb
FNDA:0,_ZN7testing8internal13DeathTestImpl11set_spawnedEb
FN:418,_ZNK7testing8internal13DeathTestImpl6statusEv
FNDA:0,_ZNK7testing8internal13DeathTestImpl6statusEv
FN:419,_ZN7testing8internal13DeathTestImpl10set_statusEi
FNDA:0,_ZN7testing8internal13DeathTestImpl10set_statusEi
FN:420,_ZNK7testing8internal13DeathTestImpl7outcomeEv
FNDA:0,_ZNK7testing8internal13DeathTestImpl7outcomeEv
FN:421,_ZN7testing8internal13DeathTestImpl11set_outcomeENS0_16DeathTestOutcomeE
FNDA:0,_ZN7testing8internal13DeathTestImpl11set_outcomeENS0_16DeathTestOutcomeE
FN:422,_ZNK7testing8internal13DeathTestImpl7read_fdEv
FNDA:0,_ZNK7testing8internal13DeathTestImpl7read_fdEv
FN:423,_ZN7testing8internal13DeathTestImpl11set_read_fdEi
FNDA:0,_ZN7testing8internal13DeathTestImpl11set_read_fdEi
FN:424,_ZNK7testing8internal13DeathTestImpl8write_fdEv
FNDA:0,_ZNK7testing8internal13DeathTestImpl8write_fdEv
FN:425,_ZN7testing8internal13DeathTestImpl12set_write_fdEi
FNDA:0,_ZN7testing8internal13DeathTestImpl12set_write_fdEi
FN:462,_ZN7testing8internal13DeathTestImpl26ReadAndInterpretStatusByteEv
FNDA:0,_ZN7testing8internal13DeathTestImpl26ReadAndInterpretStatusByteEv
FN:503,_ZN7testing8internal13DeathTestImpl12GetErrorLogsB5cxx11Ev
FNDA:0,_ZN7testing8internal13DeathTestImpl12GetErrorLogsB5cxx11Ev
FN:511,_ZN7testing8internal13DeathTestImpl5AbortENS0_9DeathTest11AbortReasonE
FNDA:0,_ZN7testing8internal13DeathTestImpl5AbortENS0_9DeathTest11AbortReasonE
FN:534,_ZN7testing8internalL21FormatDeathTestOutputERKNSt7__cxx1112basic_stringIcSt11char_traitsIcESaIcEEE
FNDA:0,_ZN7testing8internalL21FormatDeathTestOutputERKNSt7__cxx1112basic_stringIcSt11char_traitsIcESaIcEEE
FN:570,_ZN7testing8internal13DeathTestImpl6PassedEb
FNDA:0,_ZN7testing8internal13DeathTestImpl6PassedEb
FN:652,_ZN7testing8internal16WindowsDeathTestC1EPKcNS_7MatcherIRKNSt7__cxx1112basic_stringIcSt11char_traitsIcESaIcEEEEES3_i
FNDA:0,_ZN7testing8internal16WindowsDeathTestC1EPKcNS_7MatcherIRKNSt7__cxx1112basic_stringIcSt11char_traitsIcESaIcEEEEES3_i
FN:681,_ZN7testing8internal16WindowsDeathTest4WaitEv
FNDA:0,_ZN7testing8internal16WindowsDeathTest4WaitEv
FN:726,_ZN7testing8internal16WindowsDeathTest10AssumeRoleEv
FNDA:0,_ZN7testing8internal16WindowsDeathTest10AssumeRoleEv
FN:1457,_ZN7testing8internal23DefaultDeathTestFactory6CreateEPKcNS_7MatcherIRKNSt7__cxx1112basic_stringIcSt11char_traitsIcESaIcEEEEES3_iPPNS0_9DeathTestE
FNDA:0,_ZN7testing8internal23DefaultDeathTestFactory6CreateEPKcNS_7MatcherIRKNSt7__cxx1112basic_stringIcSt11char_traitsIcESaIcEEEEES3_iPPNS0_9DeathTestE
FN:1521,_ZN7testing8internalL23GetStatusFileDescriptorEjyy
FNDA:0,_ZN7testing8internalL23GetStatusFileDescriptorEjyy
FN:1586,_ZN7testing8internal29ParseInternalRunDeathTestFlagEv
FNDA:1,_ZN7testing8internal29ParseInternalRunDeathTestFlagEv
FNF:36
FNH:1
DA:146,0
DA:151,0
DA:165,0
DA:166,0
DA:169,0
DA:172,0
DA:206,0
DA:207,0
DA:211,0
DA:227,0
DA:228,0
DA:232,0
DA:233,0
DA:286,0
DA:291,0
DA:292,0
DA:293,0
DA:294,0
DA:295,0
DA:296,0
DA:297,0
DA:299,0
DA:300,0
DA:301,0
DA:339,0
DA:340,0
DA:347,0
DA:348,0
DA:353,0
DA:354,0
DA:355,0
DA:357,0
DA:359,0
DA:360,0
DA:362,0
DA:363,0
DA:364,0
DA:366,0
DA:370,0
DA:371,0
DA:372,0
DA:373,0
DA:376,0
DA:380,0
DA:383,0
DA:384,0
DA:387,0
DA:388,0
DA:391,0
DA:392,0
DA:393,0
DA:400,0
DA:401,0
DA:402,0
DA:403,0
DA:404,0
DA:405,0
DA:406,0
DA:407,0
DA:410,0
DA:415,0
DA:416,0
DA:417,0
DA:418,0
DA:419,0
DA:420,0
DA:421,0
DA:422,0
DA:423,0
DA:424,0
DA:425,0
DA:462,0
DA:471,0
DA:472,0
DA:474,0
DA:475,0
DA:476,0
DA:477,0
DA:478,0
DA:479,0
DA:480,0
DA:481,0
DA:482,0
DA:483,0
DA:484,0
DA:485,0
DA:486,0
DA:487,0
DA:488,0
DA:489,0
DA:490,0
DA:491,0
DA:492,0
DA:493,0
DA:496,0
DA:497,0
DA:499,0
DA:500,0
DA:501,0
DA:503,0
DA:504,0
DA:511,0
DA:515,0
DA:516,0
DA:519,0
DA:528,0
DA:534,0
DA:535,0
DA:536,0
DA:537,0
DA:538,0
DA:539,0
DA:540,0
DA:541,0
DA:543,0
DA:544,0
DA:545,0
DA:546,0
DA:547,0
DA:570,0
DA:571,0
DA:572,0
DA:574,0
DA:576,0
DA:577,0
DA:579,0
DA:580,0
DA:581,0
DA:582,0
DA:583,0
DA:584,0
DA:585,0
DA:586,0
DA:587,0
DA:588,0
DA:589,0
DA:590,0
DA:591,0
DA:592,0
DA:593,0
DA:594,0
DA:595,0
DA:596,0
DA:598,0
DA:599,0
DA:600,0
DA:601,0
DA:602,0
DA:603,0
DA:604,0
DA:606,0
DA:607,0
DA:608,0
DA:610,0
DA:611,0
DA:613,0
DA:614,0
DA:617,0
DA:618,0
DA:619,0
DA:652,0
DA:654,0
DA:655,0
DA:656,0
DA:681,0
DA:682,0
DA:683,0
DA:687,0
DA:688,0
DA:692,0
DA:694,0
DA:695,0
DA:696,0
DA:701,0
DA:702,0
DA:704,0
DA:710,0
DA:714,0
DA:716,0
DA:717,0
DA:718,0
DA:726,0
DA:727,0
DA:729,0
DA:730,0
DA:731,0
DA:733,0
DA:736,0
DA:737,0
DA:742,0
DA:745,0
DA:749,0
DA:751,0
DA:752,0
DA:757,0
DA:758,0
DA:759,0
DA:760,0
DA:762,0
DA:763,0
DA:764,0
DA:765,0
DA:769,0
DA:770,0
DA:773,0
DA:778,0
DA:779,0
DA:781,0
DA:783,0
DA:785,0
DA:789,0
DA:790,0
DA:791,0
DA:792,0
DA:793,0
DA:796,0
DA:806,0
DA:807,0
DA:808,0
DA:809,0
DA:810,0
DA:1457,0
DA:1461,0
DA:1463,0
DA:1465,0
DA:1467,0
DA:1468,0
DA:1469,0
DA:1470,0
DA:1471,0
DA:1472,0
DA:1473,0
DA:1476,0
DA:1477,0
DA:1478,0
DA:1479,0
DA:1485,0
DA:1486,0
DA:1487,0
DA:1508,0
DA:1509,0
DA:1510,0
DA:1511,0
DA:1514,0
DA:1521,0
DA:1526,0
DA:1527,0
DA:1528,0
DA:1529,0
DA:1532,0
DA:1534,0
DA:1541,0
DA:1547,0
DA:1548,0
DA:1549,0
DA:1550,0
DA:1553,0
DA:1556,0
DA:1561,0
DA:1562,0
DA:1563,0
DA:1564,0
DA:1568,0
DA:1569,0
DA:1570,0
DA:1571,0
DA:1572,0
DA:1577,0
DA:1579,0
DA:1580,0
DA:1586,1
DA:1587,1
DA:1591,0
DA:1592,0
DA:1593,0
DA:1594,0
DA:1595,0
DA:1599,0
DA:1600,0
DA:1601,0
DA:1603,0
DA:1604,0
DA:1605,0
DA:1606,0
DA:1607,0
DA:1608,0
DA:1609,0
DA:1610,0
DA:1612,0
DA:1637,0
DA:1638,0
LF:291
LH:2
end_of_record
SF:C:\msys64\mingw64\include\c++\14.1.0\new
FN:179,_ZnwyPv
FNDA:0,_ZnwyPv
FN:185,_ZdlPvS_
FNDA:0,_ZdlPvS_
FNF:2
FNH:0
DA:179,0
DA:180,0
DA:185,0
LF:3
LH:0
end_of_record
SF:C:\msys64\mingw64\include\c++\14.1.0\bits\stl_uninitialized.h
FN:113,_ZSt16__do_uninit_copyISt13move_iteratorIPN7testing14TestPartResultEES3_ET0_T_S6_S5_
FNDA:0,_ZSt16__do_uninit_copyISt13move_iteratorIPN7testing14TestPartResultEES3_ET0_T_S6_S5_
FN:113,_ZSt16__do_uninit_copyISt13move_iteratorIPN7testing12TestPropertyEES3_ET0_T_S6_S5_
FNDA:0,_ZSt16__do_uninit_copyISt13move_iteratorIPN7testing12TestPropertyEES3_ET0_T_S6_S5_
FN:113,_ZSt16__do_uninit_copyIPKPKcPNSt7__cxx1112basic_stringIcSt11char_traitsIcESaIcEEEET0_T_SC_SB_
FNDA:93,_ZSt16__do_uninit_copyIPKPKcPNSt7__cxx1112basic_stringIcSt11char_traitsIcESaIcEEEET0_T_SC_SB_
FN:113,_ZSt16__do_uninit_copyISt13move_iteratorIPNSt7__cxx1112basic_stringIcSt11char_traitsIcESaIcEEEES7_ET0_T_SA_S9_
FNDA:0,_ZSt16__do_uninit_copyISt13move_iteratorIPNSt7__cxx1112basic_stringIcSt11char_traitsIcESaIcEEEES7_ET0_T_SA_S9_
FN:113,_ZSt16__do_uninit_copyISt13move_iteratorIPN7testing8internal9TraceInfoEES4_ET0_T_S7_S6_
FNDA:0,_ZSt16__do_uninit_copyISt13move_iteratorIPN7testing8internal9TraceInfoEES4_ET0_T_S7_S6_
FN:113,_ZSt16__do_uninit_copyISt13move_iteratorIPSt10shared_ptrIN7testing8internal26ThreadLocalValueHolderBaseEEES6_ET0_T_S9_S8_
FNDA:0,_ZSt16__do_uninit_copyISt13move_iteratorIPSt10shared_ptrIN7testing8internal26ThreadLocalValueHolderBaseEEES6_ET0_T_S9_S8_
FN:113,_ZSt16__do_uninit_copyIN9__gnu_cxx17__normal_iteratorIPKNSt7__cxx1112basic_stringIcSt11char_traitsIcESaIcEEESt6vectorIS7_SaIS7_EEEEPS7_ET0_T_SG_SF_
FNDA:2,_ZSt16__do_uninit_copyIN9__gnu_cxx17__normal_iteratorIPKNSt7__cxx1112basic_stringIcSt11char_traitsIcESaIcEEESt6vectorIS7_SaIS7_EEEEPS7_ET0_T_SG_SF_
FN:135,_ZNSt20__uninitialized_copyILb0EE13__uninit_copyISt13move_iteratorIPNSt7__cxx1112basic_stringIcSt11char_traitsIcESaIcEEEES9_EET0_T_SC_SB_
FNDA:0,_ZNSt20__uninitialized_copyILb0EE13__uninit_copyISt13move_iteratorIPNSt7__cxx1112basic_stringIcSt11char_traitsIcESaIcEEEES9_EET0_T_SC_SB_
FN:135,_ZNSt20__uninitialized_copyILb0EE13__uninit_copyISt13move_iteratorIPSt10shared_ptrIN7testing8internal26ThreadLocalValueHolderBaseEEES8_EET0_T_SB_SA_
FNDA:0,_ZNSt20__uninitialized_copyILb0EE13__uninit_copyISt13move_iteratorIPSt10shared_ptrIN7testing8internal26ThreadLocalValueHolderBaseEEES8_EET0_T_SB_SA_
FN:135,_ZNSt20__uninitialized_copyILb0EE13__uninit_copyISt13move_iteratorIPN7testing8internal9TraceInfoEES6_EET0_T_S9_S8_
FNDA:0,_ZNSt20__uninitialized_copyILb0EE13__uninit_copyISt13move_iteratorIPN7testing8internal9TraceInfoEES6_EET0_T_S9_S8_
FN:135,_ZNSt20__uninitialized_copyILb0EE13__uninit_copyIN9__gnu_cxx17__normal_iteratorIPKNSt7__cxx1112basic_stringIcSt11char_traitsIcESaIcEEESt6vectorIS9_SaIS9_EEEEPS9_EET0_T_SI_SH_
FNDA:2,_ZNSt20__uninitialized_copyILb0EE13__uninit_copyIN9__gnu_cxx17__normal_iteratorIPKNSt7__cxx1112basic_stringIcSt11char_traitsIcESaIcEEESt6vectorIS9_SaIS9_EEEEPS9_EET0_T_SI_SH_
FN:135,_ZNSt20__uninitialized_copyILb0EE13__uninit_copyIPKPKcPNSt7__cxx1112basic_stringIcSt11char_traitsIcESaIcEEEEET0_T_SE_SD_
FNDA:93,_ZNSt20__uninitialized_copyILb0EE13__uninit_copyIPKPKcPNSt7__cxx1112basic_stringIcSt11char_traitsIcESaIcEEEEET0_T_SE_SD_
FN:135,_ZNSt20__uninitialized_copyILb0EE13__uninit_copyISt13move_iteratorIPN7testing12TestPropertyEES5_EET0_T_S8_S7_
FNDA:0,_ZNSt20__uninitialized_copyILb0EE13__uninit_copyISt13move_iteratorIPN7testing12TestPropertyEES5_EET0_T_S8_S7_
FN:135,_ZNSt20__uninitialized_copyILb0EE13__uninit_copyISt13move_iteratorIPN7testing14TestPartResultEES5_EET0_T_S8_S7_
FNDA:0,_ZNSt20__uninitialized_copyILb0EE13__uninit_copyISt13move_iteratorIPN7testing14TestPartResultEES5_EET0_T_S8_S7_
FN:145,_ZNSt20__uninitialized_copyILb1EE13__uninit_copyISt13move_iteratorIPPN7testing17TestEventListenerEES6_EET0_T_S9_S8_
FNDA:0,_ZNSt20__uninitialized_copyILb1EE13__uninit_copyISt13move_iteratorIPPN7testing17TestEventListenerEES6_EET0_T_S9_S8_
FN:145,_ZNSt20__uninitialized_copyILb1EE13__uninit_copyISt13move_iteratorIPPN7testing11EnvironmentEES6_EET0_T_S9_S8_
FNDA:0,_ZNSt20__uninitialized_copyILb1EE13__uninit_copyISt13move_iteratorIPPN7testing11EnvironmentEES6_EET0_T_S9_S8_
FN:145,_ZNSt20__uninitialized_copyILb1EE13__uninit_copyISt13move_iteratorIPPN7testing8TestInfoEES6_EET0_T_S9_S8_
FNDA:0,_ZNSt20__uninitialized_copyILb1EE13__uninit_copyISt13move_iteratorIPPN7testing8TestInfoEES6_EET0_T_S9_S8_
FN:145,_ZNSt20__uninitialized_copyILb1EE13__uninit_copyISt13move_iteratorIPPN7testing9TestSuiteEES6_EET0_T_S9_S8_
FNDA:0,_ZNSt20__uninitialized_copyILb1EE13__uninit_copyISt13move_iteratorIPPN7testing9TestSuiteEES6_EET0_T_S9_S8_
FN:145,_ZNSt20__uninitialized_copyILb1EE13__uninit_copyISt13move_iteratorIPN7testing8internal13edit_distance8EditTypeEES7_EET0_T_SA_S9_
FNDA:0,_ZNSt20__uninitialized_copyILb1EE13__uninit_copyISt13move_iteratorIPN7testing8internal13edit_distance8EditTypeEES7_EET0_T_SA_S9_
FN:145,_ZNSt20__uninitialized_copyILb1EE13__uninit_copyIN9__gnu_cxx17__normal_iteratorIPKdSt6vectorIdSaIdEEEEPdEET0_T_SC_SB_
FNDA:0,_ZNSt20__uninitialized_copyILb1EE13__uninit_copyIN9__gnu_cxx17__normal_iteratorIPKdSt6vectorIdSaIdEEEEPdEET0_T_SC_SB_
FN:145,_ZNSt20__uninitialized_copyILb1EE13__uninit_copyISt13move_iteratorIPyES3_EET0_T_S6_S5_
FNDA:0,_ZNSt20__uninitialized_copyILb1EE13__uninit_copyISt13move_iteratorIPyES3_EET0_T_S6_S5_
FN:145,_ZNSt20__uninitialized_copyILb1EE13__uninit_copyIN9__gnu_cxx17__normal_iteratorIPKN7testing8internal13edit_distance8EditTypeESt6vectorIS7_SaIS7_EEEEPS7_EET0_T_SG_SF_
FNDA:0,_ZNSt20__uninitialized_copyILb1EE13__uninit_copyIN9__gnu_cxx17__normal_iteratorIPKN7testing8internal13edit_distance8EditTypeESt6vectorIS7_SaIS7_EEEEPS7_EET0_T_SG_SF_
FN:145,_ZNSt20__uninitialized_copyILb1EE13__uninit_copyISt13move_iteratorIPiES3_EET0_T_S6_S5_
FNDA:0,_ZNSt20__uninitialized_copyILb1EE13__uninit_copyISt13move_iteratorIPiES3_EET0_T_S6_S5_
FN:163,_ZSt18uninitialized_copyISt13move_iteratorIPPN7testing8TestInfoEES4_ET0_T_S7_S6_
FNDA:0,_ZSt18uninitialized_copyISt13move_iteratorIPPN7testing8TestInfoEES4_ET0_T_S7_S6_
FN:163,_ZSt18uninitialized_copyISt13move_iteratorIPN7testing8internal9TraceInfoEES4_ET0_T_S7_S6_
FNDA:0,_ZSt18uninitialized_copyISt13move_iteratorIPN7testing8internal9TraceInfoEES4_ET0_T_S7_S6_
FN:163,_ZSt18uninitialized_copyIPKPKcPNSt7__cxx1112basic_stringIcSt11char_traitsIcESaIcEEEET0_T_SC_SB_
FNDA:93,_ZSt18uninitialized_copyIPKPKcPNSt7__cxx1112basic_stringIcSt11char_traitsIcESaIcEEEET0_T_SC_SB_
FN:163,_ZSt18uninitialized_copyISt13move_iteratorIPPN7testing9TestSuiteEES4_ET0_T_S7_S6_
FNDA:0,_ZSt18uninitialized_copyISt13move_iteratorIPPN7testing9TestSuiteEES4_ET0_T_S7_S6_
FN:163,_ZSt18uninitialized_copyISt13move_iteratorIPN7testing12TestPropertyEES3_ET0_T_S6_S5_
FNDA:0,_ZSt18uninitialized_copyISt13move_iteratorIPN7testing12TestPropertyEES3_ET0_T_S6_S5_
FN:163,_ZSt18uninitialized_copyISt13move_iteratorIPSt10shared_ptrIN7testing8internal26ThreadLocalValueHolderBaseEEES6_ET0_T_S9_S8_
FNDA:0,_ZSt18uninitialized_copyISt13move_iteratorIPSt10shared_ptrIN7testing8internal26ThreadLocalValueHolderBaseEEES6_ET0_T_S9_S8_
FN:163,_ZSt18uninitialized_copyISt13move_iteratorIPPN7testing11EnvironmentEES4_ET0_T_S7_S6_
FNDA:0,_ZSt18uninitialized_copyISt13move_iteratorIPPN7testing11EnvironmentEES4_ET0_T_S7_S6_
FN:163,_ZSt18uninitialized_copyISt13move_iteratorIPN7testing14TestPartResultEES3_ET0_T_S6_S5_
FNDA:0,_ZSt18uninitialized_copyISt13move_iteratorIPN7testing14TestPartResultEES3_ET0_T_S6_S5_
FN:163,_ZSt18uninitialized_copyISt13move_iteratorIPNSt7__cxx1112basic_stringIcSt11char_traitsIcESaIcEEEES7_ET0_T_SA_S9_
FNDA:0,_ZSt18uninitialized_copyISt13move_iteratorIPNSt7__cxx1112basic_stringIcSt11char_traitsIcESaIcEEEES7_ET0_T_SA_S9_
FN:163,_ZSt18uninitialized_copyISt13move_iteratorIPN7testing8internal13edit_distance8EditTypeEES5_ET0_T_S8_S7_
FNDA:0,_ZSt18uninitialized_copyISt13move_iteratorIPN7testing8internal13edit_distance8EditTypeEES5_ET0_T_S8_S7_
FN:163,_ZSt18uninitialized_copyISt13move_iteratorIPyES1_ET0_T_S4_S3_
FNDA:0,_ZSt18uninitialized_copyISt13move_iteratorIPyES1_ET0_T_S4_S3_
FN:163,_ZSt18uninitialized_copyIN9__gnu_cxx17__normal_iteratorIPKN7testing8internal13edit_distance8EditTypeESt6vectorIS5_SaIS5_EEEEPS5_ET0_T_SE_SD_
FNDA:0,_ZSt18uninitialized_copyIN9__gnu_cxx17__normal_iteratorIPKN7testing8internal13edit_distance8EditTypeESt6vectorIS5_SaIS5_EEEEPS5_ET0_T_SE_SD_
FN:163,_ZSt18uninitialized_copyIN9__gnu_cxx17__normal_iteratorIPKdSt6vectorIdSaIdEEEEPdET0_T_SA_S9_
FNDA:0,_ZSt18uninitialized_copyIN9__gnu_cxx17__normal_iteratorIPKdSt6vectorIdSaIdEEEEPdET0_T_SA_S9_
FN:163,_ZSt18uninitialized_copyISt13move_iteratorIPPN7testing17TestEventListenerEES4_ET0_T_S7_S6_
FNDA:0,_ZSt18uninitialized_copyISt13move_iteratorIPPN7testing17TestEventListenerEES4_ET0_T_S7_S6_
FN:163,_ZSt18uninitialized_copyIN9__gnu_cxx17__normal_iteratorIPKNSt7__cxx1112basic_stringIcSt11char_traitsIcESaIcEEESt6vectorIS7_SaIS7_EEEEPS7_ET0_T_SG_SF_
FNDA:2,_ZSt18uninitialized_copyIN9__gnu_cxx17__normal_iteratorIPKNSt7__cxx1112basic_stringIcSt11char_traitsIcESaIcEEESt6vectorIS7_SaIS7_EEEEPS7_ET0_T_SG_SF_
FN:163,_ZSt18uninitialized_copyISt13move_iteratorIPiES1_ET0_T_S4_S3_
FNDA:0,_ZSt18uninitialized_copyISt13move_iteratorIPiES1_ET0_T_S4_S3_
FN:261,_ZSt18__do_uninit_fill_nIPSt6vectorIdSaIdEEyS2_ET_S4_T0_RKT1_
FNDA:0,_ZSt18__do_uninit_fill_nIPSt6vectorIdSaIdEEyS2_ET_S4_T0_RKT1_
FN:261,_ZSt18__do_uninit_fill_nIPSt6vectorIN7testing8internal13edit_distance8EditTypeESaIS4_EEyS6_ET_S8_T0_RKT1_
FNDA:0,_ZSt18__do_uninit_fill_nIPSt6vectorIN7testing8internal13edit_distance8EditTypeESaIS4_EEyS6_ET_S8_T0_RKT1_
FN:282,_ZNSt22__uninitialized_fill_nILb0EE15__uninit_fill_nIPSt6vectorIdSaIdEEyS4_EET_S6_T0_RKT1_
FNDA:0,_ZNSt22__uninitialized_fill_nILb0EE15__uninit_fill_nIPSt6vectorIdSaIdEEyS4_EET_S6_T0_RKT1_
FN:282,_ZNSt22__uninitialized_fill_nILb0EE15__uninit_fill_nIPSt6vectorIN7testing8internal13edit_distance8EditTypeESaIS6_EEyS8_EET_SA_T0_RKT1_
FNDA:0,_ZNSt22__uninitialized_fill_nILb0EE15__uninit_fill_nIPSt6vectorIN7testing8internal13edit_distance8EditTypeESaIS6_EEyS8_EET_SA_T0_RKT1_
FN:312,_ZSt20uninitialized_fill_nIPSt6vectorIN7testing8internal13edit_distance8EditTypeESaIS4_EEyS6_ET_S8_T0_RKT1_
FNDA:0,_ZSt20uninitialized_fill_nIPSt6vectorIN7testing8internal13edit_distance8EditTypeESaIS4_EEyS6_ET_S8_T0_RKT1_
FN:312,_ZSt20uninitialized_fill_nIPSt6vectorIdSaIdEEyS2_ET_S4_T0_RKT1_
FNDA:0,_ZSt20uninitialized_fill_nIPSt6vectorIdSaIdEEyS2_ET_S4_T0_RKT1_
FN:366,_ZSt22__uninitialized_copy_aIN9__gnu_cxx17__normal_iteratorIPKNSt7__cxx1112basic_stringIcSt11char_traitsIcESaIcEEESt6vectorIS7_SaIS7_EEEEPS7_S7_ET0_T_SG_SF_RSaIT1_E
FNDA:2,_ZSt22__uninitialized_copy_aIN9__gnu_cxx17__normal_iteratorIPKNSt7__cxx1112basic_stringIcSt11char_traitsIcESaIcEEESt6vectorIS7_SaIS7_EEEEPS7_S7_ET0_T_SG_SF_RSaIT1_E
FN:366,_ZSt22__uninitialized_copy_aISt13move_iteratorIPyES1_yET0_T_S4_S3_RSaIT1_E
FNDA:0,_ZSt22__uninitialized_copy_aISt13move_iteratorIPyES1_yET0_T_S4_S3_RSaIT1_E
FN:366,_ZSt22__uninitialized_copy_aISt13move_iteratorIPSt10shared_ptrIN7testing8internal26ThreadLocalValueHolderBaseEEES6_S5_ET0_T_S9_S8_RSaIT1_E
FNDA:0,_ZSt22__uninitialized_copy_aISt13move_iteratorIPSt10shared_ptrIN7testing8internal26ThreadLocalValueHolderBaseEEES6_S5_ET0_T_S9_S8_RSaIT1_E
FN:366,_ZSt22__uninitialized_copy_aISt13move_iteratorIPNSt7__cxx1112basic_stringIcSt11char_traitsIcESaIcEEEES7_S6_ET0_T_SA_S9_RSaIT1_E
FNDA:0,_ZSt22__uninitialized_copy_aISt13move_iteratorIPNSt7__cxx1112basic_stringIcSt11char_traitsIcESaIcEEEES7_S6_ET0_T_SA_S9_RSaIT1_E
FN:366,_ZSt22__uninitialized_copy_aISt13move_iteratorIPPN7testing9TestSuiteEES4_S3_ET0_T_S7_S6_RSaIT1_E
FNDA:0,_ZSt22__uninitialized_copy_aISt13move_iteratorIPPN7testing9TestSuiteEES4_S3_ET0_T_S7_S6_RSaIT1_E
FN:366,_ZSt22__uninitialized_copy_aISt13move_iteratorIPN7testing8internal9TraceInfoEES4_S3_ET0_T_S7_S6_RSaIT1_E
FNDA:0,_ZSt22__uninitialized_copy_aISt13move_iteratorIPN7testing8internal9TraceInfoEES4_S3_ET0_T_S7_S6_RSaIT1_E
FN:366,_ZSt22__uninitialized_copy_aISt13move_iteratorIPN7testing8internal13edit_distance8EditTypeEES5_S4_ET0_T_S8_S7_RSaIT1_E
FNDA:0,_ZSt22__uninitialized_copy_aISt13move_iteratorIPN7testing8internal13edit_distance8EditTypeEES5_S4_ET0_T_S8_S7_RSaIT1_E
FN:366,_ZSt22__uninitialized_copy_aISt13move_iteratorIPPN7testing11EnvironmentEES4_S3_ET0_T_S7_S6_RSaIT1_E
FNDA:0,_ZSt22__uninitialized_copy_aISt13move_iteratorIPPN7testing11EnvironmentEES4_S3_ET0_T_S7_S6_RSaIT1_E
FN:366,_ZSt22__uninitialized_copy_aISt13move_iteratorIPN7testing14TestPartResultEES3_S2_ET0_T_S6_S5_RSaIT1_E
FNDA:0,_ZSt22__uninitialized_copy_aISt13move_iteratorIPN7testing14TestPartResultEES3_S2_ET0_T_S6_S5_RSaIT1_E
FN:366,_ZSt22__uninitialized_copy_aISt13move_iteratorIPPN7testing17TestEventListenerEES4_S3_ET0_T_S7_S6_RSaIT1_E
FNDA:0,_ZSt22__uninitialized_copy_aISt13move_iteratorIPPN7testing17TestEventListenerEES4_S3_ET0_T_S7_S6_RSaIT1_E
FN:366,_ZSt22__uninitialized_copy_aISt13move_iteratorIPN7testing12TestPropertyEES3_S2_ET0_T_S6_S5_RSaIT1_E
FNDA:0,_ZSt22__uninitialized_copy_aISt13move_iteratorIPN7testing12TestPropertyEES3_S2_ET0_T_S6_S5_RSaIT1_E
FN:366,_ZSt22__uninitialized_copy_aISt13move_iteratorIPPN7testing8TestInfoEES4_S3_ET0_T_S7_S6_RSaIT1_E
FNDA:0,_ZSt22__uninitialized_copy_aISt13move_iteratorIPPN7testing8TestInfoEES4_S3_ET0_T_S7_S6_RSaIT1_E
FN:366,_ZSt22__uninitialized_copy_aISt13move_iteratorIPiES1_iET0_T_S4_S3_RSaIT1_E
FNDA:0,_ZSt22__uninitialized_copy_aISt13move_iteratorIPiES1_iET0_T_S4_S3_RSaIT1_E
FN:366,_ZSt22__uninitialized_copy_aIPKPKcPNSt7__cxx1112basic_stringIcSt11char_traitsIcESaIcEEES9_ET0_T_SC_SB_RSaIT1_E
FNDA:93,_ZSt22__uninitialized_copy_aIPKPKcPNSt7__cxx1112basic_stringIcSt11char_traitsIcESaIcEEES9_ET0_T_SC_SB_RSaIT1_E
FN:366,_ZSt22__uninitialized_copy_aIN9__gnu_cxx17__normal_iteratorIPKN7testing8internal13edit_distance8EditTypeESt6vectorIS5_SaIS5_EEEEPS5_S5_ET0_T_SE_SD_RSaIT1_E
FNDA:0,_ZSt22__uninitialized_copy_aIN9__gnu_cxx17__normal_iteratorIPKN7testing8internal13edit_distance8EditTypeESt6vectorIS5_SaIS5_EEEEPS5_S5_ET0_T_SE_SD_RSaIT1_E
FN:366,_ZSt22__uninitialized_copy_aIN9__gnu_cxx17__normal_iteratorIPKdSt6vectorIdSaIdEEEEPddET0_T_SA_S9_RSaIT1_E
FNDA:0,_ZSt22__uninitialized_copy_aIN9__gnu_cxx17__normal_iteratorIPKdSt6vectorIdSaIdEEEEPddET0_T_SA_S9_RSaIT1_E
FN:393,_ZSt34__uninitialized_move_if_noexcept_aIPPN7testing11EnvironmentES3_SaIS2_EET0_T_S6_S5_RT1_
FNDA:0,_ZSt34__uninitialized_move_if_noexcept_aIPPN7testing11EnvironmentES3_SaIS2_EET0_T_S6_S5_RT1_
FN:393,_ZSt34__uninitialized_move_if_noexcept_aIPyS0_SaIyEET0_T_S3_S2_RT1_
FNDA:0,_ZSt34__uninitialized_move_if_noexcept_aIPyS0_SaIyEET0_T_S3_S2_RT1_
FN:393,_ZSt34__uninitialized_move_if_noexcept_aIPNSt7__cxx1112basic_stringIcSt11char_traitsIcESaIcEEES6_SaIS5_EET0_T_S9_S8_RT1_
FNDA:0,_ZSt34__uninitialized_move_if_noexcept_aIPNSt7__cxx1112basic_stringIcSt11char_traitsIcESaIcEEES6_SaIS5_EET0_T_S9_S8_RT1_
FN:393,_ZSt34__uninitialized_move_if_noexcept_aIPiS0_SaIiEET0_T_S3_S2_RT1_
FNDA:0,_ZSt34__uninitialized_move_if_noexcept_aIPiS0_SaIiEET0_T_S3_S2_RT1_
FN:393,_ZSt34__uninitialized_move_if_noexcept_aIPSt10shared_ptrIN7testing8internal26ThreadLocalValueHolderBaseEES5_SaIS4_EET0_T_S8_S7_RT1_
FNDA:0,_ZSt34__uninitialized_move_if_noexcept_aIPSt10shared_ptrIN7testing8internal26ThreadLocalValueHolderBaseEES5_SaIS4_EET0_T_S8_S7_RT1_
FN:393,_ZSt34__uninitialized_move_if_noexcept_aIPPN7testing9TestSuiteES3_SaIS2_EET0_T_S6_S5_RT1_
FNDA:0,_ZSt34__uninitialized_move_if_noexcept_aIPPN7testing9TestSuiteES3_SaIS2_EET0_T_S6_S5_RT1_
FN:393,_ZSt34__uninitialized_move_if_noexcept_aIPN7testing8internal9TraceInfoES3_SaIS2_EET0_T_S6_S5_RT1_
FNDA:0,_ZSt34__uninitialized_move_if_noexcept_aIPN7testing8internal9TraceInfoES3_SaIS2_EET0_T_S6_S5_RT1_
FN:393,_ZSt34__uninitialized_move_if_noexcept_aIPPN7testing17TestEventListenerES3_SaIS2_EET0_T_S6_S5_RT1_
FNDA:0,_ZSt34__uninitialized_move_if_noexcept_aIPPN7testing17TestEventListenerES3_SaIS2_EET0_T_S6_S5_RT1_
FN:393,_ZSt34__uninitialized_move_if_noexcept_aIPN7testing12TestPropertyES2_SaIS1_EET0_T_S5_S4_RT1_
FNDA:0,_ZSt34__uninitialized_move_if_noexcept_aIPN7testing12TestPropertyES2_SaIS1_EET0_T_S5_S4_RT1_
FN:393,_ZSt34__uninitialized_move_if_noexcept_aIPPN7testing8TestInfoES3_SaIS2_EET0_T_S6_S5_RT1_
FNDA:0,_ZSt34__uninitialized_move_if_noexcept_aIPPN7testing8TestInfoES3_SaIS2_EET0_T_S6_S5_RT1_
FN:393,_ZSt34__uninitialized_move_if_noexcept_aIPN7testing14TestPartResultES2_SaIS1_EET0_T_S5_S4_RT1_
FNDA:0,_ZSt34__uninitialized_move_if_noexcept_aIPN7testing14TestPartResultES2_SaIS1_EET0_T_S5_S4_RT1_
FN:393,_ZSt34__uninitialized_move_if_noexcept_aIPN7testing8internal13edit_distance8EditTypeES4_SaIS3_EET0_T_S7_S6_RT1_
FNDA:0,_ZSt34__uninitialized_move_if_noexcept_aIPN7testing8internal13edit_distance8EditTypeES4_SaIS3_EET0_T_S7_S6_RT1_
FN:465,_ZSt24__uninitialized_fill_n_aIPSt6vectorIN7testing8internal13edit_distance8EditTypeESaIS4_EEyS6_S6_ET_S8_T0_RKT1_RSaIT2_E
FNDA:0,_ZSt24__uninitialized_fill_n_aIPSt6vectorIN7testing8internal13edit_distance8EditTypeESaIS4_EEyS6_S6_ET_S8_T0_RKT1_RSaIT2_E
FN:465,_ZSt24__uninitialized_fill_n_aIPSt6vectorIdSaIdEEyS2_S2_ET_S4_T0_RKT1_RSaIT2_E
FNDA:0,_ZSt24__uninitialized_fill_n_aIPSt6vectorIdSaIdEEyS2_S2_ET_S4_T0_RKT1_RSaIT2_E
FN:660,_ZNSt27__uninitialized_default_n_1ILb1EE18__uninit_default_nIPN7testing8internal13edit_distance8EditTypeEyEET_S7_T0_
FNDA:0,_ZNSt27__uninitialized_default_n_1ILb1EE18__uninit_default_nIPN7testing8internal13edit_distance8EditTypeEyEET_S7_T0_
FN:660,_ZNSt27__uninitialized_default_n_1ILb1EE18__uninit_default_nIPdyEET_S3_T0_
FNDA:0,_ZNSt27__uninitialized_default_n_1ILb1EE18__uninit_default_nIPdyEET_S3_T0_
FN:696,_ZSt25__uninitialized_default_nIPN7testing8internal13edit_distance8EditTypeEyET_S5_T0_
FNDA:0,_ZSt25__uninitialized_default_nIPN7testing8internal13edit_distance8EditTypeEyET_S5_T0_
FN:696,_ZSt25__uninitialized_default_nIPdyET_S1_T0_
FNDA:0,_ZSt25__uninitialized_default_nIPdyET_S1_T0_
FN:777,_ZSt27__uninitialized_default_n_aIPdydET_S1_T0_RSaIT1_E
FNDA:0,_ZSt27__uninitialized_default_n_aIPdydET_S1_T0_RSaIT1_E
FN:777,_ZSt27__uninitialized_default_n_aIPN7testing8internal13edit_distance8EditTypeEyS3_ET_S5_T0_RSaIT1_E
FNDA:0,_ZSt27__uninitialized_default_n_aIPN7testing8internal13edit_distance8EditTypeEyS3_ET_S5_T0_RSaIT1_E
FN:1067,_ZSt19__relocate_object_aISt10shared_ptrIN7testing8internal26ThreadLocalValueHolderBaseEES4_SaIS4_EEvPT_PT0_RT1_
FNDA:0,_ZSt19__relocate_object_aISt10shared_ptrIN7testing8internal26ThreadLocalValueHolderBaseEES4_SaIS4_EEvPT_PT0_RT1_
FN:1067,_ZSt19__relocate_object_aIN7testing8internal9TraceInfoES2_SaIS2_EEvPT_PT0_RT1_
FNDA:0,_ZSt19__relocate_object_aIN7testing8internal9TraceInfoES2_SaIS2_EEvPT_PT0_RT1_
FN:1067,_ZSt19__relocate_object_aIN7testing12TestPropertyES1_SaIS1_EEvPT_PT0_RT1_
FNDA:0,_ZSt19__relocate_object_aIN7testing12TestPropertyES1_SaIS1_EEvPT_PT0_RT1_
FN:1067,_ZSt19__relocate_object_aIN7testing14TestPartResultES1_SaIS1_EEvPT_PT0_RT1_
FNDA:0,_ZSt19__relocate_object_aIN7testing14TestPartResultES1_SaIS1_EEvPT_PT0_RT1_
FN:1067,_ZSt19__relocate_object_aINSt7__cxx1112basic_stringIcSt11char_traitsIcESaIcEEES5_SaIS5_EEvPT_PT0_RT1_
FNDA:1,_ZSt19__relocate_object_aINSt7__cxx1112basic_stringIcSt11char_traitsIcESaIcEEES5_SaIS5_EEvPT_PT0_RT1_
FN:1089,_ZSt14__relocate_a_1IPNSt7__cxx1112basic_stringIcSt11char_traitsIcESaIcEEES6_SaIS5_EET0_T_S9_S8_RT1_
FNDA:2,_ZSt14__relocate_a_1IPNSt7__cxx1112basic_stringIcSt11char_traitsIcESaIcEEES6_SaIS5_EET0_T_S9_S8_RT1_
FN:1089,_ZSt14__relocate_a_1IPSt10shared_ptrIN7testing8internal26ThreadLocalValueHolderBaseEES5_SaIS4_EET0_T_S8_S7_RT1_
FNDA:0,_ZSt14__relocate_a_1IPSt10shared_ptrIN7testing8internal26ThreadLocalValueHolderBaseEES5_SaIS4_EET0_T_S8_S7_RT1_
FN:1089,_ZSt14__relocate_a_1IPN7testing8internal9TraceInfoES3_SaIS2_EET0_T_S6_S5_RT1_
FNDA:0,_ZSt14__relocate_a_1IPN7testing8internal9TraceInfoES3_SaIS2_EET0_T_S6_S5_RT1_
FN:1089,_ZSt14__relocate_a_1IPN7testing12TestPropertyES2_SaIS1_EET0_T_S5_S4_RT1_
FNDA:0,_ZSt14__relocate_a_1IPN7testing12TestPropertyES2_SaIS1_EET0_T_S5_S4_RT1_
FN:1089,_ZSt14__relocate_a_1IPN7testing14TestPartResultES2_SaIS1_EET0_T_S5_S4_RT1_
FNDA:0,_ZSt14__relocate_a_1IPN7testing14TestPartResultES2_SaIS1_EET0_T_S5_S4_RT1_
FN:1112,_ZSt14__relocate_a_1IyyENSt9enable_ifIXsrSt24__is_bitwise_relocatableIT_vE5valueEPS2_E4typeES4_S4_S4_RSaIT0_E
FNDA:0,_ZSt14__relocate_a_1IyyENSt9enable_ifIXsrSt24__is_bitwise_relocatableIT_vE5valueEPS2_E4typeES4_S4_S4_RSaIT0_E
FN:1112,_ZSt14__relocate_a_1IiiENSt9enable_ifIXsrSt24__is_bitwise_relocatableIT_vE5valueEPS2_E4typeES4_S4_S4_RSaIT0_E
FNDA:0,_ZSt14__relocate_a_1IiiENSt9enable_ifIXsrSt24__is_bitwise_relocatableIT_vE5valueEPS2_E4typeES4_S4_S4_RSaIT0_E
FN:1112,_ZSt14__relocate_a_1IPN7testing9TestSuiteES2_ENSt9enable_ifIXsrSt24__is_bitwise_relocatableIT_vE5valueEPS5_E4typeES7_S7_S7_RSaIT0_E
FNDA:3,_ZSt14__relocate_a_1IPN7testing9TestSuiteES2_ENSt9enable_ifIXsrSt24__is_bitwise_relocatableIT_vE5valueEPS5_E4typeES7_S7_S7_RSaIT0_E
FN:1112,_ZSt14__relocate_a_1IPN7testing11EnvironmentES2_ENSt9enable_ifIXsrSt24__is_bitwise_relocatableIT_vE5valueEPS5_E4typeES7_S7_S7_RSaIT0_E
FNDA:0,_ZSt14__relocate_a_1IPN7testing11EnvironmentES2_ENSt9enable_ifIXsrSt24__is_bitwise_relocatableIT_vE5valueEPS5_E4typeES7_S7_S7_RSaIT0_E
FN:1112,_ZSt14__relocate_a_1IPN7testing17TestEventListenerES2_ENSt9enable_ifIXsrSt24__is_bitwise_relocatableIT_vE5valueEPS5_E4typeES7_S7_S7_RSaIT0_E
FNDA:2,_ZSt14__relocate_a_1IPN7testing17TestEventListenerES2_ENSt9enable_ifIXsrSt24__is_bitwise_relocatableIT_vE5valueEPS5_E4typeES7_S7_S7_RSaIT0_E
FN:1112,_ZSt14__relocate_a_1IPN7testing8TestInfoES2_ENSt9enable_ifIXsrSt24__is_bitwise_relocatableIT_vE5valueEPS5_E4typeES7_S7_S7_RSaIT0_E
FNDA:8,_ZSt14__relocate_a_1IPN7testing8TestInfoES2_ENSt9enable_ifIXsrSt24__is_bitwise_relocatableIT_vE5valueEPS5_E4typeES7_S7_S7_RSaIT0_E
FN:1112,_ZSt14__relocate_a_1IN7testing8internal13edit_distance8EditTypeES3_ENSt9enable_ifIXsrSt24__is_bitwise_relocatableIT_vE5valueEPS6_E4typeES8_S8_S8_RSaIT0_E
FNDA:0,_ZSt14__relocate_a_1IN7testing8internal13edit_distance8EditTypeES3_ENSt9enable_ifIXsrSt24__is_bitwise_relocatableIT_vE5valueEPS6_E4typeES8_S8_S8_RSaIT0_E
FN:1139,_ZSt12__relocate_aIPPN7testing11EnvironmentES3_SaIS2_EET0_T_S6_S5_RT1_
FNDA:0,_ZSt12__relocate_aIPPN7testing11EnvironmentES3_SaIS2_EET0_T_S6_S5_RT1_
FN:1139,_ZSt12__relocate_aIPN7testing8internal9TraceInfoES3_SaIS2_EET0_T_S6_S5_RT1_
FNDA:0,_ZSt12__relocate_aIPN7testing8internal9TraceInfoES3_SaIS2_EET0_T_S6_S5_RT1_
FN:1139,_ZSt12__relocate_aIPPN7testing8TestInfoES3_SaIS2_EET0_T_S6_S5_RT1_
FNDA:8,_ZSt12__relocate_aIPPN7testing8TestInfoES3_SaIS2_EET0_T_S6_S5_RT1_
FN:1139,_ZSt12__relocate_aIPPN7testing9TestSuiteES3_SaIS2_EET0_T_S6_S5_RT1_
FNDA:3,_ZSt12__relocate_aIPPN7testing9TestSuiteES3_SaIS2_EET0_T_S6_S5_RT1_
FN:1139,_ZSt12__relocate_aIPSt10shared_ptrIN7testing8internal26ThreadLocalValueHolderBaseEES5_SaIS4_EET0_T_S8_S7_RT1_
FNDA:0,_ZSt12__relocate_aIPSt10shared_ptrIN7testing8internal26ThreadLocalValueHolderBaseEES5_SaIS4_EET0_T_S8_S7_RT1_
FN:1139,_ZSt12__relocate_aIPN7testing12TestPropertyES2_SaIS1_EET0_T_S5_S4_RT1_
FNDA:0,_ZSt12__relocate_aIPN7testing12TestPropertyES2_SaIS1_EET0_T_S5_S4_RT1_
FN:1139,_ZSt12__relocate_aIPNSt7__cxx1112basic_stringIcSt11char_traitsIcESaIcEEES6_SaIS5_EET0_T_S9_S8_RT1_
FNDA:2,_ZSt12__relocate_aIPNSt7__cxx1112basic_stringIcSt11char_traitsIcESaIcEEES6_SaIS5_EET0_T_S9_S8_RT1_
FN:1139,_ZSt12__relocate_aIPN7testing14TestPartResultES2_SaIS1_EET0_T_S5_S4_RT1_
FNDA:0,_ZSt12__relocate_aIPN7testing14TestPartResultES2_SaIS1_EET0_T_S5_S4_RT1_
FN:1139,_ZSt12__relocate_aIPyS0_SaIyEET0_T_S3_S2_RT1_
FNDA:0,_ZSt12__relocate_aIPyS0_SaIyEET0_T_S3_S2_RT1_
FN:1139,_ZSt12__relocate_aIPN7testing8internal13edit_distance8EditTypeES4_SaIS3_EET0_T_S7_S6_RT1_
FNDA:0,_ZSt12__relocate_aIPN7testing8internal13edit_distance8EditTypeES4_SaIS3_EET0_T_S7_S6_RT1_
FN:1139,_ZSt12__relocate_aIPiS0_SaIiEET0_T_S3_S2_RT1_
FNDA:0,_ZSt12__relocate_aIPiS0_SaIiEET0_T_S3_S2_RT1_
FN:1139,_ZSt12__relocate_aIPPN7testing17TestEventListenerES3_SaIS2_EET0_T_S6_S5_RT1_
FNDA:2,_ZSt12__relocate_aIPPN7testing17TestEventListenerES3_SaIS2_EET0_T_S6_S5_RT1_
FNF:110
FNH:17
DA:113,0
DA:116,0
DA:119,0
DA:120,0
DA:121,0
DA:123,0
DA:125,0
DA:126,0
DA:113,0
DA:116,0
DA:119,0
DA:120,0
DA:121,0
DA:123,0
DA:125,0
DA:126,0
DA:113,0
DA:116,0
DA:119,0
DA:120,0
DA:121,0
DA:123,0
DA:125,0
DA:126,0
DA:113,93
DA:116,93
DA:119,945
DA:120,852
DA:121,93
DA:123,0
DA:125,0
DA:126,0
DA:113,0
DA:116,0
DA:119,0
DA:120,0
DA:121,0
DA:123,0
DA:125,0
DA:126,0
DA:113,0
DA:116,0
DA:119,0
DA:120,0
DA:121,0
DA:123,0
DA:125,0
DA:126,0
DA:113,2
DA:116,2
DA:119,4
DA:120,2
DA:121,2
DA:123,0
DA:125,0
DA:126,0
DA:135,0
DA:137,0
DA:135,0
DA:137,0
DA:135,0
DA:137,0
DA:135,93
DA:137,93
DA:135,0
DA:137,0
DA:135,0
DA:137,0
DA:135,2
DA:137,2
DA:145,0
DA:147,0
DA:145,0
DA:147,0
DA:145,0
DA:147,0
DA:145,0
DA:147,0
DA:145,0
DA:147,0
DA:145,0
DA:147,0
DA:145,0
DA:147,0
DA:145,0
DA:147,0
DA:145,0
DA:147,0
DA:163,0
DA:174,0
DA:181,0
DA:185,0
DA:163,0
DA:174,0
DA:181,0
DA:185,0
DA:163,0
DA:174,0
DA:181,0
DA:185,0
DA:163,0
DA:174,0
DA:181,0
DA:185,0
DA:163,0
DA:174,0
DA:181,0
DA:185,0
DA:163,0
DA:174,0
DA:181,0
DA:185,0
DA:163,0
DA:174,0
DA:181,0
DA:185,0
DA:163,0
DA:174,0
DA:181,0
DA:185,0
DA:163,0
DA:174,0
DA:181,0
DA:185,0
DA:163,0
DA:174,0
DA:181,0
DA:185,0
DA:163,0
DA:174,0
DA:181,0
DA:185,0
DA:163,93
DA:174,93
DA:181,93
DA:185,93
DA:163,0
DA:174,0
DA:181,0
DA:185,0
DA:163,0
DA:174,0
DA:181,0
DA:185,0
DA:163,0
DA:174,0
DA:181,0
DA:185,0
DA:163,2
DA:174,2
DA:181,2
DA:185,2
DA:261,0
DA:263,0
DA:266,0
DA:267,0
DA:268,0
DA:270,0
DA:272,0
DA:273,0
DA:261,0
DA:263,0
DA:266,0
DA:267,0
DA:268,0
DA:270,0
DA:272,0
DA:273,0
DA:282,0
DA:284,0
DA:282,0
DA:284,0
DA:312,0
DA:319,0
DA:327,0
DA:312,0
DA:319,0
DA:327,0
DA:366,0
DA:373,0
DA:366,0
DA:373,0
DA:366,0
DA:373,0
DA:366,0
DA:373,0
DA:366,0
DA:373,0
DA:366,0
DA:373,0
DA:366,0
DA:373,0
DA:366,0
DA:373,0
DA:366,0
DA:373,0
DA:366,0
DA:373,0
DA:366,0
DA:373,0
DA:366,93
DA:373,93
DA:366,0
DA:373,0
DA:366,0
DA:373,0
DA:366,0
DA:373,0
DA:366,2
DA:373,2
DA:393,0
DA:399,0
DA:400,0
DA:393,0
DA:399,0
DA:400,0
DA:393,0
DA:399,0
DA:400,0
DA:393,0
DA:399,0
DA:400,0
DA:393,0
DA:399,0
DA:400,0
DA:393,0
DA:399,0
DA:400,0
DA:393,0
DA:399,0
DA:400,0
DA:393,0
DA:399,0
DA:400,0
DA:393,0
DA:399,0
DA:400,0
DA:393,0
DA:399,0
DA:400,0
DA:393,0
DA:399,0
DA:400,0
DA:393,0
DA:399,0
DA:400,0
DA:465,0
DA:472,0
DA:465,0
DA:472,0
DA:660,0
DA:662,0
DA:665,0
DA:666,0
DA:667,0
DA:668,0
DA:670,0
DA:660,0
DA:662,0
DA:665,0
DA:666,0
DA:667,0
DA:668,0
DA:670,0
DA:696,0
DA:707,0
DA:712,0
DA:696,0
DA:707,0
DA:712,0
DA:777,0
DA:779,0
DA:777,0
DA:779,0
DA:1067,1
DA:1075,1
DA:1076,1
DA:1077,1
DA:1067,0
DA:1075,0
DA:1076,0
DA:1077,0
DA:1067,0
DA:1075,0
DA:1076,0
DA:1077,0
DA:1067,0
DA:1075,0
DA:1076,0
DA:1077,0
DA:1067,0
DA:1075,0
DA:1076,0
DA:1077,0
DA:1089,2
DA:1101,2
DA:1102,3
DA:1103,1
DA:1105,2
DA:1089,0
DA:1101,0
DA:1102,0
DA:1103,0
DA:1105,0
DA:1089,0
DA:1101,0
DA:1102,0
DA:1103,0
DA:1105,0
DA:1089,0
DA:1101,0
DA:1102,0
DA:1103,0
DA:1105,0
DA:1089,0
DA:1101,0
DA:1102,0
DA:1103,0
DA:1105,0
DA:1112,0
DA:1116,0
DA:1117,0
DA:1129,0
DA:1131,0
DA:1112,0
DA:1116,0
DA:1117,0
DA:1129,0
DA:1131,0
DA:1112,3
DA:1116,3
DA:1117,3
DA:1129,2
DA:1131,3
DA:1112,0
DA:1116,0
DA:1117,0
DA:1129,0
DA:1131,0
DA:1112,2
DA:1116,2
DA:1117,2
DA:1129,1
DA:1131,2
DA:1112,8
DA:1116,8
DA:1117,8
DA:1129,4
DA:1131,8
DA:1112,0
DA:1116,0
DA:1117,0
DA:1129,0
DA:1131,0
DA:1139,0
DA:1145,0
DA:1147,0
DA:1139,0
DA:1145,0
DA:1147,0
DA:1139,2
DA:1145,2
DA:1147,2
DA:1139,0
DA:1145,0
DA:1147,0
DA:1139,3
DA:1145,3
DA:1147,3
DA:1139,0
DA:1145,0
DA:1147,0
DA:1139,0
DA:1145,0
DA:1147,0
DA:1139,2
DA:1145,2
DA:1147,2
DA:1139,8
DA:1145,8
DA:1147,8
DA:1139,0
DA:1145,0
DA:1147,0
DA:1139,0
DA:1145,0
DA:1147,0
DA:1139,0
DA:1145,0
DA:1147,0
LF:390
LH:62
end_of_record
SF:C:\msys64\mingw64\include\c++\14.1.0\bits\shared_ptr_base.h
FN:129,_ZNSt16_Sp_counted_baseILN9__gnu_cxx12_Lock_policyE2EEC2Ev
FNDA:0,_ZNSt16_Sp_counted_baseILN9__gnu_cxx12_Lock_policyE2EEC2Ev
FN:133,_ZNSt16_Sp_counted_baseILN9__gnu_cxx12_Lock_policyE2EED2Ev
FNDA:0,_ZNSt16_Sp_counted_baseILN9__gnu_cxx12_Lock_policyE2EED2Ev
FN:143,_ZNSt16_Sp_counted_baseILN9__gnu_cxx12_Lock_policyE2EE10_M_destroyEv
FNDA:0,_ZNSt16_Sp_counted_baseILN9__gnu_cxx12_Lock_policyE2EE10_M_destroyEv
FN:151,_ZNSt16_Sp_counted_baseILN9__gnu_cxx12_Lock_policyE2EE15_M_add_ref_copyEv
FNDA:0,_ZNSt16_Sp_counted_baseILN9__gnu_cxx12_Lock_policyE2EE15_M_add_ref_copyEv
FN:172,_ZNSt16_Sp_counted_baseILN9__gnu_cxx12_Lock_policyE2EE19_M_release_last_useEv
FNDA:0,_ZNSt16_Sp_counted_baseILN9__gnu_cxx12_Lock_policyE2EE19_M_release_last_useEv
FN:198,_ZNSt16_Sp_counted_baseILN9__gnu_cxx12_Lock_policyE2EE24_M_release_last_use_coldEv
FNDA:0,_ZNSt16_Sp_counted_baseILN9__gnu_cxx12_Lock_policyE2EE24_M_release_last_use_coldEv
FN:317,_ZNSt16_Sp_counted_baseILN9__gnu_cxx12_Lock_policyE2EE10_M_releaseEv
FNDA:0,_ZNSt16_Sp_counted_baseILN9__gnu_cxx12_Lock_policyE2EE10_M_releaseEv
FN:423,_ZNSt15_Sp_counted_ptrIPN7testing8internal26ThreadLocalValueHolderBaseELN9__gnu_cxx12_Lock_policyE2EEC1ES3_
FNDA:0,_ZNSt15_Sp_counted_ptrIPN7testing8internal26ThreadLocalValueHolderBaseELN9__gnu_cxx12_Lock_policyE2EEC1ES3_
FN:427,_ZNSt15_Sp_counted_ptrIPN7testing8internal26ThreadLocalValueHolderBaseELN9__gnu_cxx12_Lock_policyE2EE10_M_disposeEv
FNDA:0,_ZNSt15_Sp_counted_ptrIPN7testing8internal26ThreadLocalValueHolderBaseELN9__gnu_cxx12_Lock_policyE2EE10_M_disposeEv
FN:431,_ZNSt15_Sp_counted_ptrIPN7testing8internal26ThreadLocalValueHolderBaseELN9__gnu_cxx12_Lock_policyE2EE10_M_destroyEv
FNDA:0,_ZNSt15_Sp_counted_ptrIPN7testing8internal26ThreadLocalValueHolderBaseELN9__gnu_cxx12_Lock_policyE2EE10_M_destroyEv
FN:435,_ZNSt15_Sp_counted_ptrIPN7testing8internal26ThreadLocalValueHolderBaseELN9__gnu_cxx12_Lock_policyE2EE14_M_get_deleterERKSt9type_info
FNDA:0,_ZNSt15_Sp_counted_ptrIPN7testing8internal26ThreadLocalValueHolderBaseELN9__gnu_cxx12_Lock_policyE2EE14_M_get_deleterERKSt9type_info
FN:906,_ZNSt14__shared_countILN9__gnu_cxx12_Lock_policyE2EEC1Ev
FNDA:0,_ZNSt14__shared_countILN9__gnu_cxx12_Lock_policyE2EEC1Ev
FN:911,_ZNSt14__shared_countILN9__gnu_cxx12_Lock_policyE2EEC1IPN7testing8internal26ThreadLocalValueHolderBaseEEET_
FNDA:0,_ZNSt14__shared_countILN9__gnu_cxx12_Lock_policyE2EEC1IPN7testing8internal26ThreadLocalValueHolderBaseEEET_
FN:925,_ZNSt14__shared_countILN9__gnu_cxx12_Lock_policyE2EEC1IPN7testing8internal26ThreadLocalValueHolderBaseEEET_St17integral_constantIbLb0EE
FNDA:0,_ZNSt14__shared_countILN9__gnu_cxx12_Lock_policyE2EEC1IPN7testing8internal26ThreadLocalValueHolderBaseEEET_St17integral_constantIbLb0EE
FN:1066,_ZNSt14__shared_countILN9__gnu_cxx12_Lock_policyE2EED1Ev
FNDA:0,_ZNSt14__shared_countILN9__gnu_cxx12_Lock_policyE2EED1Ev
FN:1072,_ZNSt14__shared_countILN9__gnu_cxx12_Lock_policyE2EEC1ERKS2_
FNDA:0,_ZNSt14__shared_countILN9__gnu_cxx12_Lock_policyE2EEC1ERKS2_
FN:1095,_ZNSt14__shared_countILN9__gnu_cxx12_Lock_policyE2EE7_M_swapERS2_
FNDA:0,_ZNSt14__shared_countILN9__gnu_cxx12_Lock_policyE2EE7_M_swapERS2_
FN:1469,_ZNSt12__shared_ptrIN7testing8internal26ThreadLocalValueHolderBaseELN9__gnu_cxx12_Lock_policyE2EEC2IS2_vEEPT_
FNDA:0,_ZNSt12__shared_ptrIN7testing8internal26ThreadLocalValueHolderBaseELN9__gnu_cxx12_Lock_policyE2EEC2IS2_vEEPT_
FN:1523,_ZNSt12__shared_ptrIN7testing8internal26ThreadLocalValueHolderBaseELN9__gnu_cxx12_Lock_policyE2EEC2ERKS5_
FNDA:0,_ZNSt12__shared_ptrIN7testing8internal26ThreadLocalValueHolderBaseELN9__gnu_cxx12_Lock_policyE2EEC2ERKS5_
FN:1525,_ZNSt12__shared_ptrIN7testing8internal26ThreadLocalValueHolderBaseELN9__gnu_cxx12_Lock_policyE2EED2Ev
FNDA:0,_ZNSt12__shared_ptrIN7testing8internal26ThreadLocalValueHolderBaseELN9__gnu_cxx12_Lock_policyE2EED2Ev
FN:1532,_ZNSt12__shared_ptrIN7testing8internal26ThreadLocalValueHolderBaseELN9__gnu_cxx12_Lock_policyE2EEC2EOS5_
FNDA:0,_ZNSt12__shared_ptrIN7testing8internal26ThreadLocalValueHolderBaseELN9__gnu_cxx12_Lock_policyE2EEC2EOS5_
FN:1666,_ZNKSt12__shared_ptrIN7testing8internal26ThreadLocalValueHolderBaseELN9__gnu_cxx12_Lock_policyE2EE3getEv
FNDA:0,_ZNKSt12__shared_ptrIN7testing8internal26ThreadLocalValueHolderBaseELN9__gnu_cxx12_Lock_policyE2EE3getEv
FN:1766,_ZNSt12__shared_ptrIN7testing8internal26ThreadLocalValueHolderBaseELN9__gnu_cxx12_Lock_policyE2EE31_M_enable_shared_from_this_withIS2_S2_EENSt9enable_ifIXntsrNS5_15__has_esft_baseIT0_vEE5valueEvE4typeEPT_
FNDA:0,_ZNSt12__shared_ptrIN7testing8internal26ThreadLocalValueHolderBaseELN9__gnu_cxx12_Lock_policyE2EE31_M_enable_shared_from_this_withIS2_S2_EENSt9enable_ifIXntsrNS5_15__has_esft_baseIT0_vEE5valueEvE4typeEPT_
FNF:23
FNH:0
DA:129,0
DA:130,0
DA:133,0
DA:134,0
DA:143,0
DA:144,0
DA:151,0
DA:152,0
DA:172,0
DA:175,0
DA:187,0
DA:188,0
DA:191,0
DA:193,0
DA:198,0
DA:199,0
DA:317,0
DA:321,0
DA:324,0
DA:328,0
DA:331,0
DA:332,0
DA:333,0
DA:334,0
DA:337,0
DA:343,0
DA:346,0
DA:347,0
DA:348,0
DA:350,0
DA:351,0
DA:353,0
DA:354,0
DA:423,0
DA:424,0
DA:427,0
DA:428,0
DA:431,0
DA:432,0
DA:435,0
DA:436,0
DA:906,0
DA:907,0
DA:911,0
DA:915,0
DA:917,0
DA:919,0
DA:920,0
DA:922,0
DA:925,0
DA:926,0
DA:927,0
DA:1066,0
DA:1068,0
DA:1069,0
DA:1070,0
DA:1072,0
DA:1073,0
DA:1075,0
DA:1076,0
DA:1077,0
DA:1095,0
DA:1097,0
DA:1098,0
DA:1099,0
DA:1100,0
DA:1469,0
DA:1470,0
DA:1474,0
DA:1475,0
DA:1523,0
DA:1525,0
DA:1532,0
DA:1533,0
DA:1535,0
DA:1536,0
DA:1537,0
DA:1666,0
DA:1667,0
DA:1766,0
DA:1767,0
LF:81
LH:0
end_of_record
SF:C:\workspace\matrixGenerator\build\_deps\googletest-src\googletest\include\gtest\internal\gtest-param-util.h
FN:686,_ZN7testing8internal30ParameterizedTestSuiteRegistryC1Ev
FNDA:1,_ZN7testing8internal30ParameterizedTestSuiteRegistryC1Ev
FN:687,_ZN7testing8internal30ParameterizedTestSuiteRegistryD1Ev
FNDA:0,_ZN7testing8internal30ParameterizedTestSuiteRegistryD1Ev
FN:724,_ZN7testing8internal30ParameterizedTestSuiteRegistry13RegisterTestsEv
FNDA:1,_ZN7testing8internal30ParameterizedTestSuiteRegistry13RegisterTestsEv
FN:765,_ZN7testing8internal34TypeParameterizedTestSuiteRegistry30TypeParameterizedTestSuiteInfoC1ENS0_12CodeLocationE
FNDA:0,_ZN7testing8internal34TypeParameterizedTestSuiteRegistry30TypeParameterizedTestSuiteInfoC1ENS0_12CodeLocationE
FNF:4
FNH:2
DA:686,1
DA:687,0
DA:688,0
DA:689,0
DA:691,0
DA:724,1
DA:725,1
DA:726,0
DA:728,1
DA:765,0
DA:766,0
LF:11
LH:4
end_of_record
SF:C:\msys64\mingw64\include\c++\14.1.0\bits\allocator.h
DA:161,1207
DA:166,190
DA:182,1273
DA:215,0
DA:221,0
LF:5
LH:3
end_of_record
SF:C:\workspace\matrixGenerator\build\_deps\googletest-src\googletest\src\gtest-port.cc
FN:273,_ZN7testing8internal14GetThreadCountEv
FNDA:0,_ZN7testing8internal14GetThreadCountEv
FN:283,_ZN7testing8internal17SleepMillisecondsEi
FNDA:0,_ZN7testing8internal17SleepMillisecondsEi
FN:287,_ZN7testing8internal10AutoHandleC2Ev
FNDA:0,_ZN7testing8internal10AutoHandleC2Ev
FN:290,_ZN7testing8internal10AutoHandleC2EPv
FNDA:0,_ZN7testing8internal10AutoHandleC2EPv
FN:293,_ZN7testing8internal10AutoHandleD2Ev
FNDA:0,_ZN7testing8internal10AutoHandleD2Ev
FN:297,_ZNK7testing8internal10AutoHandle3GetEv
FNDA:0,_ZNK7testing8internal10AutoHandle3GetEv
FN:301,_ZN7testing8internal10AutoHandle5ResetEv
FNDA:0,_ZN7testing8internal10AutoHandle5ResetEv
FN:305,_ZN7testing8internal10AutoHandle5ResetEPv
FNDA:0,_ZN7testing8internal10AutoHandle5ResetEPv
FN:319,_ZNK7testing8internal10AutoHandle11IsCloseableEv
FNDA:0,_ZNK7testing8internal10AutoHandle11IsCloseableEv
FN:325,_ZN7testing8internal12NotificationC2Ev
FNDA:0,_ZN7testing8internal12NotificationC2Ev
FN:333,_ZN7testing8internal12Notification6NotifyEv
FNDA:0,_ZN7testing8internal12Notification6NotifyEv
FN:337,_ZN7testing8internal12Notification19WaitForNotificationEv
FNDA:0,_ZN7testing8internal12Notification19WaitForNotificationEv
FN:342,_ZN7testing8internal5MutexC2Ev
FNDA:16,_ZN7testing8internal5MutexC2Ev
FN:350,_ZN7testing8internal5MutexD2Ev
FNDA:0,_ZN7testing8internal5MutexD2Ev
FN:360,_ZN7testing8internal5Mutex4LockEv
FNDA:0,_ZN7testing8internal5Mutex4LockEv
FN:366,_ZN7testing8internal5Mutex6UnlockEv
FNDA:0,_ZN7testing8internal5Mutex6UnlockEv
FN:377,_ZN7testing8internal5Mutex10AssertHeldEv
FNDA:0,_ZN7testing8internal5Mutex10AssertHeldEv
FN:419,_ZN7testing8internal5Mutex18ThreadSafeLazyInitEv
FNDA:0,_ZN7testing8internal5Mutex18ThreadSafeLazyInitEv
FN:469,_ZN7testing8internal12_GLOBAL__N_122ThreadWithParamSupport12CreateThreadEPNS0_19ThreadWithParamBase8RunnableEPNS0_12NotificationE
FNDA:0,_ZN7testing8internal12_GLOBAL__N_122ThreadWithParamSupport12CreateThreadEPNS0_19ThreadWithParamBase8RunnableEPNS0_12NotificationE
FN:490,_ZN7testing8internal12_GLOBAL__N_122ThreadWithParamSupport15ThreadMainParamC2EPNS0_19ThreadWithParamBase8RunnableEPNS0_12NotificationE
FNDA:0,_ZN7testing8internal12_GLOBAL__N_122ThreadWithParamSupport15ThreadMainParamC2EPNS0_19ThreadWithParamBase8RunnableEPNS0_12NotificationE
FN:499,_ZN7testing8internal12_GLOBAL__N_122ThreadWithParamSupport10ThreadMainEPv
FNDA:0,_ZN7testing8internal12_GLOBAL__N_122ThreadWithParamSupport10ThreadMainEPv
FN:516,_ZN7testing8internal19ThreadWithParamBaseC2EPNS1_8RunnableEPNS0_12NotificationE
FNDA:0,_ZN7testing8internal19ThreadWithParamBaseC2EPNS1_8RunnableEPNS0_12NotificationE
FN:522,_ZN7testing8internal19ThreadWithParamBaseD2Ev
FNDA:0,_ZN7testing8internal19ThreadWithParamBaseD2Ev
FN:522,_ZN7testing8internal19ThreadWithParamBaseD0Ev
FNDA:0,_ZN7testing8internal19ThreadWithParamBaseD0Ev
FN:526,_ZN7testing8internal19ThreadWithParamBase4JoinEv
FNDA:0,_ZN7testing8internal19ThreadWithParamBase4JoinEv
FN:539,_ZN7testing8internal23ThreadLocalRegistryImpl23GetValueOnCurrentThreadEPKNS0_15ThreadLocalBaseE
FNDA:0,_ZN7testing8internal23ThreadLocalRegistryImpl23GetValueOnCurrentThreadEPKNS0_15ThreadLocalBaseE
FN:570,_ZN7testing8internal23ThreadLocalRegistryImpl22OnThreadLocalDestroyedEPKNS0_15ThreadLocalBaseE
FNDA:0,_ZN7testing8internal23ThreadLocalRegistryImpl22OnThreadLocalDestroyedEPKNS0_15ThreadLocalBaseE
FN:598,_ZN7testing8internal23ThreadLocalRegistryImpl12OnThreadExitEm
FNDA:0,_ZN7testing8internal23ThreadLocalRegistryImpl12OnThreadExitEm
FN:637,_ZN7testing8internal23ThreadLocalRegistryImpl21StartWatcherThreadForEm
FNDA:0,_ZN7testing8internal23ThreadLocalRegistryImpl21StartWatcherThreadForEm
FN:664,_ZN7testing8internal23ThreadLocalRegistryImpl17WatcherThreadFuncEPv
FNDA:0,_ZN7testing8internal23ThreadLocalRegistryImpl17WatcherThreadFuncEPv
FN:676,_ZN7testing8internal23ThreadLocalRegistryImpl24GetThreadLocalsMapLockedEv
FNDA:0,_ZN7testing8internal23ThreadLocalRegistryImpl24GetThreadLocalsMapLockedEv
FN:694,_ZN7testing8internal19ThreadLocalRegistry23GetValueOnCurrentThreadEPKNS0_15ThreadLocalBaseE
FNDA:0,_ZN7testing8internal19ThreadLocalRegistry23GetValueOnCurrentThreadEPKNS0_15ThreadLocalBaseE
FN:700,_ZN7testing8internal19ThreadLocalRegistry22OnThreadLocalDestroyedEPKNS0_15ThreadLocalBaseE
FNDA:0,_ZN7testing8internal19ThreadLocalRegistry22OnThreadLocalDestroyedEPKNS0_15ThreadLocalBaseE
FN:774,_ZN7testing8internal7IsInSetEcPKc
FNDA:0,_ZN7testing8internal7IsInSetEcPKc
FN:781,_ZN7testing8internal12IsAsciiDigitEc
FNDA:0,_ZN7testing8internal12IsAsciiDigitEc
FN:782,_ZN7testing8internal12IsAsciiPunctEc
FNDA:0,_ZN7testing8internal12IsAsciiPunctEc
FN:785,_ZN7testing8internal8IsRepeatEc
FNDA:0,_ZN7testing8internal8IsRepeatEc
FN:786,_ZN7testing8internal17IsAsciiWhiteSpaceEc
FNDA:0,_ZN7testing8internal17IsAsciiWhiteSpaceEc
FN:787,_ZN7testing8internal15IsAsciiWordCharEc
FNDA:0,_ZN7testing8internal15IsAsciiWordCharEc
FN:793,_ZN7testing8internal13IsValidEscapeEc
FNDA:0,_ZN7testing8internal13IsValidEscapeEc
FN:799,_ZN7testing8internal15AtomMatchesCharEbcc
FNDA:0,_ZN7testing8internal15AtomMatchesCharEbcc
FN:821,_ZN7testing8internalL22FormatRegexSyntaxErrorEPKci
FNDA:0,_ZN7testing8internalL22FormatRegexSyntaxErrorEPKci
FN:828,_ZN7testing8internal13ValidateRegexEPKc
FNDA:0,_ZN7testing8internal13ValidateRegexEPKc
FN:888,_ZN7testing8internal29MatchRepetitionAndRegexAtHeadEbccPKcS2_
FNDA:0,_ZN7testing8internal29MatchRepetitionAndRegexAtHeadEbccPKcS2_
FN:915,_ZN7testing8internal16MatchRegexAtHeadEPKcS2_
FNDA:0,_ZN7testing8internal16MatchRegexAtHeadEPKcS2_
FN:951,_ZN7testing8internal18MatchRegexAnywhereEPKcS2_
FNDA:0,_ZN7testing8internal18MatchRegexAnywhereEPKcS2_
FN:967,_ZN7testing8internal2RED2Ev
FNDA:0,_ZN7testing8internal2RED2Ev
FN:973,_ZN7testing8internal2RE9FullMatchEPKcRKS1_
FNDA:0,_ZN7testing8internal2RE9FullMatchEPKcRKS1_
FN:979,_ZN7testing8internal2RE12PartialMatchEPKcRKS1_
FNDA:0,_ZN7testing8internal2RE12PartialMatchEPKcRKS1_
FN:984,_ZN7testing8internal2RE4InitEPKc
FNDA:0,_ZN7testing8internal2RE4InitEPKc
FN:1023,_ZN7testing8internal18FormatFileLocationB5cxx11EPKci
FNDA:0,_ZN7testing8internal18FormatFileLocationB5cxx11EPKci
FN:1041,_ZN7testing8internal37FormatCompilerIndependentFileLocationB5cxx11EPKci
FNDA:0,_ZN7testing8internal37FormatCompilerIndependentFileLocationB5cxx11EPKci
FN:1051,_ZN7testing8internal8GTestLogC2ENS0_16GTestLogSeverityEPKci
FNDA:0,_ZN7testing8internal8GTestLogC2ENS0_16GTestLogSeverityEPKci
FN:1062,_ZN7testing8internal8GTestLogD2Ev
FNDA:0,_ZN7testing8internal8GTestLogD2Ev
FN:1080,_ZN7testing8internal14CapturedStreamC1Ei
FNDA:0,_ZN7testing8internal14CapturedStreamC1Ei
FN:1159,_ZN7testing8internal14CapturedStreamD1Ev
FNDA:0,_ZN7testing8internal14CapturedStreamD1Ev
FN:1163,_ZN7testing8internal14CapturedStream17GetCapturedStringB5cxx11Ev
FNDA:0,_ZN7testing8internal14CapturedStream17GetCapturedStringB5cxx11Ev
FN:1197,_ZN7testing8internalL13CaptureStreamEiPKcPPNS0_14CapturedStreamE
FNDA:0,_ZN7testing8internalL13CaptureStreamEiPKcPPNS0_14CapturedStreamE
FN:1207,_ZN7testing8internalL17GetCapturedStreamEPPNS0_14CapturedStreamE
FNDA:0,_ZN7testing8internalL17GetCapturedStreamEPPNS0_14CapturedStreamE
FN:1217,_ZN7testing8internal13CaptureStdoutEv
FNDA:0,_ZN7testing8internal13CaptureStdoutEv
FN:1222,_ZN7testing8internal13CaptureStderrEv
FNDA:0,_ZN7testing8internal13CaptureStderrEv
FN:1227,_ZN7testing8internal17GetCapturedStdoutB5cxx11Ev
FNDA:0,_ZN7testing8internal17GetCapturedStdoutB5cxx11Ev
FN:1232,_ZN7testing8internal17GetCapturedStderrB5cxx11Ev
FNDA:0,_ZN7testing8internal17GetCapturedStderrB5cxx11Ev
FN:1242,_ZN7testing8internal11GetFileSizeEP6_iobuf
FNDA:0,_ZN7testing8internal11GetFileSizeEP6_iobuf
FN:1247,_ZN7testing8internal14ReadEntireFileB5cxx11EP6_iobuf
FNDA:0,_ZN7testing8internal14ReadEntireFileB5cxx11EP6_iobuf
FN:1273,_ZN7testing8internal18GetInjectableArgvsB5cxx11Ev
FNDA:0,_ZN7testing8internal18GetInjectableArgvsB5cxx11Ev
FN:1280,_ZN7testing8internal18SetInjectableArgvsEPKSt6vectorINSt7__cxx1112basic_stringIcSt11char_traitsIcESaIcEEESaIS7_EE
FNDA:0,_ZN7testing8internal18SetInjectableArgvsEPKSt6vectorINSt7__cxx1112basic_stringIcSt11char_traitsIcESaIcEEESaIS7_EE
FN:1285,_ZN7testing8internal18SetInjectableArgvsERKSt6vectorINSt7__cxx1112basic_stringIcSt11char_traitsIcESaIcEEESaIS7_EE
FNDA:0,_ZN7testing8internal18SetInjectableArgvsERKSt6vectorINSt7__cxx1112basic_stringIcSt11char_traitsIcESaIcEEESaIS7_EE
FN:1290,_ZN7testing8internal20ClearInjectableArgvsEv
FNDA:0,_ZN7testing8internal20ClearInjectableArgvsEv
FN:1308,_ZN7testing8internalL12FlagToEnvVarEPKc
FNDA:20,_ZN7testing8internalL12FlagToEnvVarEPKc
FN:1323,_ZN7testing8internal10ParseInt32ERKNS_7MessageEPKcPi
FNDA:0,_ZN7testing8internal10ParseInt32ERKNS_7MessageEPKcPi
FN:1365,_ZN7testing8internal16BoolFromGTestEnvEPKcb
FNDA:11,_ZN7testing8internal16BoolFromGTestEnvEPKcb
FN:1379,_ZN7testing8internal17Int32FromGTestEnvEPKci
FNDA:3,_ZN7testing8internal17Int32FromGTestEnvEPKci
FN:1411,_ZN7testing8internal25OutputFlagAlsoCheckEnvVarB5cxx11Ev
FNDA:1,_ZN7testing8internal25OutputFlagAlsoCheckEnvVarB5cxx11Ev
FN:1422,_ZN7testing8internal18StringFromGTestEnvEPKcS2_
FNDA:6,_ZN7testing8internal18StringFromGTestEnvEPKcS2_
FNF:75
FNH:6
DA:273,0
DA:276,0
DA:283,0
DA:284,0
DA:285,0
DA:287,0
DA:288,0
DA:290,0
DA:291,0
DA:293,0
DA:294,0
DA:295,0
DA:297,0
DA:298,0
DA:301,0
DA:302,0
DA:303,0
DA:305,0
DA:307,0
DA:308,0
DA:309,0
DA:311,0
DA:313,0
DA:315,0
DA:317,0
DA:319,0
DA:322,0
DA:325,0
DA:326,0
DA:330,0
DA:331,0
DA:333,0
DA:334,0
DA:335,0
DA:337,0
DA:338,0
DA:340,0
DA:342,16
DA:343,16
DA:344,16
DA:345,16
DA:346,16
DA:347,16
DA:348,16
DA:350,0
DA:353,0
DA:354,0
DA:355,0
DA:356,0
DA:358,0
DA:360,0
DA:361,0
DA:362,0
DA:363,0
DA:364,0
DA:366,0
DA:367,0
DA:371,0
DA:372,0
DA:373,0
DA:377,0
DA:378,0
DA:379,0
DA:380,0
DA:381,0
DA:419,0
DA:421,0
DA:422,0
DA:423,0
DA:424,0
DA:427,0
DA:433,0
DA:435,0
DA:438,0
DA:441,0
DA:442,0
DA:445,0
DA:447,0
DA:450,0
DA:452,0
DA:454,0
DA:455,0
DA:457,0
DA:458,0
DA:460,0
DA:463,0
DA:469,0
DA:471,0
DA:473,0
DA:480,0
DA:481,0
DA:482,0
DA:483,0
DA:485,0
DA:490,0
DA:491,0
DA:492,0
DA:493,0
DA:499,0
DA:501,0
DA:502,0
DA:503,0
DA:504,0
DA:505,0
DA:506,0
DA:516,0
DA:517,0
DA:518,0
DA:519,0
DA:520,0
DA:522,0
DA:524,0
DA:522,0
DA:523,0
DA:524,0
DA:526,0
DA:527,0
DA:528,0
DA:529,0
DA:539,0
DA:544,0
DA:545,0
DA:547,0
DA:549,0
DA:550,0
DA:551,0
DA:552,0
DA:553,0
DA:555,0
DA:557,0
DA:558,0
DA:559,0
DA:561,0
DA:563,0
DA:564,0
DA:567,0
DA:568,0
DA:570,0
DA:572,0
DA:576,0
DA:578,0
DA:579,0
DA:580,0
DA:581,0
DA:582,0
DA:583,0
DA:585,0
DA:586,0
DA:587,0
DA:588,0
DA:593,0
DA:596,0
DA:598,0
DA:599,0
DA:600,0
DA:604,0
DA:606,0
DA:608,0
DA:609,0
DA:610,0
DA:611,0
DA:612,0
DA:613,0
DA:614,0
DA:615,0
DA:617,0
DA:619,0
DA:622,0
DA:637,0
DA:640,0
DA:642,0
DA:643,0
DA:647,0
DA:651,0
DA:653,0
DA:656,0
DA:658,0
DA:659,0
DA:660,0
DA:664,0
DA:665,0
DA:667,0
DA:669,0
DA:670,0
DA:671,0
DA:672,0
DA:676,0
DA:677,0
DA:681,0
DA:682,0
DA:694,0
DA:696,0
DA:697,0
DA:700,0
DA:702,0
DA:703,0
DA:774,0
DA:775,0
DA:781,0
DA:782,0
DA:783,0
DA:785,0
DA:786,0
DA:787,0
DA:788,0
DA:789,0
DA:793,0
DA:794,0
DA:799,0
DA:800,0
DA:801,0
DA:802,0
DA:803,0
DA:804,0
DA:805,0
DA:806,0
DA:807,0
DA:808,0
DA:809,0
DA:810,0
DA:811,0
DA:812,0
DA:814,0
DA:817,0
DA:821,0
DA:822,0
DA:823,0
DA:828,0
DA:829,0
DA:830,0
DA:831,0
DA:834,0
DA:837,0
DA:838,0
DA:839,0
DA:840,0
DA:841,0
DA:842,0
DA:843,0
DA:844,0
DA:847,0
DA:848,0
DA:849,0
DA:850,0
DA:852,0
DA:854,0
DA:856,0
DA:857,0
DA:858,0
DA:859,0
DA:860,0
DA:861,0
DA:862,0
DA:863,0
DA:864,0
DA:865,0
DA:866,0
DA:867,0
DA:868,0
DA:869,0
DA:870,0
DA:871,0
DA:874,0
DA:878,0
DA:888,0
DA:891,0
DA:892,0
DA:897,0
DA:899,0
DA:904,0
DA:906,0
DA:907,0
DA:909,0
DA:915,0
DA:916,0
DA:917,0
DA:921,0
DA:922,0
DA:925,0
DA:926,0
DA:927,0
DA:928,0
DA:932,0
DA:933,0
DA:938,0
DA:939,0
DA:951,0
DA:952,0
DA:954,0
DA:955,0
DA:959,0
DA:960,0
DA:961,0
DA:962,0
DA:967,0
DA:968,0
DA:969,0
DA:970,0
DA:973,0
DA:974,0
DA:979,0
DA:980,0
DA:984,0
DA:985,0
DA:986,0
DA:987,0
DA:990,0
DA:991,0
DA:993,0
DA:996,0
DA:1000,0
DA:1001,0
DA:1003,0
DA:1004,0
DA:1008,0
DA:1009,0
DA:1011,0
DA:1012,0
DA:1014,0
DA:1023,0
DA:1024,0
DA:1026,0
DA:1027,0
DA:1032,0
DA:1034,0
DA:1041,0
DA:1043,0
DA:1045,0
DA:1046,0
DA:1048,0
DA:1049,0
DA:1051,0
DA:1052,0
DA:1053,0
DA:1057,0
DA:1058,0
DA:1059,0
DA:1062,0
DA:1063,0
DA:1064,0
DA:1065,0
DA:1066,0
DA:1068,0
DA:1080,0
DA:1082,0
DA:1083,0
DA:1085,0
DA:1086,0
DA:1090,0
DA:1091,0
DA:1092,0
DA:1093,0
DA:1094,0
DA:1095,0
DA:1154,0
DA:1155,0
DA:1156,0
DA:1157,0
DA:1159,0
DA:1160,0
DA:1161,0
DA:1163,0
DA:1164,0
DA:1166,0
DA:1167,0
DA:1168,0
DA:1169,0
DA:1172,0
DA:1173,0
DA:1174,0
DA:1175,0
DA:1177,0
DA:1178,0
DA:1179,0
DA:1180,0
DA:1197,0
DA:1199,0
DA:1200,0
DA:1201,0
DA:1203,0
DA:1204,0
DA:1207,0
DA:1208,0
DA:1210,0
DA:1211,0
DA:1213,0
DA:1217,0
DA:1218,0
DA:1219,0
DA:1222,0
DA:1223,0
DA:1224,0
DA:1227,0
DA:1228,0
DA:1232,0
DA:1233,0
DA:1242,0
DA:1243,0
DA:1244,0
DA:1247,0
DA:1248,0
DA:1249,0
DA:1251,0
DA:1252,0
DA:1254,0
DA:1259,0
DA:1260,0
DA:1261,0
DA:1263,0
DA:1264,0
DA:1266,0
DA:1273,0
DA:1274,0
DA:1275,0
DA:1277,0
DA:1280,0
DA:1281,0
DA:1282,0
DA:1283,0
DA:1285,0
DA:1286,0
DA:1287,0
DA:1288,0
DA:1290,0
DA:1291,0
DA:1292,0
DA:1293,0
DA:1308,20
DA:1310,20
DA:1312,20
DA:1313,392
DA:1314,372
DA:1317,40
DA:1318,20
DA:1323,0
DA:1325,0
DA:1326,0
DA:1329,0
DA:1331,0
DA:1332,0
DA:1333,0
DA:1334,0
DA:1335,0
DA:1336,0
DA:1337,0
DA:1338,0
DA:1341,0
DA:1342,0
DA:1348,0
DA:1349,0
DA:1350,0
DA:1351,0
DA:1352,0
DA:1353,0
DA:1354,0
DA:1355,0
DA:1357,0
DA:1358,0
DA:1365,11
DA:1369,11
DA:1370,11
DA:1371,11
DA:1372,11
DA:1374,11
DA:1379,3
DA:1383,3
DA:1384,3
DA:1385,3
DA:1387,3
DA:1390,0
DA:1391,0
DA:1393,0
DA:1394,0
DA:1395,0
DA:1396,0
DA:1399,0
DA:1401,3
DA:1411,1
DA:1412,1
DA:1413,1
DA:1414,1
DA:1415,0
DA:1417,1
DA:1418,0
DA:1422,6
DA:1426,6
DA:1427,6
DA:1428,12
DA:1430,6
LF:489
LH:36
end_of_record
SF:C:\msys64\mingw64\include\c++\14.1.0\atomic
FN:838,_ZNSt6atomicIiEC1Ei
FNDA:0,_ZNSt6atomicIiEC1Ei
FNF:1
FNH:0
DA:838,0
LF:1
LH:0
end_of_record
SF:C:\msys64\mingw64\include\c++\14.1.0\bits\list.tcc
FN:66,_ZNSt7__cxx1110_List_baseISt4pairIcPKcESaIS4_EE8_M_clearEv
FNDA:0,_ZNSt7__cxx1110_List_baseISt4pairIcPKcESaIS4_EE8_M_clearEv
FNF:1
FNH:0
DA:66,0
DA:70,0
DA:71,0
DA:73,0
DA:74,0
DA:75,0
DA:77,0
DA:81,0
DA:83,0
LF:9
LH:0
end_of_record
SF:C:\workspace\matrixGenerator\build\_deps\googletest-src\googletest\src\gtest-test-part.cc
FN:44,_ZN7testing14TestPartResult14ExtractSummaryB5cxx11EPKc
FNDA:0,_ZN7testing14TestPartResult14ExtractSummaryB5cxx11EPKc
FN:50,_ZN7testinglsERSoRKNS_14TestPartResultE
FNDA:0,_ZN7testinglsERSoRKNS_14TestPartResultE
FN:66,_ZN7testing19TestPartResultArray6AppendERKNS_14TestPartResultE
FNDA:0,_ZN7testing19TestPartResultArray6AppendERKNS_14TestPartResultE
FN:71,_ZNK7testing19TestPartResultArray17GetTestPartResultEi
FNDA:0,_ZNK7testing19TestPartResultArray17GetTestPartResultEi
FN:81,_ZNK7testing19TestPartResultArray4sizeEv
FNDA:0,_ZNK7testing19TestPartResultArray4sizeEv
FN:87,_ZN7testing8internal24HasNewFatalFailureHelperC2Ev
FNDA:0,_ZN7testing8internal24HasNewFatalFailureHelperC2Ev
FN:94,_ZN7testing8internal24HasNewFatalFailureHelperD0Ev
FNDA:0,_ZN7testing8internal24HasNewFatalFailureHelperD0Ev
FN:94,_ZN7testing8internal24HasNewFatalFailureHelperD2Ev
FNDA:0,_ZN7testing8internal24HasNewFatalFailureHelperD2Ev
FN:99,_ZN7testing8internal24HasNewFatalFailureHelper20ReportTestPartResultERKNS_14TestPartResultE
FNDA:0,_ZN7testing8internal24HasNewFatalFailureHelper20ReportTestPartResultERKNS_14TestPartResultE
FNF:9
FNH:0
DA:44,0
DA:45,0
DA:46,0
DA:50,0
DA:51,0
DA:54,0
DA:56,0
DA:57,0
DA:58,0
DA:59,0
DA:62,0
DA:66,0
DA:67,0
DA:68,0
DA:71,0
DA:72,0
DA:73,0
DA:74,0
DA:77,0
DA:81,0
DA:82,0
DA:87,0
DA:88,0
DA:89,0
DA:90,0
DA:91,0
DA:92,0
DA:94,0
DA:97,0
DA:94,0
DA:95,0
DA:97,0
DA:99,0
DA:101,0
DA:102,0
DA:103,0
DA:104,0
LF:37
LH:0
end_of_record
SF:C:\msys64\mingw64\include\c++\14.1.0\bits\ptr_traits.h
FN:205,_ZSt12__to_addressIiEPT_S1_
FNDA:0,_ZSt12__to_addressIiEPT_S1_
FN:205,_ZSt12__to_addressIyEPT_S1_
FNDA:0,_ZSt12__to_addressIyEPT_S1_
FN:205,_ZSt12__to_addressINSt7__cxx1112basic_stringIcSt11char_traitsIcESaIcEEEEPT_S7_
FNDA:2,_ZSt12__to_addressINSt7__cxx1112basic_stringIcSt11char_traitsIcESaIcEEEEPT_S7_
FN:205,_ZSt12__to_addressISt10shared_ptrIN7testing8internal26ThreadLocalValueHolderBaseEEEPT_S6_
FNDA:0,_ZSt12__to_addressISt10shared_ptrIN7testing8internal26ThreadLocalValueHolderBaseEEEPT_S6_
FN:205,_ZSt12__to_addressIPN7testing9TestSuiteEEPT_S4_
FNDA:3,_ZSt12__to_addressIPN7testing9TestSuiteEEPT_S4_
FN:205,_ZSt12__to_addressIN7testing8internal9TraceInfoEEPT_S4_
FNDA:0,_ZSt12__to_addressIN7testing8internal9TraceInfoEEPT_S4_
FN:205,_ZSt12__to_addressIPN7testing11EnvironmentEEPT_S4_
FNDA:0,_ZSt12__to_addressIPN7testing11EnvironmentEEPT_S4_
FN:205,_ZSt12__to_addressIPN7testing17TestEventListenerEEPT_S4_
FNDA:2,_ZSt12__to_addressIPN7testing17TestEventListenerEEPT_S4_
FN:205,_ZSt12__to_addressIPN7testing8TestInfoEEPT_S4_
FNDA:8,_ZSt12__to_addressIPN7testing8TestInfoEEPT_S4_
FN:205,_ZSt12__to_addressIN7testing12TestPropertyEEPT_S3_
FNDA:0,_ZSt12__to_addressIN7testing12TestPropertyEEPT_S3_
FN:205,_ZSt12__to_addressIN7testing14TestPartResultEEPT_S3_
FNDA:0,_ZSt12__to_addressIN7testing14TestPartResultEEPT_S3_
FN:205,_ZSt12__to_addressIN7testing8internal13edit_distance8EditTypeEEPT_S5_
FNDA:0,_ZSt12__to_addressIN7testing8internal13edit_distance8EditTypeEEPT_S5_
FNF:12
FNH:4
DA:205,0
DA:208,0
DA:205,0
DA:208,0
DA:205,2
DA:208,2
DA:205,0
DA:208,0
DA:205,3
DA:208,3
DA:205,0
DA:208,0
DA:205,0
DA:208,0
DA:205,2
DA:208,2
DA:205,8
DA:208,8
DA:205,0
DA:208,0
DA:205,0
DA:208,0
DA:205,0
DA:208,0
LF:24
LH:8
end_of_record
SF:C:\msys64\mingw64\include\c++\14.1.0\bits\stl_map.h
FN:197,_ZNSt3mapINSt7__cxx1112basic_stringIcSt11char_traitsIcESaIcEEEySt4lessIS5_ESaISt4pairIKS5_yEEEC1Ev
FNDA:0,_ZNSt3mapINSt7__cxx1112basic_stringIcSt11char_traitsIcESaIcEEEySt4lessIS5_ESaISt4pairIKS5_yEEEC1Ev
FN:197,_ZNSt3mapImS_IPKN7testing8internal15ThreadLocalBaseESt10shared_ptrINS1_26ThreadLocalValueHolderBaseEESt4lessIS4_ESaISt4pairIKS4_S7_EEES8_ImESaISA_IKmSE_EEEC1Ev
FNDA:0,_ZNSt3mapImS_IPKN7testing8internal15ThreadLocalBaseESt10shared_ptrINS1_26ThreadLocalValueHolderBaseEESt4lessIS4_ESaISt4pairIKS4_S7_EEES8_ImESaISA_IKmSE_EEEC1Ev
FN:197,_ZNSt3mapINSt7__cxx1112basic_stringIcSt11char_traitsIcESaIcEEEN7testing8internal34TypeParameterizedTestSuiteRegistry30TypeParameterizedTestSuiteInfoESt4lessIS5_ESaISt4pairIKS5_S9_EEEC1Ev
FNDA:1,_ZNSt3mapINSt7__cxx1112basic_stringIcSt11char_traitsIcESaIcEEEN7testing8internal34TypeParameterizedTestSuiteRegistry30TypeParameterizedTestSuiteInfoESt4lessIS5_ESaISt4pairIKS5_S9_EEEC1Ev
FN:197,_ZNSt3mapIPKN7testing8internal15ThreadLocalBaseESt10shared_ptrINS1_26ThreadLocalValueHolderBaseEESt4lessIS4_ESaISt4pairIKS4_S7_EEEC1Ev
FNDA:0,_ZNSt3mapIPKN7testing8internal15ThreadLocalBaseESt10shared_ptrINS1_26ThreadLocalValueHolderBaseEESt4lessIS4_ESaISt4pairIKS4_S7_EEEC1Ev
FN:227,_ZNSt3mapIPKN7testing8internal15ThreadLocalBaseESt10shared_ptrINS1_26ThreadLocalValueHolderBaseEESt4lessIS4_ESaISt4pairIKS4_S7_EEEC1EOSE_
FNDA:0,_ZNSt3mapIPKN7testing8internal15ThreadLocalBaseESt10shared_ptrINS1_26ThreadLocalValueHolderBaseEESt4lessIS4_ESaISt4pairIKS4_S7_EEEC1EOSE_
FN:314,_ZNSt3mapINSt7__cxx1112basic_stringIcSt11char_traitsIcESaIcEEEySt4lessIS5_ESaISt4pairIKS5_yEEED1Ev
FNDA:0,_ZNSt3mapINSt7__cxx1112basic_stringIcSt11char_traitsIcESaIcEEEySt4lessIS5_ESaISt4pairIKS5_yEEED1Ev
FN:314,_ZNSt3mapIPKN7testing8internal15ThreadLocalBaseESt10shared_ptrINS1_26ThreadLocalValueHolderBaseEESt4lessIS4_ESaISt4pairIKS4_S7_EEED1Ev
FNDA:0,_ZNSt3mapIPKN7testing8internal15ThreadLocalBaseESt10shared_ptrINS1_26ThreadLocalValueHolderBaseEESt4lessIS4_ESaISt4pairIKS4_S7_EEED1Ev
FN:314,_ZNSt3mapINSt7__cxx1112basic_stringIcSt11char_traitsIcESaIcEEEN7testing8internal34TypeParameterizedTestSuiteRegistry30TypeParameterizedTestSuiteInfoESt4lessIS5_ESaISt4pairIKS5_S9_EEED1Ev
FNDA:0,_ZNSt3mapINSt7__cxx1112basic_stringIcSt11char_traitsIcESaIcEEEN7testing8internal34TypeParameterizedTestSuiteRegistry30TypeParameterizedTestSuiteInfoESt4lessIS5_ESaISt4pairIKS5_S9_EEED1Ev
FN:368,_ZNSt3mapINSt7__cxx1112basic_stringIcSt11char_traitsIcESaIcEEEN7testing8internal34TypeParameterizedTestSuiteRegistry30TypeParameterizedTestSuiteInfoESt4lessIS5_ESaISt4pairIKS5_S9_EEE5beginEv
FNDA:1,_ZNSt3mapINSt7__cxx1112basic_stringIcSt11char_traitsIcESaIcEEEN7testing8internal34TypeParameterizedTestSuiteRegistry30TypeParameterizedTestSuiteInfoESt4lessIS5_ESaISt4pairIKS5_S9_EEE5beginEv
FN:368,_ZNSt3mapImS_IPKN7testing8internal15ThreadLocalBaseESt10shared_ptrINS1_26ThreadLocalValueHolderBaseEESt4lessIS4_ESaISt4pairIKS4_S7_EEES8_ImESaISA_IKmSE_EEE5beginEv
FNDA:0,_ZNSt3mapImS_IPKN7testing8internal15ThreadLocalBaseESt10shared_ptrINS1_26ThreadLocalValueHolderBaseEESt4lessIS4_ESaISt4pairIKS4_S7_EEES8_ImESaISA_IKmSE_EEE5beginEv
FN:368,_ZNSt3mapIPKN7testing8internal15ThreadLocalBaseESt10shared_ptrINS1_26ThreadLocalValueHolderBaseEESt4lessIS4_ESaISt4pairIKS4_S7_EEE5beginEv
FNDA:0,_ZNSt3mapIPKN7testing8internal15ThreadLocalBaseESt10shared_ptrINS1_26ThreadLocalValueHolderBaseEESt4lessIS4_ESaISt4pairIKS4_S7_EEE5beginEv
FN:368,_ZNSt3mapINSt7__cxx1112basic_stringIcSt11char_traitsIcESaIcEEEN7testing8internal12CodeLocationESt4lessIS5_ESaISt4pairIKS5_S8_EEE5beginEv
FNDA:0,_ZNSt3mapINSt7__cxx1112basic_stringIcSt11char_traitsIcESaIcEEEN7testing8internal12CodeLocationESt4lessIS5_ESaISt4pairIKS5_S8_EEE5beginEv
FN:386,_ZNSt3mapIPKN7testing8internal15ThreadLocalBaseESt10shared_ptrINS1_26ThreadLocalValueHolderBaseEESt4lessIS4_ESaISt4pairIKS4_S7_EEE3endEv
FNDA:0,_ZNSt3mapIPKN7testing8internal15ThreadLocalBaseESt10shared_ptrINS1_26ThreadLocalValueHolderBaseEESt4lessIS4_ESaISt4pairIKS4_S7_EEE3endEv
FN:386,_ZNSt3mapImS_IPKN7testing8internal15ThreadLocalBaseESt10shared_ptrINS1_26ThreadLocalValueHolderBaseEESt4lessIS4_ESaISt4pairIKS4_S7_EEES8_ImESaISA_IKmSE_EEE3endEv
FNDA:0,_ZNSt3mapImS_IPKN7testing8internal15ThreadLocalBaseESt10shared_ptrINS1_26ThreadLocalValueHolderBaseEESt4lessIS4_ESaISt4pairIKS4_S7_EEES8_ImESaISA_IKmSE_EEE3endEv
FN:386,_ZNSt3mapINSt7__cxx1112basic_stringIcSt11char_traitsIcESaIcEEEN7testing8internal12CodeLocationESt4lessIS5_ESaISt4pairIKS5_S8_EEE3endEv
FNDA:0,_ZNSt3mapINSt7__cxx1112basic_stringIcSt11char_traitsIcESaIcEEEN7testing8internal12CodeLocationESt4lessIS5_ESaISt4pairIKS5_S8_EEE3endEv
FN:386,_ZNSt3mapINSt7__cxx1112basic_stringIcSt11char_traitsIcESaIcEEEN7testing8internal34TypeParameterizedTestSuiteRegistry30TypeParameterizedTestSuiteInfoESt4lessIS5_ESaISt4pairIKS5_S9_EEE3endEv
FNDA:1,_ZNSt3mapINSt7__cxx1112basic_stringIcSt11char_traitsIcESaIcEEEN7testing8internal34TypeParameterizedTestSuiteRegistry30TypeParameterizedTestSuiteInfoESt4lessIS5_ESaISt4pairIKS5_S9_EEE3endEv
FN:386,_ZNSt3mapINSt7__cxx1112basic_stringIcSt11char_traitsIcESaIcEEEySt4lessIS5_ESaISt4pairIKS5_yEEE3endEv
FNDA:0,_ZNSt3mapINSt7__cxx1112basic_stringIcSt11char_traitsIcESaIcEEEySt4lessIS5_ESaISt4pairIKS5_yEEE3endEv
FN:482,_ZNKSt3mapINSt7__cxx1112basic_stringIcSt11char_traitsIcESaIcEEEySt4lessIS5_ESaISt4pairIKS5_yEEE4sizeEv
FNDA:0,_ZNKSt3mapINSt7__cxx1112basic_stringIcSt11char_traitsIcESaIcEEEySt4lessIS5_ESaISt4pairIKS5_yEEE4sizeEv
FN:504,_ZNSt3mapINSt7__cxx1112basic_stringIcSt11char_traitsIcESaIcEEEySt4lessIS5_ESaISt4pairIKS5_yEEEixERS9_
FNDA:0,_ZNSt3mapINSt7__cxx1112basic_stringIcSt11char_traitsIcESaIcEEEySt4lessIS5_ESaISt4pairIKS5_yEEEixERS9_
FN:588,_ZNSt3mapINSt7__cxx1112basic_stringIcSt11char_traitsIcESaIcEEEN7testing8internal34TypeParameterizedTestSuiteRegistry30TypeParameterizedTestSuiteInfoESt4lessIS5_ESaISt4pairIKS5_S9_EEE7emplaceIJS5_S9_EEESC_ISt17_Rb_tree_iteratorISE_EbEDpOT_
FNDA:0,_ZNSt3mapINSt7__cxx1112basic_stringIcSt11char_traitsIcESaIcEEEN7testing8internal34TypeParameterizedTestSuiteRegistry30TypeParameterizedTestSuiteInfoESt4lessIS5_ESaISt4pairIKS5_S9_EEE7emplaceIJS5_S9_EEESC_ISt17_Rb_tree_iteratorISE_EbEDpOT_
FN:847,_ZNSt3mapImS_IPKN7testing8internal15ThreadLocalBaseESt10shared_ptrINS1_26ThreadLocalValueHolderBaseEESt4lessIS4_ESaISt4pairIKS4_S7_EEES8_ImESaISA_IKmSE_EEE6insertISA_ImSE_EEENSt9enable_ifIXsrSt16is_constructibleISH_JT_EE5valueESA_ISt17_Rb_tree_iteratorISH_EbEE4typeEOSO_
FNDA:0,_ZNSt3mapImS_IPKN7testing8internal15ThreadLocalBaseESt10shared_ptrINS1_26ThreadLocalValueHolderBaseEESt4lessIS4_ESaISt4pairIKS4_S7_EEES8_ImESaISA_IKmSE_EEE6insertISA_ImSE_EEENSt9enable_ifIXsrSt16is_constructibleISH_JT_EE5valueESA_ISt17_Rb_tree_iteratorISH_EbEE4typeEOSO_
FN:847,_ZNSt3mapIPKN7testing8internal15ThreadLocalBaseESt10shared_ptrINS1_26ThreadLocalValueHolderBaseEESt4lessIS4_ESaISt4pairIKS4_S7_EEE6insertISA_IS4_S7_EEENSt9enable_ifIXsrSt16is_constructibleISC_JT_EE5valueESA_ISt17_Rb_tree_iteratorISC_EbEE4typeEOSJ_
FNDA:0,_ZNSt3mapIPKN7testing8internal15ThreadLocalBaseESt10shared_ptrINS1_26ThreadLocalValueHolderBaseEESt4lessIS4_ESaISt4pairIKS4_S7_EEE6insertISA_IS4_S7_EEENSt9enable_ifIXsrSt16is_constructibleISC_JT_EE5valueESA_ISt17_Rb_tree_iteratorISC_EbEE4typeEOSJ_
FN:1086,_ZNSt3mapIPKN7testing8internal15ThreadLocalBaseESt10shared_ptrINS1_26ThreadLocalValueHolderBaseEESt4lessIS4_ESaISt4pairIKS4_S7_EEE5eraseB5cxx11ESt17_Rb_tree_iteratorISC_E
FNDA:0,_ZNSt3mapIPKN7testing8internal15ThreadLocalBaseESt10shared_ptrINS1_26ThreadLocalValueHolderBaseEESt4lessIS4_ESaISt4pairIKS4_S7_EEE5eraseB5cxx11ESt17_Rb_tree_iteratorISC_E
FN:1086,_ZNSt3mapImS_IPKN7testing8internal15ThreadLocalBaseESt10shared_ptrINS1_26ThreadLocalValueHolderBaseEESt4lessIS4_ESaISt4pairIKS4_S7_EEES8_ImESaISA_IKmSE_EEE5eraseB5cxx11ESt17_Rb_tree_iteratorISH_E
FNDA:0,_ZNSt3mapImS_IPKN7testing8internal15ThreadLocalBaseESt10shared_ptrINS1_26ThreadLocalValueHolderBaseEESt4lessIS4_ESaISt4pairIKS4_S7_EEES8_ImESaISA_IKmSE_EEE5eraseB5cxx11ESt17_Rb_tree_iteratorISH_E
FN:1191,_ZNKSt3mapINSt7__cxx1112basic_stringIcSt11char_traitsIcESaIcEEEySt4lessIS5_ESaISt4pairIKS5_yEEE8key_compEv
FNDA:0,_ZNKSt3mapINSt7__cxx1112basic_stringIcSt11char_traitsIcESaIcEEEySt4lessIS5_ESaISt4pairIKS5_yEEE8key_compEv
FN:1218,_ZNSt3mapINSt7__cxx1112basic_stringIcSt11char_traitsIcESaIcEEEySt4lessIS5_ESaISt4pairIKS5_yEEE4findERS9_
FNDA:0,_ZNSt3mapINSt7__cxx1112basic_stringIcSt11char_traitsIcESaIcEEEySt4lessIS5_ESaISt4pairIKS5_yEEE4findERS9_
FN:1218,_ZNSt3mapINSt7__cxx1112basic_stringIcSt11char_traitsIcESaIcEEEN7testing8internal34TypeParameterizedTestSuiteRegistry30TypeParameterizedTestSuiteInfoESt4lessIS5_ESaISt4pairIKS5_S9_EEE4findERSD_
FNDA:0,_ZNSt3mapINSt7__cxx1112basic_stringIcSt11char_traitsIcESaIcEEEN7testing8internal34TypeParameterizedTestSuiteRegistry30TypeParameterizedTestSuiteInfoESt4lessIS5_ESaISt4pairIKS5_S9_EEE4findERSD_
FN:1218,_ZNSt3mapImS_IPKN7testing8internal15ThreadLocalBaseESt10shared_ptrINS1_26ThreadLocalValueHolderBaseEESt4lessIS4_ESaISt4pairIKS4_S7_EEES8_ImESaISA_IKmSE_EEE4findERSG_
FNDA:0,_ZNSt3mapImS_IPKN7testing8internal15ThreadLocalBaseESt10shared_ptrINS1_26ThreadLocalValueHolderBaseEESt4lessIS4_ESaISt4pairIKS4_S7_EEES8_ImESaISA_IKmSE_EEE4findERSG_
FN:1218,_ZNSt3mapIPKN7testing8internal15ThreadLocalBaseESt10shared_ptrINS1_26ThreadLocalValueHolderBaseEESt4lessIS4_ESaISt4pairIKS4_S7_EEE4findERSB_
FNDA:0,_ZNSt3mapIPKN7testing8internal15ThreadLocalBaseESt10shared_ptrINS1_26ThreadLocalValueHolderBaseEESt4lessIS4_ESaISt4pairIKS4_S7_EEE4findERSB_
FN:1264,_ZNKSt3mapINSt7__cxx1112basic_stringIcSt11char_traitsIcESaIcEEEN7testing8internal12CodeLocationESt4lessIS5_ESaISt4pairIKS5_S8_EEE5countERSC_
FNDA:0,_ZNKSt3mapINSt7__cxx1112basic_stringIcSt11char_traitsIcESaIcEEEN7testing8internal12CodeLocationESt4lessIS5_ESaISt4pairIKS5_S8_EEE5countERSC_
FN:1307,_ZNSt3mapINSt7__cxx1112basic_stringIcSt11char_traitsIcESaIcEEEySt4lessIS5_ESaISt4pairIKS5_yEEE11lower_boundERS9_
FNDA:0,_ZNSt3mapINSt7__cxx1112basic_stringIcSt11char_traitsIcESaIcEEEySt4lessIS5_ESaISt4pairIKS5_yEEE11lower_boundERS9_
FNF:31
FNH:3
DA:197,0
DA:197,0
DA:197,1
DA:197,0
DA:227,0
DA:314,0
DA:314,0
DA:314,0
DA:368,0
DA:369,0
DA:368,0
DA:369,0
DA:368,0
DA:369,0
DA:368,1
DA:369,1
DA:386,0
DA:387,0
DA:386,0
DA:387,0
DA:386,0
DA:387,0
DA:386,0
DA:387,0
DA:386,1
DA:387,1
DA:482,0
DA:483,0
DA:504,0
DA:509,0
DA:511,0
DA:513,0
DA:514,0
DA:515,0
DA:519,0
DA:588,0
DA:608,0
DA:847,0
DA:865,0
DA:847,0
DA:865,0
DA:1086,0
DA:1087,0
DA:1086,0
DA:1087,0
DA:1191,0
DA:1192,0
DA:1218,0
DA:1219,0
DA:1218,0
DA:1219,0
DA:1218,0
DA:1219,0
DA:1218,0
DA:1219,0
DA:1264,0
DA:1265,0
DA:1307,0
DA:1308,0
LF:59
LH:5
end_of_record
SF:C:\msys64\mingw64\include\c++\14.1.0\bits\stl_function.h
FN:404,_ZNKSt4lessImEclERKmS2_
FNDA:0,_ZNKSt4lessImEclERKmS2_
FN:404,_ZNKSt4lessINSt7__cxx1112basic_stringIcSt11char_traitsIcESaIcEEEEclERKS5_S8_
FNDA:0,_ZNKSt4lessINSt7__cxx1112basic_stringIcSt11char_traitsIcESaIcEEEEclERKS5_S8_
FN:448,_ZNKSt4lessIPKN7testing8internal15ThreadLocalBaseEEclES4_S4_
FNDA:0,_ZNKSt4lessIPKN7testing8internal15ThreadLocalBaseEEclES4_S4_
FN:1159,_ZNKSt9_IdentityINSt7__cxx1112basic_stringIcSt11char_traitsIcESaIcEEEEclERS5_
FNDA:0,_ZNKSt9_IdentityINSt7__cxx1112basic_stringIcSt11char_traitsIcESaIcEEEEclERS5_
FN:1163,_ZNKSt9_IdentityINSt7__cxx1112basic_stringIcSt11char_traitsIcESaIcEEEEclERKS5_
FNDA:0,_ZNKSt9_IdentityINSt7__cxx1112basic_stringIcSt11char_traitsIcESaIcEEEEclERKS5_
FN:1179,_ZNKSt10_Select1stISt4pairIKPKN7testing8internal15ThreadLocalBaseESt10shared_ptrINS2_26ThreadLocalValueHolderBaseEEEEclERKSA_
FNDA:0,_ZNKSt10_Select1stISt4pairIKPKN7testing8internal15ThreadLocalBaseESt10shared_ptrINS2_26ThreadLocalValueHolderBaseEEEEclERKSA_
FN:1179,_ZNKSt10_Select1stISt4pairIKmSt3mapIPKN7testing8internal15ThreadLocalBaseESt10shared_ptrINS4_26ThreadLocalValueHolderBaseEESt4lessIS7_ESaIS0_IKS7_SA_EEEEEclERKSH_
FNDA:0,_ZNKSt10_Select1stISt4pairIKmSt3mapIPKN7testing8internal15ThreadLocalBaseESt10shared_ptrINS4_26ThreadLocalValueHolderBaseEESt4lessIS7_ESaIS0_IKS7_SA_EEEEEclERKSH_
FN:1179,_ZNKSt10_Select1stISt4pairIKNSt7__cxx1112basic_stringIcSt11char_traitsIcESaIcEEEyEEclERKS8_
FNDA:0,_ZNKSt10_Select1stISt4pairIKNSt7__cxx1112basic_stringIcSt11char_traitsIcESaIcEEEyEEclERKS8_
FN:1179,_ZNKSt10_Select1stISt4pairIKNSt7__cxx1112basic_stringIcSt11char_traitsIcESaIcEEEN7testing8internal34TypeParameterizedTestSuiteRegistry30TypeParameterizedTestSuiteInfoEEEclERKSC_
FNDA:0,_ZNKSt10_Select1stISt4pairIKNSt7__cxx1112basic_stringIcSt11char_traitsIcESaIcEEEN7testing8internal34TypeParameterizedTestSuiteRegistry30TypeParameterizedTestSuiteInfoEEEclERKSC_
FN:1179,_ZNKSt10_Select1stISt4pairIKNSt7__cxx1112basic_stringIcSt11char_traitsIcESaIcEEEN7testing8internal12CodeLocationEEEclERKSB_
FNDA:0,_ZNKSt10_Select1stISt4pairIKNSt7__cxx1112basic_stringIcSt11char_traitsIcESaIcEEEN7testing8internal12CodeLocationEEEclERKSB_
FNF:10
FNH:0
DA:404,0
DA:405,0
DA:404,0
DA:405,0
DA:448,0
DA:451,0
DA:452,0
DA:454,0
DA:1159,0
DA:1160,0
DA:1163,0
DA:1164,0
DA:1179,0
DA:1180,0
DA:1179,0
DA:1180,0
DA:1179,0
DA:1180,0
DA:1179,0
DA:1180,0
DA:1179,0
DA:1180,0
LF:22
LH:0
end_of_record
SF:C:\workspace\matrixGenerator\build\_deps\googletest-src\googletest\src\gtest-filepath.cc
FN:85,_ZN7testing8internalL15IsPathSeparatorEc
FNDA:251,_ZN7testing8internalL15IsPathSeparatorEc
FN:94,_ZN7testing8internal8FilePath13GetCurrentDirEv
FNDA:1,_ZN7testing8internal8FilePath13GetCurrentDirEv
FN:121,_ZNK7testing8internal8FilePath15RemoveExtensionEPKc
FNDA:0,_ZNK7testing8internal8FilePath15RemoveExtensionEPKc
FN:133,_ZNK7testing8internal8FilePath21FindLastPathSeparatorEv
FNDA:1,_ZNK7testing8internal8FilePath21FindLastPathSeparatorEv
FN:152,_ZNK7testing8internal8FilePath19RemoveDirectoryNameEv
FNDA:0,_ZNK7testing8internal8FilePath19RemoveDirectoryNameEv
FN:163,_ZNK7testing8internal8FilePath14RemoveFileNameEv
FNDA:1,_ZNK7testing8internal8FilePath14RemoveFileNameEv
FN:180,_ZN7testing8internal8FilePath12MakeFileNameERKS1_S3_iPKc
FNDA:0,_ZN7testing8internal8FilePath12MakeFileNameERKS1_S3_iPKc
FN:196,_ZN7testing8internal8FilePath11ConcatPathsERKS1_S3_
FNDA:1,_ZN7testing8internal8FilePath11ConcatPathsERKS1_S3_
FN:206,_ZNK7testing8internal8FilePath21FileOrDirectoryExistsEv
FNDA:0,_ZNK7testing8internal8FilePath21FileOrDirectoryExistsEv
FN:220,_ZNK7testing8internal8FilePath15DirectoryExistsEv
FNDA:1,_ZNK7testing8internal8FilePath15DirectoryExistsEv
FN:250,_ZNK7testing8internal8FilePath15IsRootDirectoryEv
FNDA:1,_ZNK7testing8internal8FilePath15IsRootDirectoryEv
FN:259,_ZNK7testing8internal8FilePath14IsAbsolutePathEv
FNDA:1,_ZNK7testing8internal8FilePath14IsAbsolutePathEv
FN:280,_ZN7testing8internal8FilePath22GenerateUniqueFileNameERKS1_S3_PKc
FNDA:0,_ZN7testing8internal8FilePath22GenerateUniqueFileNameERKS1_S3_PKc
FN:294,_ZNK7testing8internal8FilePath11IsDirectoryEv
FNDA:4,_ZNK7testing8internal8FilePath11IsDirectoryEv
FN:302,_ZNK7testing8internal8FilePath28CreateDirectoriesRecursivelyEv
FNDA:1,_ZNK7testing8internal8FilePath28CreateDirectoriesRecursivelyEv
FN:319,_ZNK7testing8internal8FilePath12CreateFolderEv
FNDA:0,_ZNK7testing8internal8FilePath12CreateFolderEv
FN:343,_ZNK7testing8internal8FilePath27RemoveTrailingPathSeparatorEv
FNDA:2,_ZNK7testing8internal8FilePath27RemoveTrailingPathSeparatorEv
FN:352,_ZN7testing8internal8FilePath9NormalizeEv
FNDA:8,_ZN7testing8internal8FilePath9NormalizeEv
FNF:18
FNH:12
DA:85,251
DA:87,251
DA:94,1
DA:102,1
DA:103,2
DA:121,0
DA:122,0
DA:123,0
DA:124,0
DA:125,0
DA:127,0
DA:128,0
DA:133,1
DA:134,1
DA:136,1
DA:138,1
DA:139,0
DA:140,0
DA:143,1
DA:152,0
DA:153,0
DA:154,0
DA:163,1
DA:164,1
DA:165,1
DA:166,1
DA:167,2
DA:169,0
DA:171,2
DA:172,1
DA:180,0
DA:184,0
DA:185,0
DA:186,0
DA:188,0
DA:189,0
DA:191,0
DA:192,0
DA:196,1
DA:198,1
DA:199,0
DA:200,1
DA:201,1
DA:202,1
DA:206,0
DA:213,0
DA:214,0
DA:220,1
DA:221,1
DA:225,1
DA:226,1
DA:240,1
DA:241,2
DA:242,1
DA:245,1
DA:246,1
DA:250,1
DA:252,1
DA:259,1
DA:260,1
DA:262,1
DA:263,1
DA:264,0
DA:265,2
DA:266,1
DA:280,0
DA:283,0
DA:284,0
DA:286,0
DA:287,0
DA:288,0
DA:289,0
DA:294,4
DA:295,8
DA:296,8
DA:302,1
DA:303,1
DA:304,0
DA:307,1
DA:308,1
DA:311,0
DA:312,0
DA:313,0
DA:319,0
DA:326,0
DA:334,0
DA:335,0
DA:337,0
DA:343,2
DA:344,2
DA:345,3
DA:346,5
DA:352,8
DA:353,8
DA:355,255
DA:356,247
DA:357,226
DA:358,42
DA:359,21
DA:361,0
DA:365,8
DA:366,8
LF:102
LH:59
end_of_record
SF:C:\msys64\mingw64\include\c++\14.1.0\bits\unique_ptr.h
FN:87,_ZNKSt14default_deleteIN7testing8internal11ThreadLocalIPNS0_31TestPartResultReporterInterfaceEE18ValueHolderFactoryEEclEPS6_
FNDA:0,_ZNKSt14default_deleteIN7testing8internal11ThreadLocalIPNS0_31TestPartResultReporterInterfaceEE18ValueHolderFactoryEEclEPS6_
FN:87,_ZNKSt14default_deleteIN7testing8internal16DeathTestFactoryEEclEPS2_
FNDA:0,_ZNKSt14default_deleteIN7testing8internal16DeathTestFactoryEEclEPS2_
FN:87,_ZNKSt14default_deleteIN7testing8internal19ThreadWithParamBase8RunnableEEclEPS3_
FNDA:0,_ZNKSt14default_deleteIN7testing8internal19ThreadWithParamBase8RunnableEEclEPS3_
FN:87,_ZNKSt14default_deleteINSt7__cxx1118basic_stringstreamIcSt11char_traitsIcESaIcEEEEclEPS5_
FNDA:0,_ZNKSt14default_deleteINSt7__cxx1118basic_stringstreamIcSt11char_traitsIcESaIcEEEEclEPS5_
FN:87,_ZNKSt14default_deleteIN7testing8internal14GTestFlagSaverEEclEPS2_
FNDA:9,_ZNKSt14default_deleteIN7testing8internal14GTestFlagSaverEEclEPS2_
FN:87,_ZNKSt14default_deleteIN7testing8internal12_GLOBAL__N_122ThreadWithParamSupport15ThreadMainParamEEclEPS4_
FNDA:0,_ZNKSt14default_deleteIN7testing8internal12_GLOBAL__N_122ThreadWithParamSupport15ThreadMainParamEEclEPS4_
FN:87,_ZNKSt14default_deleteINSt7__cxx1112basic_stringIcSt11char_traitsIcESaIcEEEEclEPS5_
FNDA:0,_ZNKSt14default_deleteINSt7__cxx1112basic_stringIcSt11char_traitsIcESaIcEEEEclEPS5_
FN:87,_ZNKSt14default_deleteIN7testing8internal11ThreadLocalISt6vectorINS1_9TraceInfoESaIS4_EEE18ValueHolderFactoryEEclEPS8_
FNDA:0,_ZNKSt14default_deleteIN7testing8internal11ThreadLocalISt6vectorINS1_9TraceInfoESaIS4_EEE18ValueHolderFactoryEEclEPS8_
FN:87,_ZNKSt14default_deleteIN7testing8internal24InternalRunDeathTestFlagEEclEPS2_
FNDA:0,_ZNKSt14default_deleteIN7testing8internal24InternalRunDeathTestFlagEEclEPS2_
FN:87,_ZNKSt14default_deleteIKNSt7__cxx1112basic_stringIcSt11char_traitsIcESaIcEEEEclEPS6_
FNDA:0,_ZNKSt14default_deleteIKNSt7__cxx1112basic_stringIcSt11char_traitsIcESaIcEEEEclEPS6_
FN:168,_ZNSt15__uniq_ptr_implIN7testing8internal24InternalRunDeathTestFlagESt14default_deleteIS2_EEC2Ev
FNDA:1,_ZNSt15__uniq_ptr_implIN7testing8internal24InternalRunDeathTestFlagESt14default_deleteIS2_EEC2Ev
FN:168,_ZNSt15__uniq_ptr_implINSt7__cxx1112basic_stringIcSt11char_traitsIcESaIcEEESt14default_deleteIS5_EEC2Ev
FNDA:0,_ZNSt15__uniq_ptr_implINSt7__cxx1112basic_stringIcSt11char_traitsIcESaIcEEESt14default_deleteIS5_EEC2Ev
FN:170,_ZNSt15__uniq_ptr_implIN7testing8internal16DeathTestFactoryESt14default_deleteIS2_EEC2EPS2_
FNDA:1,_ZNSt15__uniq_ptr_implIN7testing8internal16DeathTestFactoryESt14default_deleteIS2_EEC2EPS2_
FN:170,_ZNSt15__uniq_ptr_implIKNSt7__cxx1112basic_stringIcSt11char_traitsIcESaIcEEESt14default_deleteIS6_EEC2EPS6_
FNDA:22,_ZNSt15__uniq_ptr_implIKNSt7__cxx1112basic_stringIcSt11char_traitsIcESaIcEEESt14default_deleteIS6_EEC2EPS6_
FN:170,_ZNSt15__uniq_ptr_implIN7testing8internal12_GLOBAL__N_122ThreadWithParamSupport15ThreadMainParamESt14default_deleteIS4_EEC2EPS4_
FNDA:0,_ZNSt15__uniq_ptr_implIN7testing8internal12_GLOBAL__N_122ThreadWithParamSupport15ThreadMainParamESt14default_deleteIS4_EEC2EPS4_
FN:170,_ZNSt15__uniq_ptr_implIN7testing8internal11ThreadLocalIPNS0_31TestPartResultReporterInterfaceEE18ValueHolderFactoryESt14default_deleteIS6_EEC2EPS6_
FNDA:1,_ZNSt15__uniq_ptr_implIN7testing8internal11ThreadLocalIPNS0_31TestPartResultReporterInterfaceEE18ValueHolderFactoryESt14default_deleteIS6_EEC2EPS6_
FN:170,_ZNSt15__uniq_ptr_implIN7testing8internal19ThreadWithParamBase8RunnableESt14default_deleteIS3_EEC2EPS3_
FNDA:0,_ZNSt15__uniq_ptr_implIN7testing8internal19ThreadWithParamBase8RunnableESt14default_deleteIS3_EEC2EPS3_
FN:170,_ZNSt15__uniq_ptr_implIN7testing8internal14GTestFlagSaverESt14default_deleteIS2_EEC2EPS2_
FNDA:9,_ZNSt15__uniq_ptr_implIN7testing8internal14GTestFlagSaverESt14default_deleteIS2_EEC2EPS2_
FN:170,_ZNSt15__uniq_ptr_implIN7testing8internal11ThreadLocalISt6vectorINS1_9TraceInfoESaIS4_EEE18ValueHolderFactoryESt14default_deleteIS8_EEC2EPS8_
FNDA:1,_ZNSt15__uniq_ptr_implIN7testing8internal11ThreadLocalISt6vectorINS1_9TraceInfoESaIS4_EEE18ValueHolderFactoryESt14default_deleteIS8_EEC2EPS8_
FN:170,_ZNSt15__uniq_ptr_implINSt7__cxx1118basic_stringstreamIcSt11char_traitsIcESaIcEEESt14default_deleteIS5_EEC2EPS5_
FNDA:201,_ZNSt15__uniq_ptr_implINSt7__cxx1118basic_stringstreamIcSt11char_traitsIcESaIcEEESt14default_deleteIS5_EEC2EPS5_
FN:170,_ZNSt15__uniq_ptr_implINSt7__cxx1112basic_stringIcSt11char_traitsIcESaIcEEESt14default_deleteIS5_EEC2EPS5_
FNDA:0,_ZNSt15__uniq_ptr_implINSt7__cxx1112basic_stringIcSt11char_traitsIcESaIcEEESt14default_deleteIS5_EEC2EPS5_
FN:191,_ZNSt15__uniq_ptr_implIN7testing8internal11ThreadLocalIPNS0_31TestPartResultReporterInterfaceEE18ValueHolderFactoryESt14default_deleteIS6_EE6_M_ptrEv
FNDA:1,_ZNSt15__uniq_ptr_implIN7testing8internal11ThreadLocalIPNS0_31TestPartResultReporterInterfaceEE18ValueHolderFactoryESt14default_deleteIS6_EE6_M_ptrEv
FN:191,_ZNSt15__uniq_ptr_implIN7testing8internal19ThreadWithParamBase8RunnableESt14default_deleteIS3_EE6_M_ptrEv
FNDA:0,_ZNSt15__uniq_ptr_implIN7testing8internal19ThreadWithParamBase8RunnableESt14default_deleteIS3_EE6_M_ptrEv
FN:191,_ZNSt15__uniq_ptr_implINSt7__cxx1118basic_stringstreamIcSt11char_traitsIcESaIcEEESt14default_deleteIS5_EE6_M_ptrEv
FNDA:0,_ZNSt15__uniq_ptr_implINSt7__cxx1118basic_stringstreamIcSt11char_traitsIcESaIcEEESt14default_deleteIS5_EE6_M_ptrEv
FN:191,_ZNSt15__uniq_ptr_implIN7testing8internal12_GLOBAL__N_122ThreadWithParamSupport15ThreadMainParamESt14default_deleteIS4_EE6_M_ptrEv
FNDA:0,_ZNSt15__uniq_ptr_implIN7testing8internal12_GLOBAL__N_122ThreadWithParamSupport15ThreadMainParamESt14default_deleteIS4_EE6_M_ptrEv
FN:191,_ZNSt15__uniq_ptr_implIN7testing8internal16DeathTestFactoryESt14default_deleteIS2_EE6_M_ptrEv
FNDA:1,_ZNSt15__uniq_ptr_implIN7testing8internal16DeathTestFactoryESt14default_deleteIS2_EE6_M_ptrEv
FN:191,_ZNSt15__uniq_ptr_implINSt7__cxx1112basic_stringIcSt11char_traitsIcESaIcEEESt14default_deleteIS5_EE6_M_ptrEv
FNDA:0,_ZNSt15__uniq_ptr_implINSt7__cxx1112basic_stringIcSt11char_traitsIcESaIcEEESt14default_deleteIS5_EE6_M_ptrEv
FN:191,_ZNSt15__uniq_ptr_implIN7testing8internal24InternalRunDeathTestFlagESt14default_deleteIS2_EE6_M_ptrEv
FNDA:2,_ZNSt15__uniq_ptr_implIN7testing8internal24InternalRunDeathTestFlagESt14default_deleteIS2_EE6_M_ptrEv
FN:191,_ZNSt15__uniq_ptr_implIKNSt7__cxx1112basic_stringIcSt11char_traitsIcESaIcEEESt14default_deleteIS6_EE6_M_ptrEv
FNDA:22,_ZNSt15__uniq_ptr_implIKNSt7__cxx1112basic_stringIcSt11char_traitsIcESaIcEEESt14default_deleteIS6_EE6_M_ptrEv
FN:191,_ZNSt15__uniq_ptr_implIN7testing8internal11ThreadLocalISt6vectorINS1_9TraceInfoESaIS4_EEE18ValueHolderFactoryESt14default_deleteIS8_EE6_M_ptrEv
FNDA:1,_ZNSt15__uniq_ptr_implIN7testing8internal11ThreadLocalISt6vectorINS1_9TraceInfoESaIS4_EEE18ValueHolderFactoryESt14default_deleteIS8_EE6_M_ptrEv
FN:191,_ZNSt15__uniq_ptr_implIN7testing8internal14GTestFlagSaverESt14default_deleteIS2_EE6_M_ptrEv
FNDA:18,_ZNSt15__uniq_ptr_implIN7testing8internal14GTestFlagSaverESt14default_deleteIS2_EE6_M_ptrEv
FN:193,_ZNKSt15__uniq_ptr_implIN7testing8internal16DeathTestFactoryESt14default_deleteIS2_EE6_M_ptrEv
FNDA:0,_ZNKSt15__uniq_ptr_implIN7testing8internal16DeathTestFactoryESt14default_deleteIS2_EE6_M_ptrEv
FN:193,_ZNKSt15__uniq_ptr_implIN7testing8internal24InternalRunDeathTestFlagESt14default_deleteIS2_EE6_M_ptrEv
FNDA:2,_ZNKSt15__uniq_ptr_implIN7testing8internal24InternalRunDeathTestFlagESt14default_deleteIS2_EE6_M_ptrEv
FN:193,_ZNKSt15__uniq_ptr_implINSt7__cxx1118basic_stringstreamIcSt11char_traitsIcESaIcEEESt14default_deleteIS5_EE6_M_ptrEv
FNDA:0,_ZNKSt15__uniq_ptr_implINSt7__cxx1118basic_stringstreamIcSt11char_traitsIcESaIcEEESt14default_deleteIS5_EE6_M_ptrEv
FN:193,_ZNKSt15__uniq_ptr_implIKNSt7__cxx1112basic_stringIcSt11char_traitsIcESaIcEEESt14default_deleteIS6_EE6_M_ptrEv
FNDA:31,_ZNKSt15__uniq_ptr_implIKNSt7__cxx1112basic_stringIcSt11char_traitsIcESaIcEEESt14default_deleteIS6_EE6_M_ptrEv
FN:193,_ZNKSt15__uniq_ptr_implINSt7__cxx1112basic_stringIcSt11char_traitsIcESaIcEEESt14default_deleteIS5_EE6_M_ptrEv
FNDA:0,_ZNKSt15__uniq_ptr_implINSt7__cxx1112basic_stringIcSt11char_traitsIcESaIcEEESt14default_deleteIS5_EE6_M_ptrEv
FN:193,_ZNKSt15__uniq_ptr_implIN7testing8internal11ThreadLocalISt6vectorINS1_9TraceInfoESaIS4_EEE18ValueHolderFactoryESt14default_deleteIS8_EE6_M_ptrEv
FNDA:0,_ZNKSt15__uniq_ptr_implIN7testing8internal11ThreadLocalISt6vectorINS1_9TraceInfoESaIS4_EEE18ValueHolderFactoryESt14default_deleteIS8_EE6_M_ptrEv
FN:193,_ZNKSt15__uniq_ptr_implIN7testing8internal12_GLOBAL__N_122ThreadWithParamSupport15ThreadMainParamESt14default_deleteIS4_EE6_M_ptrEv
FNDA:0,_ZNKSt15__uniq_ptr_implIN7testing8internal12_GLOBAL__N_122ThreadWithParamSupport15ThreadMainParamESt14default_deleteIS4_EE6_M_ptrEv
FN:193,_ZNKSt15__uniq_ptr_implIN7testing8internal19ThreadWithParamBase8RunnableESt14default_deleteIS3_EE6_M_ptrEv
FNDA:0,_ZNKSt15__uniq_ptr_implIN7testing8internal19ThreadWithParamBase8RunnableESt14default_deleteIS3_EE6_M_ptrEv
FN:193,_ZNKSt15__uniq_ptr_implIN7testing8internal11ThreadLocalIPNS0_31TestPartResultReporterInterfaceEE18ValueHolderFactoryESt14default_deleteIS6_EE6_M_ptrEv
FNDA:0,_ZNKSt15__uniq_ptr_implIN7testing8internal11ThreadLocalIPNS0_31TestPartResultReporterInterfaceEE18ValueHolderFactoryESt14default_deleteIS6_EE6_M_ptrEv
FN:195,_ZNSt15__uniq_ptr_implIN7testing8internal24InternalRunDeathTestFlagESt14default_deleteIS2_EE10_M_deleterEv
FNDA:0,_ZNSt15__uniq_ptr_implIN7testing8internal24InternalRunDeathTestFlagESt14default_deleteIS2_EE10_M_deleterEv
FN:195,_ZNSt15__uniq_ptr_implIN7testing8internal12_GLOBAL__N_122ThreadWithParamSupport15ThreadMainParamESt14default_deleteIS4_EE10_M_deleterEv
FNDA:0,_ZNSt15__uniq_ptr_implIN7testing8internal12_GLOBAL__N_122ThreadWithParamSupport15ThreadMainParamESt14default_deleteIS4_EE10_M_deleterEv
FN:195,_ZNSt15__uniq_ptr_implIN7testing8internal19ThreadWithParamBase8RunnableESt14default_deleteIS3_EE10_M_deleterEv
FNDA:0,_ZNSt15__uniq_ptr_implIN7testing8internal19ThreadWithParamBase8RunnableESt14default_deleteIS3_EE10_M_deleterEv
FN:195,_ZNSt15__uniq_ptr_implIN7testing8internal16DeathTestFactoryESt14default_deleteIS2_EE10_M_deleterEv
FNDA:0,_ZNSt15__uniq_ptr_implIN7testing8internal16DeathTestFactoryESt14default_deleteIS2_EE10_M_deleterEv
FN:195,_ZNSt15__uniq_ptr_implIN7testing8internal11ThreadLocalIPNS0_31TestPartResultReporterInterfaceEE18ValueHolderFactoryESt14default_deleteIS6_EE10_M_deleterEv
FNDA:0,_ZNSt15__uniq_ptr_implIN7testing8internal11ThreadLocalIPNS0_31TestPartResultReporterInterfaceEE18ValueHolderFactoryESt14default_deleteIS6_EE10_M_deleterEv
FN:195,_ZNSt15__uniq_ptr_implIKNSt7__cxx1112basic_stringIcSt11char_traitsIcESaIcEEESt14default_deleteIS6_EE10_M_deleterEv
FNDA:0,_ZNSt15__uniq_ptr_implIKNSt7__cxx1112basic_stringIcSt11char_traitsIcESaIcEEESt14default_deleteIS6_EE10_M_deleterEv
FN:195,_ZNSt15__uniq_ptr_implIN7testing8internal11ThreadLocalISt6vectorINS1_9TraceInfoESaIS4_EEE18ValueHolderFactoryESt14default_deleteIS8_EE10_M_deleterEv
FNDA:0,_ZNSt15__uniq_ptr_implIN7testing8internal11ThreadLocalISt6vectorINS1_9TraceInfoESaIS4_EEE18ValueHolderFactoryESt14default_deleteIS8_EE10_M_deleterEv
FN:195,_ZNSt15__uniq_ptr_implIN7testing8internal14GTestFlagSaverESt14default_deleteIS2_EE10_M_deleterEv
FNDA:9,_ZNSt15__uniq_ptr_implIN7testing8internal14GTestFlagSaverESt14default_deleteIS2_EE10_M_deleterEv
FN:195,_ZNSt15__uniq_ptr_implINSt7__cxx1112basic_stringIcSt11char_traitsIcESaIcEEESt14default_deleteIS5_EE10_M_deleterEv
FNDA:0,_ZNSt15__uniq_ptr_implINSt7__cxx1112basic_stringIcSt11char_traitsIcESaIcEEESt14default_deleteIS5_EE10_M_deleterEv
FN:195,_ZNSt15__uniq_ptr_implINSt7__cxx1118basic_stringstreamIcSt11char_traitsIcESaIcEEESt14default_deleteIS5_EE10_M_deleterEv
FNDA:0,_ZNSt15__uniq_ptr_implINSt7__cxx1118basic_stringstreamIcSt11char_traitsIcESaIcEEESt14default_deleteIS5_EE10_M_deleterEv
FN:200,_ZNSt15__uniq_ptr_implINSt7__cxx1112basic_stringIcSt11char_traitsIcESaIcEEESt14default_deleteIS5_EE5resetEPS5_
FNDA:0,_ZNSt15__uniq_ptr_implINSt7__cxx1112basic_stringIcSt11char_traitsIcESaIcEEESt14default_deleteIS5_EE5resetEPS5_
FN:200,_ZNSt15__uniq_ptr_implIN7testing8internal24InternalRunDeathTestFlagESt14default_deleteIS2_EE5resetEPS2_
FNDA:1,_ZNSt15__uniq_ptr_implIN7testing8internal24InternalRunDeathTestFlagESt14default_deleteIS2_EE5resetEPS2_
FN:218,_ZNSt15__uniq_ptr_implINSt7__cxx1112basic_stringIcSt11char_traitsIcESaIcEEESt14default_deleteIS5_EE4swapERS8_
FNDA:0,_ZNSt15__uniq_ptr_implINSt7__cxx1112basic_stringIcSt11char_traitsIcESaIcEEESt14default_deleteIS5_EE4swapERS8_
FN:298,_ZNSt10unique_ptrINSt7__cxx1112basic_stringIcSt11char_traitsIcESaIcEEESt14default_deleteIS5_EEC1IS7_vEEv
FNDA:0,_ZNSt10unique_ptrINSt7__cxx1112basic_stringIcSt11char_traitsIcESaIcEEESt14default_deleteIS5_EEC1IS7_vEEv
FN:298,_ZNSt10unique_ptrIN7testing8internal24InternalRunDeathTestFlagESt14default_deleteIS2_EEC1IS4_vEEv
FNDA:1,_ZNSt10unique_ptrIN7testing8internal24InternalRunDeathTestFlagESt14default_deleteIS2_EEC1IS4_vEEv
FN:311,_ZNSt10unique_ptrIN7testing8internal11ThreadLocalISt6vectorINS1_9TraceInfoESaIS4_EEE18ValueHolderFactoryESt14default_deleteIS8_EEC1ISA_vEEPS8_
FNDA:1,_ZNSt10unique_ptrIN7testing8internal11ThreadLocalISt6vectorINS1_9TraceInfoESaIS4_EEE18ValueHolderFactoryESt14default_deleteIS8_EEC1ISA_vEEPS8_
FN:311,_ZNSt10unique_ptrIN7testing8internal12_GLOBAL__N_122ThreadWithParamSupport15ThreadMainParamESt14default_deleteIS4_EEC2IS6_vEEPS4_
FNDA:0,_ZNSt10unique_ptrIN7testing8internal12_GLOBAL__N_122ThreadWithParamSupport15ThreadMainParamESt14default_deleteIS4_EEC2IS6_vEEPS4_
FN:311,_ZNSt10unique_ptrIN7testing8internal19ThreadWithParamBase8RunnableESt14default_deleteIS3_EEC1IS5_vEEPS3_
FNDA:0,_ZNSt10unique_ptrIN7testing8internal19ThreadWithParamBase8RunnableESt14default_deleteIS3_EEC1IS5_vEEPS3_
FN:311,_ZNSt10unique_ptrIN7testing8internal16DeathTestFactoryESt14default_deleteIS2_EEC1IS4_vEEPS2_
FNDA:1,_ZNSt10unique_ptrIN7testing8internal16DeathTestFactoryESt14default_deleteIS2_EEC1IS4_vEEPS2_
FN:311,_ZNSt10unique_ptrIKNSt7__cxx1112basic_stringIcSt11char_traitsIcESaIcEEESt14default_deleteIS6_EEC1IS8_vEEPS6_
FNDA:22,_ZNSt10unique_ptrIKNSt7__cxx1112basic_stringIcSt11char_traitsIcESaIcEEESt14default_deleteIS6_EEC1IS8_vEEPS6_
FN:311,_ZNSt10unique_ptrIN7testing8internal14GTestFlagSaverESt14default_deleteIS2_EEC1IS4_vEEPS2_
FNDA:9,_ZNSt10unique_ptrIN7testing8internal14GTestFlagSaverESt14default_deleteIS2_EEC1IS4_vEEPS2_
FN:311,_ZNSt10unique_ptrINSt7__cxx1112basic_stringIcSt11char_traitsIcESaIcEEESt14default_deleteIS5_EEC1IS7_vEEPS5_
FNDA:0,_ZNSt10unique_ptrINSt7__cxx1112basic_stringIcSt11char_traitsIcESaIcEEESt14default_deleteIS5_EEC1IS7_vEEPS5_
FN:311,_ZNSt10unique_ptrINSt7__cxx1118basic_stringstreamIcSt11char_traitsIcESaIcEEESt14default_deleteIS5_EEC1IS7_vEEPS5_
FNDA:201,_ZNSt10unique_ptrINSt7__cxx1118basic_stringstreamIcSt11char_traitsIcESaIcEEESt14default_deleteIS5_EEC1IS7_vEEPS5_
FN:311,_ZNSt10unique_ptrIN7testing8internal11ThreadLocalIPNS0_31TestPartResultReporterInterfaceEE18ValueHolderFactoryESt14default_deleteIS6_EEC1IS8_vEEPS6_
FNDA:1,_ZNSt10unique_ptrIN7testing8internal11ThreadLocalIPNS0_31TestPartResultReporterInterfaceEE18ValueHolderFactoryESt14default_deleteIS6_EEC1IS8_vEEPS6_
FN:392,_ZNSt10unique_ptrIN7testing8internal11ThreadLocalISt6vectorINS1_9TraceInfoESaIS4_EEE18ValueHolderFactoryESt14default_deleteIS8_EED1Ev
FNDA:0,_ZNSt10unique_ptrIN7testing8internal11ThreadLocalISt6vectorINS1_9TraceInfoESaIS4_EEE18ValueHolderFactoryESt14default_deleteIS8_EED1Ev
FN:392,_ZNSt10unique_ptrIN7testing8internal14GTestFlagSaverESt14default_deleteIS2_EED1Ev
FNDA:9,_ZNSt10unique_ptrIN7testing8internal14GTestFlagSaverESt14default_deleteIS2_EED1Ev
FN:392,_ZNSt10unique_ptrIKNSt7__cxx1112basic_stringIcSt11char_traitsIcESaIcEEESt14default_deleteIS6_EED1Ev
FNDA:0,_ZNSt10unique_ptrIKNSt7__cxx1112basic_stringIcSt11char_traitsIcESaIcEEESt14default_deleteIS6_EED1Ev
FN:392,_ZNSt10unique_ptrIN7testing8internal24InternalRunDeathTestFlagESt14default_deleteIS2_EED1Ev
FNDA:0,_ZNSt10unique_ptrIN7testing8internal24InternalRunDeathTestFlagESt14default_deleteIS2_EED1Ev
FN:392,_ZNSt10unique_ptrIN7testing8internal16DeathTestFactoryESt14default_deleteIS2_EED1Ev
FNDA:0,_ZNSt10unique_ptrIN7testing8internal16DeathTestFactoryESt14default_deleteIS2_EED1Ev
FN:392,_ZNSt10unique_ptrIN7testing8internal19ThreadWithParamBase8RunnableESt14default_deleteIS3_EED1Ev
FNDA:0,_ZNSt10unique_ptrIN7testing8internal19ThreadWithParamBase8RunnableESt14default_deleteIS3_EED1Ev
FN:392,_ZNSt10unique_ptrIN7testing8internal11ThreadLocalIPNS0_31TestPartResultReporterInterfaceEE18ValueHolderFactoryESt14default_deleteIS6_EED1Ev
FNDA:0,_ZNSt10unique_ptrIN7testing8internal11ThreadLocalIPNS0_31TestPartResultReporterInterfaceEE18ValueHolderFactoryESt14default_deleteIS6_EED1Ev
FN:392,_ZNSt10unique_ptrIN7testing8internal12_GLOBAL__N_122ThreadWithParamSupport15ThreadMainParamESt14default_deleteIS4_EED2Ev
FNDA:0,_ZNSt10unique_ptrIN7testing8internal12_GLOBAL__N_122ThreadWithParamSupport15ThreadMainParamESt14default_deleteIS4_EED2Ev
FN:392,_ZNSt10unique_ptrINSt7__cxx1112basic_stringIcSt11char_traitsIcESaIcEEESt14default_deleteIS5_EED1Ev
FNDA:0,_ZNSt10unique_ptrINSt7__cxx1112basic_stringIcSt11char_traitsIcESaIcEEESt14default_deleteIS5_EED1Ev
FN:392,_ZNSt10unique_ptrINSt7__cxx1118basic_stringstreamIcSt11char_traitsIcESaIcEEESt14default_deleteIS5_EED1Ev
FNDA:0,_ZNSt10unique_ptrINSt7__cxx1118basic_stringstreamIcSt11char_traitsIcESaIcEEESt14default_deleteIS5_EED1Ev
FN:445,_ZNKSt10unique_ptrINSt7__cxx1118basic_stringstreamIcSt11char_traitsIcESaIcEEESt14default_deleteIS5_EEdeEv
FNDA:0,_ZNKSt10unique_ptrINSt7__cxx1118basic_stringstreamIcSt11char_traitsIcESaIcEEESt14default_deleteIS5_EEdeEv
FN:445,_ZNKSt10unique_ptrINSt7__cxx1112basic_stringIcSt11char_traitsIcESaIcEEESt14default_deleteIS5_EEdeEv
FNDA:0,_ZNKSt10unique_ptrINSt7__cxx1112basic_stringIcSt11char_traitsIcESaIcEEESt14default_deleteIS5_EEdeEv
FN:454,_ZNKSt10unique_ptrIKNSt7__cxx1112basic_stringIcSt11char_traitsIcESaIcEEESt14default_deleteIS6_EEptEv
FNDA:0,_ZNKSt10unique_ptrIKNSt7__cxx1112basic_stringIcSt11char_traitsIcESaIcEEESt14default_deleteIS6_EEptEv
FN:454,_ZNKSt10unique_ptrIN7testing8internal19ThreadWithParamBase8RunnableESt14default_deleteIS3_EEptEv
FNDA:0,_ZNKSt10unique_ptrIN7testing8internal19ThreadWithParamBase8RunnableESt14default_deleteIS3_EEptEv
FN:454,_ZNKSt10unique_ptrIN7testing8internal12_GLOBAL__N_122ThreadWithParamSupport15ThreadMainParamESt14default_deleteIS4_EEptEv
FNDA:0,_ZNKSt10unique_ptrIN7testing8internal12_GLOBAL__N_122ThreadWithParamSupport15ThreadMainParamESt14default_deleteIS4_EEptEv
FN:454,_ZNKSt10unique_ptrIN7testing8internal11ThreadLocalIPNS0_31TestPartResultReporterInterfaceEE18ValueHolderFactoryESt14default_deleteIS6_EEptEv
FNDA:0,_ZNKSt10unique_ptrIN7testing8internal11ThreadLocalIPNS0_31TestPartResultReporterInterfaceEE18ValueHolderFactoryESt14default_deleteIS6_EEptEv
FN:454,_ZNKSt10unique_ptrIN7testing8internal11ThreadLocalISt6vectorINS1_9TraceInfoESaIS4_EEE18ValueHolderFactoryESt14default_deleteIS8_EEptEv
FNDA:0,_ZNKSt10unique_ptrIN7testing8internal11ThreadLocalISt6vectorINS1_9TraceInfoESaIS4_EEE18ValueHolderFactoryESt14default_deleteIS8_EEptEv
FN:454,_ZNKSt10unique_ptrINSt7__cxx1112basic_stringIcSt11char_traitsIcESaIcEEESt14default_deleteIS5_EEptEv
FNDA:0,_ZNKSt10unique_ptrINSt7__cxx1112basic_stringIcSt11char_traitsIcESaIcEEESt14default_deleteIS5_EEptEv
FN:463,_ZNKSt10unique_ptrIKNSt7__cxx1112basic_stringIcSt11char_traitsIcESaIcEEESt14default_deleteIS6_EE3getEv
FNDA:31,_ZNKSt10unique_ptrIKNSt7__cxx1112basic_stringIcSt11char_traitsIcESaIcEEESt14default_deleteIS6_EE3getEv
FN:463,_ZNKSt10unique_ptrINSt7__cxx1112basic_stringIcSt11char_traitsIcESaIcEEESt14default_deleteIS5_EE3getEv
FNDA:0,_ZNKSt10unique_ptrINSt7__cxx1112basic_stringIcSt11char_traitsIcESaIcEEESt14default_deleteIS5_EE3getEv
FN:463,_ZNKSt10unique_ptrIN7testing8internal24InternalRunDeathTestFlagESt14default_deleteIS2_EE3getEv
FNDA:2,_ZNKSt10unique_ptrIN7testing8internal24InternalRunDeathTestFlagESt14default_deleteIS2_EE3getEv
FN:463,_ZNKSt10unique_ptrIN7testing8internal16DeathTestFactoryESt14default_deleteIS2_EE3getEv
FNDA:0,_ZNKSt10unique_ptrIN7testing8internal16DeathTestFactoryESt14default_deleteIS2_EE3getEv
FN:463,_ZNKSt10unique_ptrINSt7__cxx1118basic_stringstreamIcSt11char_traitsIcESaIcEEESt14default_deleteIS5_EE3getEv
FNDA:0,_ZNKSt10unique_ptrINSt7__cxx1118basic_stringstreamIcSt11char_traitsIcESaIcEEESt14default_deleteIS5_EE3getEv
FN:463,_ZNKSt10unique_ptrIN7testing8internal12_GLOBAL__N_122ThreadWithParamSupport15ThreadMainParamESt14default_deleteIS4_EE3getEv
FNDA:0,_ZNKSt10unique_ptrIN7testing8internal12_GLOBAL__N_122ThreadWithParamSupport15ThreadMainParamESt14default_deleteIS4_EE3getEv
FN:463,_ZNKSt10unique_ptrIN7testing8internal19ThreadWithParamBase8RunnableESt14default_deleteIS3_EE3getEv
FNDA:0,_ZNKSt10unique_ptrIN7testing8internal19ThreadWithParamBase8RunnableESt14default_deleteIS3_EE3getEv
FN:463,_ZNKSt10unique_ptrIN7testing8internal11ThreadLocalIPNS0_31TestPartResultReporterInterfaceEE18ValueHolderFactoryESt14default_deleteIS6_EE3getEv
FNDA:0,_ZNKSt10unique_ptrIN7testing8internal11ThreadLocalIPNS0_31TestPartResultReporterInterfaceEE18ValueHolderFactoryESt14default_deleteIS6_EE3getEv
FN:463,_ZNKSt10unique_ptrIN7testing8internal11ThreadLocalISt6vectorINS1_9TraceInfoESaIS4_EEE18ValueHolderFactoryESt14default_deleteIS8_EE3getEv
FNDA:0,_ZNKSt10unique_ptrIN7testing8internal11ThreadLocalISt6vectorINS1_9TraceInfoESaIS4_EEE18ValueHolderFactoryESt14default_deleteIS8_EE3getEv
FN:469,_ZNSt10unique_ptrIN7testing8internal16DeathTestFactoryESt14default_deleteIS2_EE11get_deleterEv
FNDA:0,_ZNSt10unique_ptrIN7testing8internal16DeathTestFactoryESt14default_deleteIS2_EE11get_deleterEv
FN:469,_ZNSt10unique_ptrIN7testing8internal19ThreadWithParamBase8RunnableESt14default_deleteIS3_EE11get_deleterEv
FNDA:0,_ZNSt10unique_ptrIN7testing8internal19ThreadWithParamBase8RunnableESt14default_deleteIS3_EE11get_deleterEv
FN:469,_ZNSt10unique_ptrIN7testing8internal12_GLOBAL__N_122ThreadWithParamSupport15ThreadMainParamESt14default_deleteIS4_EE11get_deleterEv
FNDA:0,_ZNSt10unique_ptrIN7testing8internal12_GLOBAL__N_122ThreadWithParamSupport15ThreadMainParamESt14default_deleteIS4_EE11get_deleterEv
FN:469,_ZNSt10unique_ptrIN7testing8internal11ThreadLocalISt6vectorINS1_9TraceInfoESaIS4_EEE18ValueHolderFactoryESt14default_deleteIS8_EE11get_deleterEv
FNDA:0,_ZNSt10unique_ptrIN7testing8internal11ThreadLocalISt6vectorINS1_9TraceInfoESaIS4_EEE18ValueHolderFactoryESt14default_deleteIS8_EE11get_deleterEv
FN:469,_ZNSt10unique_ptrIN7testing8internal24InternalRunDeathTestFlagESt14default_deleteIS2_EE11get_deleterEv
FNDA:0,_ZNSt10unique_ptrIN7testing8internal24InternalRunDeathTestFlagESt14default_deleteIS2_EE11get_deleterEv
FN:469,_ZNSt10unique_ptrINSt7__cxx1118basic_stringstreamIcSt11char_traitsIcESaIcEEESt14default_deleteIS5_EE11get_deleterEv
FNDA:0,_ZNSt10unique_ptrINSt7__cxx1118basic_stringstreamIcSt11char_traitsIcESaIcEEESt14default_deleteIS5_EE11get_deleterEv
FN:469,_ZNSt10unique_ptrIKNSt7__cxx1112basic_stringIcSt11char_traitsIcESaIcEEESt14default_deleteIS6_EE11get_deleterEv
FNDA:0,_ZNSt10unique_ptrIKNSt7__cxx1112basic_stringIcSt11char_traitsIcESaIcEEESt14default_deleteIS6_EE11get_deleterEv
FN:469,_ZNSt10unique_ptrIN7testing8internal14GTestFlagSaverESt14default_deleteIS2_EE11get_deleterEv
FNDA:9,_ZNSt10unique_ptrIN7testing8internal14GTestFlagSaverESt14default_deleteIS2_EE11get_deleterEv
FN:469,_ZNSt10unique_ptrIN7testing8internal11ThreadLocalIPNS0_31TestPartResultReporterInterfaceEE18ValueHolderFactoryESt14default_deleteIS6_EE11get_deleterEv
FNDA:0,_ZNSt10unique_ptrIN7testing8internal11ThreadLocalIPNS0_31TestPartResultReporterInterfaceEE18ValueHolderFactoryESt14default_deleteIS6_EE11get_deleterEv
FN:469,_ZNSt10unique_ptrINSt7__cxx1112basic_stringIcSt11char_traitsIcESaIcEEESt14default_deleteIS5_EE11get_deleterEv
FNDA:0,_ZNSt10unique_ptrINSt7__cxx1112basic_stringIcSt11char_traitsIcESaIcEEESt14default_deleteIS5_EE11get_deleterEv
FN:499,_ZNSt10unique_ptrIN7testing8internal24InternalRunDeathTestFlagESt14default_deleteIS2_EE5resetEPS2_
FNDA:1,_ZNSt10unique_ptrIN7testing8internal24InternalRunDeathTestFlagESt14default_deleteIS2_EE5resetEPS2_
FN:499,_ZNSt10unique_ptrINSt7__cxx1112basic_stringIcSt11char_traitsIcESaIcEEESt14default_deleteIS5_EE5resetEPS5_
FNDA:0,_ZNSt10unique_ptrINSt7__cxx1112basic_stringIcSt11char_traitsIcESaIcEEESt14default_deleteIS5_EE5resetEPS5_
FN:509,_ZNSt10unique_ptrINSt7__cxx1112basic_stringIcSt11char_traitsIcESaIcEEESt14default_deleteIS5_EE4swapERS8_
FNDA:0,_ZNSt10unique_ptrINSt7__cxx1112basic_stringIcSt11char_traitsIcESaIcEEESt14default_deleteIS5_EE4swapERS8_
FN:821,_ZSt4swapINSt7__cxx1112basic_stringIcSt11char_traitsIcESaIcEEESt14default_deleteIS5_EEvRSt10unique_ptrIT_T0_ESC_
FNDA:0,_ZSt4swapINSt7__cxx1112basic_stringIcSt11char_traitsIcESaIcEEESt14default_deleteIS5_EEvRSt10unique_ptrIT_T0_ESC_
FNF:105
FNH:30
DA:87,0
DA:93,0
DA:94,0
DA:87,0
DA:93,0
DA:94,0
DA:87,0
DA:93,0
DA:94,0
DA:87,0
DA:93,0
DA:94,0
DA:87,0
DA:93,0
DA:94,0
DA:87,0
DA:93,0
DA:94,0
DA:87,0
DA:93,0
DA:94,0
DA:87,9
DA:93,9
DA:94,9
DA:87,0
DA:93,0
DA:94,0
DA:87,0
DA:93,0
DA:94,0
DA:168,0
DA:168,1
DA:170,1
DA:170,1
DA:170,0
DA:170,0
DA:170,1
DA:170,22
DA:170,9
DA:170,0
DA:170,201
DA:191,1
DA:191,1
DA:191,0
DA:191,0
DA:191,1
DA:191,2
DA:191,22
DA:191,18
DA:191,0
DA:191,0
DA:193,0
DA:193,0
DA:193,0
DA:193,0
DA:193,0
DA:193,0
DA:193,2
DA:193,31
DA:193,0
DA:195,0
DA:195,0
DA:195,0
DA:195,0
DA:195,0
DA:195,0
DA:195,9
DA:195,0
DA:195,0
DA:195,0
DA:200,1
DA:202,1
DA:203,1
DA:204,1
DA:205,0
DA:206,1
DA:200,0
DA:202,0
DA:203,0
DA:204,0
DA:205,0
DA:206,0
DA:218,0
DA:221,0
DA:222,0
DA:223,0
DA:298,0
DA:299,0
DA:300,0
DA:298,1
DA:299,1
DA:300,1
DA:311,1
DA:312,1
DA:313,1
DA:311,1
DA:312,1
DA:313,1
DA:311,0
DA:312,0
DA:313,0
DA:311,0
DA:312,0
DA:313,0
DA:311,1
DA:312,1
DA:313,1
DA:311,22
DA:312,22
DA:313,22
DA:311,9
DA:312,9
DA:313,9
DA:311,0
DA:312,0
DA:313,0
DA:311,201
DA:312,201
DA:313,201
DA:392,0
DA:396,0
DA:397,0
DA:398,0
DA:399,0
DA:400,0
DA:392,0
DA:396,0
DA:397,0
DA:398,0
DA:399,0
DA:400,0
DA:392,0
DA:396,0
DA:397,0
DA:398,0
DA:399,0
DA:400,0
DA:392,0
DA:396,0
DA:397,0
DA:398,0
DA:399,0
DA:400,0
DA:392,0
DA:396,0
DA:397,0
DA:398,0
DA:399,0
DA:400,0
DA:392,0
DA:396,0
DA:397,0
DA:398,0
DA:399,0
DA:400,0
DA:392,0
DA:396,0
DA:397,0
DA:398,0
DA:399,0
DA:400,0
DA:392,9
DA:396,9
DA:397,9
DA:398,9
DA:399,9
DA:400,9
DA:392,0
DA:396,0
DA:397,0
DA:398,0
DA:399,0
DA:400,0
DA:392,0
DA:396,0
DA:397,0
DA:398,0
DA:399,0
DA:400,0
DA:445,0
DA:447,0
DA:448,0
DA:445,0
DA:447,0
DA:448,0
DA:454,0
DA:457,0
DA:454,0
DA:457,0
DA:454,0
DA:457,0
DA:454,0
DA:457,0
DA:454,0
DA:457,0
DA:454,0
DA:457,0
DA:463,0
DA:464,0
DA:463,0
DA:464,0
DA:463,0
DA:464,0
DA:463,0
DA:464,0
DA:463,0
DA:464,0
DA:463,0
DA:464,0
DA:463,2
DA:464,2
DA:463,31
DA:464,31
DA:463,0
DA:464,0
DA:469,0
DA:470,0
DA:469,0
DA:470,0
DA:469,0
DA:470,0
DA:469,0
DA:470,0
DA:469,0
DA:470,0
DA:469,0
DA:470,0
DA:469,0
DA:470,0
DA:469,9
DA:470,9
DA:469,0
DA:470,0
DA:469,0
DA:470,0
DA:499,1
DA:503,1
DA:504,1
DA:499,0
DA:503,0
DA:504,0
DA:509,0
DA:512,0
DA:513,0
DA:821,0
DA:823,0
LF:246
LH:60
end_of_record
SF:C:\workspace\matrixGenerator\build\_deps\googletest-src\googletest\include\gtest\gtest-matchers.h
FN:78,_ZN7testing19MatchResultListenerC2EPSo
FNDA:0,_ZN7testing19MatchResultListenerC2EPSo
FN:90,_ZN7testing19MatchResultListener6streamEv
FNDA:0,_ZN7testing19MatchResultListener6streamEv
FN:104,_ZN7testing19MatchResultListenerD2Ev
FNDA:0,_ZN7testing19MatchResultListenerD2Ev
FN:111,_ZN7testing25MatcherDescriberInterfaceD2Ev
FNDA:0,_ZN7testing25MatcherDescriberInterfaceD2Ev
FN:126,_ZNK7testing25MatcherDescriberInterface18DescribeNegationToEPSo
FNDA:0,_ZNK7testing25MatcherDescriberInterface18DescribeNegationToEPSo
FN:179,_ZNK7testing8internal5AnyEqclINSt7__cxx1112basic_stringIcSt11char_traitsIcESaIcEEES8_EEbRKT_RKT0_
FNDA:0,_ZNK7testing8internal5AnyEqclINSt7__cxx1112basic_stringIcSt11char_traitsIcESaIcEEES8_EEbRKT_RKT0_
FN:205,_ZN7testing8internal24DummyMatchResultListenerC1Ev
FNDA:0,_ZN7testing8internal24DummyMatchResultListenerC1Ev
FN:226,_ZN7testing8internal17SharedPayloadBase5UnrefEv
FNDA:0,_ZN7testing8internal17SharedPayloadBase5UnrefEv
FN:232,_ZN7testing8internal13SharedPayloadINS0_9EqMatcherINSt7__cxx1112basic_stringIcSt11char_traitsIcESaIcEEEEEEC1EOS9_
FNDA:0,_ZN7testing8internal13SharedPayloadINS0_9EqMatcherINSt7__cxx1112basic_stringIcSt11char_traitsIcESaIcEEEEEEC1EOS9_
FN:234,_ZN7testing8internal13SharedPayloadINS0_9EqMatcherINSt7__cxx1112basic_stringIcSt11char_traitsIcESaIcEEEEEE7DestroyEPNS0_17SharedPayloadBaseE
FNDA:0,_ZN7testing8internal13SharedPayloadINS0_9EqMatcherINSt7__cxx1112basic_stringIcSt11char_traitsIcESaIcEEEEEE7DestroyEPNS0_17SharedPayloadBaseE
FN:249,_ZNK7testing8internal11MatcherBaseIRKNSt7__cxx1112basic_stringIcSt11char_traitsIcESaIcEEEE15MatchAndExplainES9_PNS_19MatchResultListenerE
FNDA:0,_ZNK7testing8internal11MatcherBaseIRKNSt7__cxx1112basic_stringIcSt11char_traitsIcESaIcEEEE15MatchAndExplainES9_PNS_19MatchResultListenerE
FN:255,_ZNK7testing8internal11MatcherBaseIRKNSt7__cxx1112basic_stringIcSt11char_traitsIcESaIcEEEE7MatchesES9_
FNDA:0,_ZNK7testing8internal11MatcherBaseIRKNSt7__cxx1112basic_stringIcSt11char_traitsIcESaIcEEEE7MatchesES9_
FN:261,_ZNK7testing8internal11MatcherBaseINSt7__cxx1112basic_stringIcSt11char_traitsIcESaIcEEEE10DescribeToEPSo
FNDA:0,_ZNK7testing8internal11MatcherBaseINSt7__cxx1112basic_stringIcSt11char_traitsIcESaIcEEEE10DescribeToEPSo
FN:261,_ZNK7testing8internal11MatcherBaseIRKNSt7__cxx1112basic_stringIcSt11char_traitsIcESaIcEEEE10DescribeToEPSo
FNDA:0,_ZNK7testing8internal11MatcherBaseIRKNSt7__cxx1112basic_stringIcSt11char_traitsIcESaIcEEEE10DescribeToEPSo
FN:267,_ZNK7testing8internal11MatcherBaseINSt7__cxx1112basic_stringIcSt11char_traitsIcESaIcEEEE18DescribeNegationToEPSo
FNDA:0,_ZNK7testing8internal11MatcherBaseINSt7__cxx1112basic_stringIcSt11char_traitsIcESaIcEEEE18DescribeNegationToEPSo
FN:267,_ZNK7testing8internal11MatcherBaseIRKNSt7__cxx1112basic_stringIcSt11char_traitsIcESaIcEEEE18DescribeNegationToEPSo
FNDA:0,_ZNK7testing8internal11MatcherBaseIRKNSt7__cxx1112basic_stringIcSt11char_traitsIcESaIcEEEE18DescribeNegationToEPSo
FN:287,_ZN7testing8internal11MatcherBaseIRKNSt7__cxx1112basic_stringIcSt11char_traitsIcESaIcEEEEC2Ev
FNDA:0,_ZN7testing8internal11MatcherBaseIRKNSt7__cxx1112basic_stringIcSt11char_traitsIcESaIcEEEEC2Ev
FN:287,_ZN7testing8internal11MatcherBaseINSt7__cxx1112basic_stringIcSt11char_traitsIcESaIcEEEEC2Ev
FNDA:0,_ZN7testing8internal11MatcherBaseINSt7__cxx1112basic_stringIcSt11char_traitsIcESaIcEEEEC2Ev
FN:297,_ZN7testing8internal11MatcherBaseIRKNSt7__cxx1112basic_stringIcSt11char_traitsIcESaIcEEEEC2INS0_9EqMatcherIS7_EEvEEOT_
FNDA:0,_ZN7testing8internal11MatcherBaseIRKNSt7__cxx1112basic_stringIcSt11char_traitsIcESaIcEEEEC2INS0_9EqMatcherIS7_EEvEEOT_
FN:297,_ZN7testing8internal11MatcherBaseINSt7__cxx1112basic_stringIcSt11char_traitsIcESaIcEEEEC2INS0_9EqMatcherIS7_EEvEEOT_
FNDA:0,_ZN7testing8internal11MatcherBaseINSt7__cxx1112basic_stringIcSt11char_traitsIcESaIcEEEEC2INS0_9EqMatcherIS7_EEvEEOT_
FN:315,_ZN7testing8internal11MatcherBaseIRKNSt7__cxx1112basic_stringIcSt11char_traitsIcESaIcEEEEC2EOSA_
FNDA:0,_ZN7testing8internal11MatcherBaseIRKNSt7__cxx1112basic_stringIcSt11char_traitsIcESaIcEEEEC2EOSA_
FN:320,_ZN7testing8internal11MatcherBaseINSt7__cxx1112basic_stringIcSt11char_traitsIcESaIcEEEEaSEOS8_
FNDA:0,_ZN7testing8internal11MatcherBaseINSt7__cxx1112basic_stringIcSt11char_traitsIcESaIcEEEEaSEOS8_
FN:320,_ZN7testing8internal11MatcherBaseIRKNSt7__cxx1112basic_stringIcSt11char_traitsIcESaIcEEEEaSEOSA_
FNDA:0,_ZN7testing8internal11MatcherBaseIRKNSt7__cxx1112basic_stringIcSt11char_traitsIcESaIcEEEEaSEOSA_
FN:329,_ZN7testing8internal11MatcherBaseIRKNSt7__cxx1112basic_stringIcSt11char_traitsIcESaIcEEEED1Ev
FNDA:0,_ZN7testing8internal11MatcherBaseIRKNSt7__cxx1112basic_stringIcSt11char_traitsIcESaIcEEEED1Ev
FN:329,_ZN7testing8internal11MatcherBaseIRKNSt7__cxx1112basic_stringIcSt11char_traitsIcESaIcEEEED0Ev
FNDA:0,_ZN7testing8internal11MatcherBaseIRKNSt7__cxx1112basic_stringIcSt11char_traitsIcESaIcEEEED0Ev
FN:329,_ZN7testing8internal11MatcherBaseINSt7__cxx1112basic_stringIcSt11char_traitsIcESaIcEEEED2Ev
FNDA:0,_ZN7testing8internal11MatcherBaseINSt7__cxx1112basic_stringIcSt11char_traitsIcESaIcEEEED2Ev
FN:329,_ZN7testing8internal11MatcherBaseIRKNSt7__cxx1112basic_stringIcSt11char_traitsIcESaIcEEEED2Ev
FNDA:0,_ZN7testing8internal11MatcherBaseIRKNSt7__cxx1112basic_stringIcSt11char_traitsIcESaIcEEEED2Ev
FN:329,_ZN7testing8internal11MatcherBaseINSt7__cxx1112basic_stringIcSt11char_traitsIcESaIcEEEED1Ev
FNDA:0,_ZN7testing8internal11MatcherBaseINSt7__cxx1112basic_stringIcSt11char_traitsIcESaIcEEEED1Ev
FN:329,_ZN7testing8internal11MatcherBaseINSt7__cxx1112basic_stringIcSt11char_traitsIcESaIcEEEED0Ev
FNDA:0,_ZN7testing8internal11MatcherBaseINSt7__cxx1112basic_stringIcSt11char_traitsIcESaIcEEEED0Ev
FN:343,_ZNK7testing8internal11MatcherBaseINSt7__cxx1112basic_stringIcSt11char_traitsIcESaIcEEEE8IsSharedEv
FNDA:0,_ZNK7testing8internal11MatcherBaseINSt7__cxx1112basic_stringIcSt11char_traitsIcESaIcEEEE8IsSharedEv
FN:343,_ZNK7testing8internal11MatcherBaseIRKNSt7__cxx1112basic_stringIcSt11char_traitsIcESaIcEEEE8IsSharedEv
FNDA:0,_ZNK7testing8internal11MatcherBaseIRKNSt7__cxx1112basic_stringIcSt11char_traitsIcESaIcEEEE8IsSharedEv
FN:349,_ZN7testing8internal11MatcherBaseIRKNSt7__cxx1112basic_stringIcSt11char_traitsIcESaIcEEEE19MatchAndExplainImplINSA_11ValuePolicyINS0_9EqMatcherIS7_EELb0EEEEEDTcldtclsrT_3Getfp_E15MatchAndExplainfp0_clptfp1_L_ZNS_19MatchResultListener6streamEvEEEERKSA_S9_PSH_
FNDA:0,_ZN7testing8internal11MatcherBaseIRKNSt7__cxx1112basic_stringIcSt11char_traitsIcESaIcEEEE19MatchAndExplainImplINSA_11ValuePolicyINS0_9EqMatcherIS7_EELb0EEEEEDTcldtclsrT_3Getfp_E15MatchAndExplainfp0_clptfp1_L_ZNS_19MatchResultListener6streamEvEEEERKSA_S9_PSH_
FN:349,_ZN7testing8internal11MatcherBaseINSt7__cxx1112basic_stringIcSt11char_traitsIcESaIcEEEE19MatchAndExplainImplINS8_11ValuePolicyINS0_9EqMatcherIS7_EELb0EEEEEDTcldtclsrT_3Getfp_E15MatchAndExplainfp0_clptfp1_L_ZNS_19MatchResultListener6streamEvEEEERKS8_RKS7_PSF_
FNDA:0,_ZN7testing8internal11MatcherBaseINSt7__cxx1112basic_stringIcSt11char_traitsIcESaIcEEEE19MatchAndExplainImplINS8_11ValuePolicyINS0_9EqMatcherIS7_EELb0EEEEEDTcldtclsrT_3Getfp_E15MatchAndExplainfp0_clptfp1_L_ZNS_19MatchResultListener6streamEvEEEERKS8_RKS7_PSF_
FN:363,_ZN7testing8internal11MatcherBaseINSt7__cxx1112basic_stringIcSt11char_traitsIcESaIcEEEE12DescribeImplINS8_11ValuePolicyINS0_9EqMatcherIS7_EELb0EEEEEvRKS8_PSob
FNDA:0,_ZN7testing8internal11MatcherBaseINSt7__cxx1112basic_stringIcSt11char_traitsIcESaIcEEEE12DescribeImplINS8_11ValuePolicyINS0_9EqMatcherIS7_EELb0EEEEEvRKS8_PSob
FN:363,_ZN7testing8internal11MatcherBaseIRKNSt7__cxx1112basic_stringIcSt11char_traitsIcESaIcEEEE12DescribeImplINSA_11ValuePolicyINS0_9EqMatcherIS7_EELb0EEEEEvRKSA_PSob
FNDA:0,_ZN7testing8internal11MatcherBaseIRKNSt7__cxx1112basic_stringIcSt11char_traitsIcESaIcEEEE12DescribeImplINSA_11ValuePolicyINS0_9EqMatcherIS7_EELb0EEEEEvRKSA_PSob
FN:373,_ZN7testing8internal11MatcherBaseIRKNSt7__cxx1112basic_stringIcSt11char_traitsIcESaIcEEEE16GetDescriberImplINSA_11ValuePolicyINS0_9EqMatcherIS7_EELb0EEEEEPKNS_25MatcherDescriberInterfaceERKSA_
FNDA:0,_ZN7testing8internal11MatcherBaseIRKNSt7__cxx1112basic_stringIcSt11char_traitsIcESaIcEEEE16GetDescriberImplINSA_11ValuePolicyINS0_9EqMatcherIS7_EELb0EEEEEPKNS_25MatcherDescriberInterfaceERKSA_
FN:373,_ZN7testing8internal11MatcherBaseINSt7__cxx1112basic_stringIcSt11char_traitsIcESaIcEEEE16GetDescriberImplINS8_11ValuePolicyINS0_9EqMatcherIS7_EELb0EEEEEPKNS_25MatcherDescriberInterfaceERKS8_
FNDA:0,_ZN7testing8internal11MatcherBaseINSt7__cxx1112basic_stringIcSt11char_traitsIcESaIcEEEE16GetDescriberImplINS8_11ValuePolicyINS0_9EqMatcherIS7_EELb0EEEEEPKNS_25MatcherDescriberInterfaceERKS8_
FN:389,_ZN7testing8internal11MatcherBaseINSt7__cxx1112basic_stringIcSt11char_traitsIcESaIcEEEE9GetVTableINS8_11ValuePolicyINS0_9EqMatcherIS7_EELb0EEEEEPKNS8_6VTableEv
FNDA:0,_ZN7testing8internal11MatcherBaseINSt7__cxx1112basic_stringIcSt11char_traitsIcESaIcEEEE9GetVTableINS8_11ValuePolicyINS0_9EqMatcherIS7_EELb0EEEEEPKNS8_6VTableEv
FN:389,_ZN7testing8internal11MatcherBaseIRKNSt7__cxx1112basic_stringIcSt11char_traitsIcESaIcEEEE9GetVTableINSA_11ValuePolicyINS0_9EqMatcherIS7_EELb0EEEEEPKNSA_6VTableEv
FNDA:0,_ZN7testing8internal11MatcherBaseIRKNSt7__cxx1112basic_stringIcSt11char_traitsIcESaIcEEEE9GetVTableINSA_11ValuePolicyINS0_9EqMatcherIS7_EELb0EEEEEPKNSA_6VTableEv
FN:405,_ZN7testing8internal11MatcherBaseIRKNSt7__cxx1112basic_stringIcSt11char_traitsIcESaIcEEEE7DestroyEv
FNDA:0,_ZN7testing8internal11MatcherBaseIRKNSt7__cxx1112basic_stringIcSt11char_traitsIcESaIcEEEE7DestroyEv
FN:405,_ZN7testing8internal11MatcherBaseINSt7__cxx1112basic_stringIcSt11char_traitsIcESaIcEEEE7DestroyEv
FNDA:0,_ZN7testing8internal11MatcherBaseINSt7__cxx1112basic_stringIcSt11char_traitsIcESaIcEEEE7DestroyEv
FN:436,_ZN7testing8internal11MatcherBaseINSt7__cxx1112basic_stringIcSt11char_traitsIcESaIcEEEE11ValuePolicyINS0_9EqMatcherIS7_EELb0EE3GetERKS8_
FNDA:0,_ZN7testing8internal11MatcherBaseINSt7__cxx1112basic_stringIcSt11char_traitsIcESaIcEEEE11ValuePolicyINS0_9EqMatcherIS7_EELb0EE3GetERKS8_
FN:436,_ZN7testing8internal11MatcherBaseIRKNSt7__cxx1112basic_stringIcSt11char_traitsIcESaIcEEEE11ValuePolicyINS0_9EqMatcherIS7_EELb0EE3GetERKSA_
FNDA:0,_ZN7testing8internal11MatcherBaseIRKNSt7__cxx1112basic_stringIcSt11char_traitsIcESaIcEEEE11ValuePolicyINS0_9EqMatcherIS7_EELb0EE3GetERKSA_
FN:440,_ZN7testing8internal11MatcherBaseINSt7__cxx1112basic_stringIcSt11char_traitsIcESaIcEEEE11ValuePolicyINS0_9EqMatcherIS7_EELb0EE4InitISB_EEvRS8_OT_
FNDA:0,_ZN7testing8internal11MatcherBaseINSt7__cxx1112basic_stringIcSt11char_traitsIcESaIcEEEE11ValuePolicyINS0_9EqMatcherIS7_EELb0EE4InitISB_EEvRS8_OT_
FN:440,_ZN7testing8internal11MatcherBaseIRKNSt7__cxx1112basic_stringIcSt11char_traitsIcESaIcEEEE11ValuePolicyINS0_9EqMatcherIS7_EELb0EE4InitISD_EEvRSA_OT_
FNDA:0,_ZN7testing8internal11MatcherBaseIRKNSt7__cxx1112basic_stringIcSt11char_traitsIcESaIcEEEE11ValuePolicyINS0_9EqMatcherIS7_EELb0EE4InitISD_EEvRSA_OT_
FN:461,_ZN7testing8internal11MatcherBaseIRKNSt7__cxx1112basic_stringIcSt11char_traitsIcESaIcEEEE4InitINS0_9EqMatcherIS7_EEEEvOT_
FNDA:0,_ZN7testing8internal11MatcherBaseIRKNSt7__cxx1112basic_stringIcSt11char_traitsIcESaIcEEEE4InitINS0_9EqMatcherIS7_EEEEvOT_
FN:461,_ZN7testing8internal11MatcherBaseINSt7__cxx1112basic_stringIcSt11char_traitsIcESaIcEEEE4InitINS0_9EqMatcherIS7_EEEEvOT_
FNDA:0,_ZN7testing8internal11MatcherBaseINSt7__cxx1112basic_stringIcSt11char_traitsIcESaIcEEEE4InitINS0_9EqMatcherIS7_EEEEvOT_
FN:520,_ZN7testing7MatcherIRKNSt7__cxx1112basic_stringIcSt11char_traitsIcESaIcEEEEC1INS_8internal9EqMatcherIS6_EEvEEOT_
FNDA:0,_ZN7testing7MatcherIRKNSt7__cxx1112basic_stringIcSt11char_traitsIcESaIcEEEEC1INS_8internal9EqMatcherIS6_EEvEEOT_
FN:544,_ZN7testing7MatcherINSt7__cxx1112basic_stringIcSt11char_traitsIcESaIcEEEEC1INS_8internal9EqMatcherIS6_EEvEEOT_
FNDA:0,_ZN7testing7MatcherINSt7__cxx1112basic_stringIcSt11char_traitsIcESaIcEEEEC1INS_8internal9EqMatcherIS6_EEvEEOT_
FN:710,_ZN7testing8internal14ComparisonBaseINS0_9EqMatcherINSt7__cxx1112basic_stringIcSt11char_traitsIcESaIcEEEEES8_NS0_5AnyEqEEC2ERKS8_
FNDA:0,_ZN7testing8internal14ComparisonBaseINS0_9EqMatcherINSt7__cxx1112basic_stringIcSt11char_traitsIcESaIcEEEEES8_NS0_5AnyEqEEC2ERKS8_
FN:715,_ZNK7testing8internal14ComparisonBaseINS0_9EqMatcherINSt7__cxx1112basic_stringIcSt11char_traitsIcESaIcEEEEES8_NS0_5AnyEqEE15MatchAndExplainIS8_EEbRKT_PSo
FNDA:0,_ZNK7testing8internal14ComparisonBaseINS0_9EqMatcherINSt7__cxx1112basic_stringIcSt11char_traitsIcESaIcEEEEES8_NS0_5AnyEqEE15MatchAndExplainIS8_EEbRKT_PSo
FN:718,_ZNK7testing8internal14ComparisonBaseINS0_9EqMatcherINSt7__cxx1112basic_stringIcSt11char_traitsIcESaIcEEEEES8_NS0_5AnyEqEE10DescribeToEPSo
FNDA:0,_ZNK7testing8internal14ComparisonBaseINS0_9EqMatcherINSt7__cxx1112basic_stringIcSt11char_traitsIcESaIcEEEEES8_NS0_5AnyEqEE10DescribeToEPSo
FN:722,_ZNK7testing8internal14ComparisonBaseINS0_9EqMatcherINSt7__cxx1112basic_stringIcSt11char_traitsIcESaIcEEEEES8_NS0_5AnyEqEE18DescribeNegationToEPSo
FNDA:0,_ZNK7testing8internal14ComparisonBaseINS0_9EqMatcherINSt7__cxx1112basic_stringIcSt11char_traitsIcESaIcEEEEES8_NS0_5AnyEqEE18DescribeNegationToEPSo
FN:729,_ZN7testing8internal14ComparisonBaseINS0_9EqMatcherINSt7__cxx1112basic_stringIcSt11char_traitsIcESaIcEEEEES8_NS0_5AnyEqEE6UnwrapIS8_EERKT_SF_
FNDA:0,_ZN7testing8internal14ComparisonBaseINS0_9EqMatcherINSt7__cxx1112basic_stringIcSt11char_traitsIcESaIcEEEEES8_NS0_5AnyEqEE6UnwrapIS8_EERKT_SF_
FN:743,_ZN7testing8internal9EqMatcherINSt7__cxx1112basic_stringIcSt11char_traitsIcESaIcEEEEC1ERKS7_
FNDA:0,_ZN7testing8internal9EqMatcherINSt7__cxx1112basic_stringIcSt11char_traitsIcESaIcEEEEC1ERKS7_
FN:745,_ZN7testing8internal9EqMatcherINSt7__cxx1112basic_stringIcSt11char_traitsIcESaIcEEEE4DescEv
FNDA:0,_ZN7testing8internal9EqMatcherINSt7__cxx1112basic_stringIcSt11char_traitsIcESaIcEEEE4DescEv
FN:746,_ZN7testing8internal9EqMatcherINSt7__cxx1112basic_stringIcSt11char_traitsIcESaIcEEEE11NegatedDescEv
FNDA:0,_ZN7testing8internal9EqMatcherINSt7__cxx1112basic_stringIcSt11char_traitsIcESaIcEEEE11NegatedDescEv
FN:875,_ZN7testing2EqINSt7__cxx1112basic_stringIcSt11char_traitsIcESaIcEEEEENS_8internal9EqMatcherIT_EES9_
FNDA:0,_ZN7testing2EqINSt7__cxx1112basic_stringIcSt11char_traitsIcESaIcEEEEENS_8internal9EqMatcherIT_EES9_
FNF:58
FNH:0
DA:78,0
DA:90,0
DA:104,0
DA:105,0
DA:111,0
DA:126,0
DA:127,0
DA:128,0
DA:129,0
DA:130,0
DA:179,0
DA:205,0
DA:226,0
DA:232,0
DA:234,0
DA:235,0
DA:236,0
DA:249,0
DA:250,0
DA:251,0
DA:255,0
DA:256,0
DA:257,0
DA:258,0
DA:261,0
DA:262,0
DA:263,0
DA:264,0
DA:261,0
DA:262,0
DA:263,0
DA:264,0
DA:267,0
DA:268,0
DA:269,0
DA:270,0
DA:267,0
DA:268,0
DA:269,0
DA:270,0
DA:287,0
DA:287,0
DA:297,0
DA:298,0
DA:299,0
DA:297,0
DA:298,0
DA:299,0
DA:315,0
DA:316,0
DA:317,0
DA:318,0
DA:320,0
DA:321,0
DA:322,0
DA:323,0
DA:324,0
DA:325,0
DA:326,0
DA:320,0
DA:321,0
DA:322,0
DA:323,0
DA:324,0
DA:325,0
DA:326,0
DA:329,0
DA:329,0
DA:329,0
DA:329,0
DA:329,0
DA:329,0
DA:343,0
DA:344,0
DA:343,0
DA:344,0
DA:349,0
DA:352,0
DA:349,0
DA:352,0
DA:363,0
DA:365,0
DA:366,0
DA:368,0
DA:370,0
DA:363,0
DA:365,0
DA:366,0
DA:368,0
DA:370,0
DA:373,0
DA:385,0
DA:373,0
DA:385,0
DA:389,0
DA:393,0
DA:389,0
DA:393,0
DA:405,0
DA:406,0
DA:407,0
DA:409,0
DA:405,0
DA:406,0
DA:407,0
DA:409,0
DA:436,0
DA:437,0
DA:436,0
DA:437,0
DA:440,0
DA:441,0
DA:442,0
DA:440,0
DA:441,0
DA:442,0
DA:461,0
DA:464,0
DA:465,0
DA:466,0
DA:461,0
DA:464,0
DA:465,0
DA:466,0
DA:520,0
DA:521,0
DA:544,0
DA:545,0
DA:710,0
DA:715,0
DA:716,0
DA:718,0
DA:719,0
DA:720,0
DA:721,0
DA:722,0
DA:723,0
DA:724,0
DA:725,0
DA:729,0
DA:730,0
DA:743,0
DA:744,0
DA:745,0
DA:746,0
DA:875,0
LF:146
LH:0
end_of_record
SF:C:\msys64\mingw64\include\c++\14.1.0\iomanip
FN:170,_ZSt7setfillIcESt8_SetfillIT_ES1_
FNDA:84,_ZSt7setfillIcESt8_SetfillIT_ES1_
FN:202,_ZSt12setprecisioni
FNDA:201,_ZSt12setprecisioni
FN:232,_ZSt4setwi
FNDA:5084,_ZSt4setwi
FNF:3
FNH:3
DA:170,84
DA:171,84
DA:202,201
DA:203,201
DA:232,5084
DA:233,5084
LF:6
LH:6
end_of_record
SF:C:\workspace\matrixGenerator\build\_deps\googletest-src\googletest\include\gtest\internal\gtest-filepath.h
FN:64,_ZN7testing8internal8FilePathC1Ev
FNDA:1,_ZN7testing8internal8FilePathC1Ev
FN:65,_ZN7testing8internal8FilePathC1ERKS1_
FNDA:1,_ZN7testing8internal8FilePathC1ERKS1_
FN:67,_ZN7testing8internal8FilePathC1ERKNSt7__cxx1112basic_stringIcSt11char_traitsIcESaIcEEE
FNDA:8,_ZN7testing8internal8FilePathC1ERKNSt7__cxx1112basic_stringIcSt11char_traitsIcESaIcEEE
FN:71,_ZN7testing8internal8FilePathaSERKS1_
FNDA:1,_ZN7testing8internal8FilePathaSERKS1_
FN:76,_ZN7testing8internal8FilePath3SetERKS1_
FNDA:2,_ZN7testing8internal8FilePath3SetERKS1_
FN:80,_ZNK7testing8internal8FilePath6stringB5cxx11Ev
FNDA:3,_ZNK7testing8internal8FilePath6stringB5cxx11Ev
FN:81,_ZNK7testing8internal8FilePath5c_strEv
FNDA:6,_ZNK7testing8internal8FilePath5c_strEv
FN:114,_ZNK7testing8internal8FilePath7IsEmptyEv
FNDA:11,_ZNK7testing8internal8FilePath7IsEmptyEv
FNF:8
FNH:8
DA:64,3
DA:65,1
DA:67,8
DA:68,8
DA:69,8
DA:71,1
DA:72,1
DA:73,1
DA:76,2
DA:77,2
DA:78,2
DA:80,3
DA:81,6
DA:114,11
LF:14
LH:14
end_of_record
SF:C:\workspace\matrixGenerator\build\_deps\googletest-src\googletest\src\gtest.cc
FN:181,_ZN7testing8internalL18OpenFileForWritingERKNSt7__cxx1112basic_stringIcSt11char_traitsIcESaIcEEE
FNDA:1,_ZN7testing8internalL18OpenFileForWritingERKNSt7__cxx1112basic_stringIcSt11char_traitsIcESaIcEEE
FN:199,_ZN7testingL16GetDefaultFilterEv
FNDA:1,_ZN7testingL16GetDefaultFilterEv
FN:210,_ZN7testingL18GetDefaultFailFastEv
FNDA:1,_ZN7testingL18GetDefaultFailFastEv
FN:348,_ZN7testing8internal6Random8GenerateEj
FNDA:0,_ZN7testing8internal6Random8GenerateEj
FN:368,_ZN7testing8internalL18GTestIsInitializedEv
FNDA:2,_ZN7testing8internalL18GTestIsInitializedEv
FN:373,_ZN7testing8internalL20SumOverTestSuiteListERKSt6vectorIPNS_9TestSuiteESaIS3_EEMS2_KFivE
FNDA:8,_ZN7testing8internalL20SumOverTestSuiteListERKSt6vectorIPNS_9TestSuiteESaIS3_EEMS2_KFivE
FN:383,_ZN7testing8internalL15TestSuitePassedEPKNS_9TestSuiteE
FNDA:0,_ZN7testing8internalL15TestSuitePassedEPKNS_9TestSuiteE
FN:388,_ZN7testing8internalL15TestSuiteFailedEPKNS_9TestSuiteE
FNDA:8,_ZN7testing8internalL15TestSuiteFailedEPKNS_9TestSuiteE
FN:394,_ZN7testing8internalL18ShouldRunTestSuiteEPKNS_9TestSuiteE
FNDA:8,_ZN7testing8internalL18ShouldRunTestSuiteEPKNS_9TestSuiteE
FN:399,_ZN7testing8internal12AssertHelperC2ENS_14TestPartResult4TypeEPKciS5_
FNDA:0,_ZN7testing8internal12AssertHelperC2ENS_14TestPartResult4TypeEPKciS5_
FN:406,_ZN7testing8internal12AssertHelperD2Ev
FNDA:0,_ZN7testing8internal12AssertHelperD2Ev
FN:411,_ZNK7testing8internal12AssertHelperaSERKNS_7MessageE
FNDA:0,_ZNK7testing8internal12AssertHelperaSERKNS_7MessageE
FN:434,_ZN7testing8internal12_GLOBAL__N_111FailureTestC2ERKNS0_12CodeLocationENSt7__cxx1112basic_stringIcSt11char_traitsIcESaIcEEEb
FNDA:0,_ZN7testing8internal12_GLOBAL__N_111FailureTestC2ERKNS0_12CodeLocationENSt7__cxx1112basic_stringIcSt11char_traitsIcESaIcEEEb
FN:440,_ZN7testing8internal12_GLOBAL__N_111FailureTest8TestBodyEv
FNDA:0,_ZN7testing8internal12_GLOBAL__N_111FailureTest8TestBodyEv
FN:458,_ZN7testing8internal33GetIgnoredParameterizedTestSuitesB5cxx11Ev
FNDA:1,_ZN7testing8internal33GetIgnoredParameterizedTestSuitesB5cxx11Ev
FN:463,_ZN7testing8internal13MarkAsIgnoredC2EPKc
FNDA:0,_ZN7testing8internal13MarkAsIgnoredC2EPKc
FN:469,_ZN7testing8internal23InsertSyntheticTestCaseERKNSt7__cxx1112basic_stringIcSt11char_traitsIcESaIcEEENS0_12CodeLocationEb
FNDA:0,_ZN7testing8internal23InsertSyntheticTestCaseERKNSt7__cxx1112basic_stringIcSt11char_traitsIcESaIcEEENS0_12CodeLocationEb
FN:506,_ZZN7testing8internal23InsertSyntheticTestCaseERKNSt7__cxx1112basic_stringIcSt11char_traitsIcESaIcEEENS0_12CodeLocationEbENKUlvE_clEv
FNDA:0,_ZZN7testing8internal23InsertSyntheticTestCaseERKNSt7__cxx1112basic_stringIcSt11char_traitsIcESaIcEEENS0_12CodeLocationEbENKUlvE_clEv
FN:512,_ZN7testing8internal34RegisterTypeParameterizedTestSuiteEPKcNS0_12CodeLocationE
FNDA:0,_ZN7testing8internal34RegisterTypeParameterizedTestSuiteEPKcNS0_12CodeLocationE
FN:518,_ZN7testing8internal47RegisterTypeParameterizedTestSuiteInstantiationEPKc
FNDA:0,_ZN7testing8internal47RegisterTypeParameterizedTestSuiteInstantiationEPKc
FN:524,_ZN7testing8internal34TypeParameterizedTestSuiteRegistry17RegisterTestSuiteEPKcNS0_12CodeLocationE
FNDA:0,_ZN7testing8internal34TypeParameterizedTestSuiteRegistry17RegisterTestSuiteEPKcNS0_12CodeLocationE
FN:530,_ZN7testing8internal34TypeParameterizedTestSuiteRegistry21RegisterInstantiationEPKc
FNDA:0,_ZN7testing8internal34TypeParameterizedTestSuiteRegistry21RegisterInstantiationEPKc
FN:541,_ZN7testing8internal34TypeParameterizedTestSuiteRegistry22CheckForInstantiationsEv
FNDA:1,_ZN7testing8internal34TypeParameterizedTestSuiteRegistry22CheckForInstantiationsEv
FN:570,_ZZN7testing8internal34TypeParameterizedTestSuiteRegistry22CheckForInstantiationsEvENKUlvE_clEv
FNDA:0,_ZZN7testing8internal34TypeParameterizedTestSuiteRegistry22CheckForInstantiationsEvENKUlvE_clEv
FN:580,_ZN7testing8internal8GetArgvsB5cxx11Ev
FNDA:2,_ZN7testing8internal8GetArgvsB5cxx11Ev
FN:593,_ZN7testing8internal24GetCurrentExecutableNameEv
FNDA:0,_ZN7testing8internal24GetCurrentExecutableNameEv
FN:608,_ZN7testing8internal15UnitTestOptions15GetOutputFormatB5cxx11Ev
FNDA:2,_ZN7testing8internal15UnitTestOptions15GetOutputFormatB5cxx11Ev
FN:619,_ZN7testing8internal15UnitTestOptions27GetAbsolutePathToOutputFileB5cxx11Ev
FNDA:1,_ZN7testing8internal15UnitTestOptions27GetAbsolutePathToOutputFileB5cxx11Ev
FN:655,_ZN7testing8internalL20PatternMatchesStringERKNSt7__cxx1112basic_stringIcSt11char_traitsIcESaIcEEEPKcSA_
FNDA:62,_ZN7testing8internalL20PatternMatchesStringERKNSt7__cxx1112basic_stringIcSt11char_traitsIcESaIcEEEPKcSA_
FN:702,_ZN7testing8internal15UnitTestOptions13MatchesFilterERKNSt7__cxx1112basic_stringIcSt11char_traitsIcESaIcEEEPKc
FNDA:40,_ZN7testing8internal15UnitTestOptions13MatchesFilterERKNSt7__cxx1112basic_stringIcSt11char_traitsIcESaIcEEEPKc
FN:729,_ZN7testing8internal15UnitTestOptions17FilterMatchesTestERKNSt7__cxx1112basic_stringIcSt11char_traitsIcESaIcEEES9_
FNDA:9,_ZN7testing8internal15UnitTestOptions17FilterMatchesTestERKNSt7__cxx1112basic_stringIcSt11char_traitsIcESaIcEEES9_
FN:790,_ZN7testing32ScopedFakeTestPartResultReporterC2EPNS_19TestPartResultArrayE
FNDA:0,_ZN7testing32ScopedFakeTestPartResultReporterC2EPNS_19TestPartResultArrayE
FN:800,_ZN7testing32ScopedFakeTestPartResultReporterC2ENS0_13InterceptModeEPNS_19TestPartResultArrayE
FNDA:0,_ZN7testing32ScopedFakeTestPartResultReporterC2ENS0_13InterceptModeEPNS_19TestPartResultArrayE
FN:807,_ZN7testing32ScopedFakeTestPartResultReporter4InitEv
FNDA:0,_ZN7testing32ScopedFakeTestPartResultReporter4InitEv
FN:820,_ZN7testing32ScopedFakeTestPartResultReporterD0Ev
FNDA:0,_ZN7testing32ScopedFakeTestPartResultReporterD0Ev
FN:820,_ZN7testing32ScopedFakeTestPartResultReporterD2Ev
FNDA:0,_ZN7testing32ScopedFakeTestPartResultReporterD2Ev
FN:831,_ZN7testing32ScopedFakeTestPartResultReporter20ReportTestPartResultERKNS_14TestPartResultE
FNDA:0,_ZN7testing32ScopedFakeTestPartResultReporter20ReportTestPartResultERKNS_14TestPartResultE
FN:847,_ZN7testing8internal13GetTestTypeIdEv
FNDA:1,_ZN7testing8internal13GetTestTypeIdEv
FN:858,_ZN7testing8internalL13HasOneFailureEPKcS2_S2_RKNS_19TestPartResultArrayENS_14TestPartResult4TypeERKNSt7__cxx1112basic_stringIcSt11char_traitsIcESaIcEEE
FNDA:0,_ZN7testing8internalL13HasOneFailureEPKcS2_S2_RKNS_19TestPartResultArrayENS_14TestPartResult4TypeERKNSt7__cxx1112basic_stringIcSt11char_traitsIcESaIcEEE
FN:897,_ZN7testing8internal20SingleFailureCheckerC2EPKNS_19TestPartResultArrayENS_14TestPartResult4TypeERKNSt7__cxx1112basic_stringIcSt11char_traitsIcESaIcEEE
FNDA:0,_ZN7testing8internal20SingleFailureCheckerC2EPKNS_19TestPartResultArrayENS_14TestPartResult4TypeERKNSt7__cxx1112basic_stringIcSt11char_traitsIcESaIcEEE
FN:906,_ZN7testing8internal20SingleFailureCheckerD2Ev
FNDA:0,_ZN7testing8internal20SingleFailureCheckerD2Ev
FN:910,_ZN7testing8internal35DefaultGlobalTestPartResultReporterC2EPNS0_12UnitTestImplE
FNDA:1,_ZN7testing8internal35DefaultGlobalTestPartResultReporterC2EPNS0_12UnitTestImplE
FN:913,_ZN7testing8internal35DefaultGlobalTestPartResultReporter20ReportTestPartResultERKNS_14TestPartResultE
FNDA:0,_ZN7testing8internal35DefaultGlobalTestPartResultReporter20ReportTestPartResultERKNS_14TestPartResultE
FN:919,_ZN7testing8internal38DefaultPerThreadTestPartResultReporterC2EPNS0_12UnitTestImplE
FNDA:1,_ZN7testing8internal38DefaultPerThreadTestPartResultReporterC2EPNS0_12UnitTestImplE
FN:922,_ZN7testing8internal38DefaultPerThreadTestPartResultReporter20ReportTestPartResultERKNS_14TestPartResultE
FNDA:0,_ZN7testing8internal38DefaultPerThreadTestPartResultReporter20ReportTestPartResultERKNS_14TestPartResultE
FN:929,_ZN7testing8internal12UnitTestImpl31GetGlobalTestPartResultReporterEv
FNDA:0,_ZN7testing8internal12UnitTestImpl31GetGlobalTestPartResultReporterEv
FN:935,_ZN7testing8internal12UnitTestImpl31SetGlobalTestPartResultReporterEPNS_31TestPartResultReporterInterfaceE
FNDA:0,_ZN7testing8internal12UnitTestImpl31SetGlobalTestPartResultReporterEPNS_31TestPartResultReporterInterfaceE
FN:943,_ZN7testing8internal12UnitTestImpl41GetTestPartResultReporterForCurrentThreadEv
FNDA:0,_ZN7testing8internal12UnitTestImpl41GetTestPartResultReporterForCurrentThreadEv
FN:948,_ZN7testing8internal12UnitTestImpl41SetTestPartResultReporterForCurrentThreadEPNS_31TestPartResultReporterInterfaceE
FNDA:0,_ZN7testing8internal12UnitTestImpl41SetTestPartResultReporterForCurrentThreadEPNS_31TestPartResultReporterInterfaceE
FN:954,_ZNK7testing8internal12UnitTestImpl27successful_test_suite_countEv
FNDA:0,_ZNK7testing8internal12UnitTestImpl27successful_test_suite_countEv
FN:959,_ZNK7testing8internal12UnitTestImpl23failed_test_suite_countEv
FNDA:2,_ZNK7testing8internal12UnitTestImpl23failed_test_suite_countEv
FN:964,_ZNK7testing8internal12UnitTestImpl22total_test_suite_countEv
FNDA:10,_ZNK7testing8internal12UnitTestImpl22total_test_suite_countEv
FN:970,_ZNK7testing8internal12UnitTestImpl23test_suite_to_run_countEv
FNDA:2,_ZNK7testing8internal12UnitTestImpl23test_suite_to_run_countEv
FN:975,_ZNK7testing8internal12UnitTestImpl21successful_test_countEv
FNDA:1,_ZNK7testing8internal12UnitTestImpl21successful_test_countEv
FN:980,_ZNK7testing8internal12UnitTestImpl18skipped_test_countEv
FNDA:1,_ZNK7testing8internal12UnitTestImpl18skipped_test_countEv
FN:985,_ZNK7testing8internal12UnitTestImpl17failed_test_countEv
FNDA:1,_ZNK7testing8internal12UnitTestImpl17failed_test_countEv
FN:990,_ZNK7testing8internal12UnitTestImpl30reportable_disabled_test_countEv
FNDA:2,_ZNK7testing8internal12UnitTestImpl30reportable_disabled_test_countEv
FN:996,_ZNK7testing8internal12UnitTestImpl19disabled_test_countEv
FNDA:0,_ZNK7testing8internal12UnitTestImpl19disabled_test_countEv
FN:1001,_ZNK7testing8internal12UnitTestImpl21reportable_test_countEv
FNDA:1,_ZNK7testing8internal12UnitTestImpl21reportable_test_countEv
FN:1006,_ZNK7testing8internal12UnitTestImpl16total_test_countEv
FNDA:0,_ZNK7testing8internal12UnitTestImpl16total_test_countEv
FN:1011,_ZNK7testing8internal12UnitTestImpl17test_to_run_countEv
FNDA:2,_ZNK7testing8internal12UnitTestImpl17test_to_run_countEv
FN:1025,_ZN7testing8internal12UnitTestImpl28CurrentOsStackTraceExceptTopB5cxx11Ei
FNDA:0,_ZN7testing8internal12UnitTestImpl28CurrentOsStackTraceExceptTopB5cxx11Ei
FN:1037,_ZN7testing8internal5TimerC1Ev
FNDA:14,_ZN7testing8internal5TimerC1Ev
FN:1040,_ZN7testing8internal5Timer7ElapsedEv
FNDA:14,_ZN7testing8internal5Timer7ElapsedEv
FN:1053,_ZN7testing8internal15GetTimeInMillisEv
FNDA:14,_ZN7testing8internal15GetTimeInMillisEv
FN:1104,_ZN7testing8internal6String13CStringEqualsEPKcS3_
FNDA:2,_ZN7testing8internal6String13CStringEqualsEPKcS3_
FN:1116,_ZN7testing8internalL24StreamWideCharsToMessageEPKwyPNS_7MessageE
FNDA:0,_ZN7testing8internalL24StreamWideCharsToMessageEPKwyPNS_7MessageE
FN:1132,_ZN7testing8internal11SplitStringERKNSt7__cxx1112basic_stringIcSt11char_traitsIcESaIcEEEcPSt6vectorIS6_SaIS6_EE
FNDA:0,_ZN7testing8internal11SplitStringERKNSt7__cxx1112basic_stringIcSt11char_traitsIcESaIcEEEcPSt6vectorIS6_SaIS6_EE
FN:1156,_ZN7testing7MessageC2Ev
FNDA:201,_ZN7testing7MessageC2Ev
FN:1164,_ZN7testing7MessagelsEPKw
FNDA:0,_ZN7testing7MessagelsEPKw
FN:1167,_ZN7testing7MessagelsEPw
FNDA:0,_ZN7testing7MessagelsEPw
FN:1174,_ZN7testing7MessagelsERKNSt7__cxx1112basic_stringIwSt11char_traitsIwESaIwEEE
FNDA:0,_ZN7testing7MessagelsERKNSt7__cxx1112basic_stringIwSt11char_traitsIwESaIwEEE
FN:1182,_ZNK7testing7Message9GetStringB5cxx11Ev
FNDA:201,_ZNK7testing7Message9GetStringB5cxx11Ev
FN:1188,_ZN7testing15AssertionResultC2ERKS0_
FNDA:0,_ZN7testing15AssertionResultC2ERKS0_
FN:1195,_ZN7testing15AssertionResult4swapERS0_
FNDA:0,_ZN7testing15AssertionResult4swapERS0_
FN:1202,_ZNK7testing15AssertionResultntEv
FNDA:0,_ZNK7testing15AssertionResultntEv
FN:1209,_ZN7testing16AssertionSuccessEv
FNDA:209,_ZN7testing16AssertionSuccessEv
FN:1214,_ZN7testing16AssertionFailureEv
FNDA:0,_ZN7testing16AssertionFailureEv
FN:1220,_ZN7testing16AssertionFailureERKNS_7MessageE
FNDA:0,_ZN7testing16AssertionFailureERKNS_7MessageE
FN:1227,_ZN7testing8internal13edit_distance21CalculateOptimalEditsERKSt6vectorIySaIyEES6_
FNDA:0,_ZN7testing8internal13edit_distance21CalculateOptimalEditsERKSt6vectorIySaIyEES6_
FN:1289,_ZN7testing8internal13edit_distance12_GLOBAL__N_115InternalStrings5GetIdERKNSt7__cxx1112basic_stringIcSt11char_traitsIcESaIcEEE
FNDA:0,_ZN7testing8internal13edit_distance12_GLOBAL__N_115InternalStrings5GetIdERKNSt7__cxx1112basic_stringIcSt11char_traitsIcESaIcEEE
FN:1303,_ZN7testing8internal13edit_distance21CalculateOptimalEditsERKSt6vectorINSt7__cxx1112basic_stringIcSt11char_traitsIcESaIcEEESaIS8_EESC_
FNDA:0,_ZN7testing8internal13edit_distance21CalculateOptimalEditsERKSt6vectorINSt7__cxx1112basic_stringIcSt11char_traitsIcESaIcEEESaIS8_EESC_
FN:1327,_ZN7testing8internal13edit_distance12_GLOBAL__N_14HunkC2Eyy
FNDA:0,_ZN7testing8internal13edit_distance12_GLOBAL__N_14HunkC2Eyy
FN:1334,_ZN7testing8internal13edit_distance12_GLOBAL__N_14Hunk8PushLineEcPKc
FNDA:0,_ZN7testing8internal13edit_distance12_GLOBAL__N_14Hunk8PushLineEcPKc
FN:1352,_ZN7testing8internal13edit_distance12_GLOBAL__N_14Hunk7PrintToEPSo
FNDA:0,_ZN7testing8internal13edit_distance12_GLOBAL__N_14Hunk7PrintToEPSo
FN:1362,_ZNK7testing8internal13edit_distance12_GLOBAL__N_14Hunk9has_editsEv
FNDA:0,_ZNK7testing8internal13edit_distance12_GLOBAL__N_14Hunk9has_editsEv
FN:1365,_ZN7testing8internal13edit_distance12_GLOBAL__N_14Hunk10FlushEditsEv
FNDA:0,_ZN7testing8internal13edit_distance12_GLOBAL__N_14Hunk10FlushEditsEv
FN:1374,_ZNK7testing8internal13edit_distance12_GLOBAL__N_14Hunk11PrintHeaderEPSo
FNDA:0,_ZNK7testing8internal13edit_distance12_GLOBAL__N_14Hunk11PrintHeaderEPSo
FN:1402,_ZN7testing8internal13edit_distance17CreateUnifiedDiffERKSt6vectorINSt7__cxx1112basic_stringIcSt11char_traitsIcESaIcEEESaIS8_EESC_y
FNDA:0,_ZN7testing8internal13edit_distance17CreateUnifiedDiffERKSt6vectorINSt7__cxx1112basic_stringIcSt11char_traitsIcESaIcEEESaIS8_EESC_y
FN:1472,_ZN7testing8internal12_GLOBAL__N_118SplitEscapedStringERKNSt7__cxx1112basic_stringIcSt11char_traitsIcESaIcEEE
FNDA:0,_ZN7testing8internal12_GLOBAL__N_118SplitEscapedStringERKNSt7__cxx1112basic_stringIcSt11char_traitsIcESaIcEEE
FN:1512,_ZN7testing8internal9EqFailureEPKcS2_RKNSt7__cxx1112basic_stringIcSt11char_traitsIcESaIcEEESA_b
FNDA:0,_ZN7testing8internal9EqFailureEPKcS2_RKNSt7__cxx1112basic_stringIcSt11char_traitsIcESaIcEEESA_b
FN:1547,_ZN7testing8internal30GetBoolAssertionFailureMessageB5cxx11ERKNS_15AssertionResultEPKcS5_S5_
FNDA:0,_ZN7testing8internal30GetBoolAssertionFailureMessageB5cxx11ERKNS_15AssertionResultEPKcS5_S5_
FN:1563,_ZN7testing8internal20DoubleNearPredFormatEPKcS2_S2_ddd
FNDA:0,_ZN7testing8internal20DoubleNearPredFormatEPKcS2_S2_ddd
FN:1608,_ZN7testing8internal15FloatingPointLEIdEENS_15AssertionResultEPKcS4_T_S5_
FNDA:0,_ZN7testing8internal15FloatingPointLEIdEENS_15AssertionResultEPKcS4_T_S5_
FN:1608,_ZN7testing8internal15FloatingPointLEIfEENS_15AssertionResultEPKcS4_T_S5_
FNDA:0,_ZN7testing8internal15FloatingPointLEIfEENS_15AssertionResultEPKcS4_T_S5_
FN:1645,_ZN7testing7FloatLEEPKcS1_ff
FNDA:0,_ZN7testing7FloatLEEPKcS1_ff
FN:1652,_ZN7testing8DoubleLEEPKcS1_dd
FNDA:0,_ZN7testing8DoubleLEEPKcS1_dd
FN:1660,_ZN7testing8internal14CmpHelperSTREQEPKcS2_S2_S2_
FNDA:0,_ZN7testing8internal14CmpHelperSTREQEPKcS2_S2_S2_
FN:1676,_ZN7testing8internal18CmpHelperSTRCASEEQEPKcS2_S2_S2_
FNDA:0,_ZN7testing8internal18CmpHelperSTRCASEEQEPKcS2_S2_S2_
FN:1692,_ZN7testing8internal14CmpHelperSTRNEEPKcS2_S2_S2_
FNDA:0,_ZN7testing8internal14CmpHelperSTRNEEPKcS2_S2_S2_
FN:1706,_ZN7testing8internal18CmpHelperSTRCASENEEPKcS2_S2_S2_
FNDA:0,_ZN7testing8internal18CmpHelperSTRCASENEEPKcS2_S2_S2_
FN:1730,_ZN7testing12_GLOBAL__N_115IsSubstringPredEPKcS2_
FNDA:0,_ZN7testing12_GLOBAL__N_115IsSubstringPredEPKcS2_
FN:1736,_ZN7testing12_GLOBAL__N_115IsSubstringPredEPKwS2_
FNDA:0,_ZN7testing12_GLOBAL__N_115IsSubstringPredEPKwS2_
FN:1744,_ZN7testing12_GLOBAL__N_115IsSubstringPredINSt7__cxx1112basic_stringIwSt11char_traitsIwESaIwEEEEEbRKT_SA_
FNDA:0,_ZN7testing12_GLOBAL__N_115IsSubstringPredINSt7__cxx1112basic_stringIwSt11char_traitsIwESaIwEEEEEbRKT_SA_
FN:1744,_ZN7testing12_GLOBAL__N_115IsSubstringPredINSt7__cxx1112basic_stringIcSt11char_traitsIcESaIcEEEEEbRKT_SA_
FNDA:0,_ZN7testing12_GLOBAL__N_115IsSubstringPredINSt7__cxx1112basic_stringIcSt11char_traitsIcESaIcEEEEEbRKT_SA_
FN:1754,_ZN7testing12_GLOBAL__N_115IsSubstringImplIPKcEENS_15AssertionResultEbS3_S3_RKT_S7_
FNDA:0,_ZN7testing12_GLOBAL__N_115IsSubstringImplIPKcEENS_15AssertionResultEbS3_S3_RKT_S7_
FN:1754,_ZN7testing12_GLOBAL__N_115IsSubstringImplIPKwEENS_15AssertionResultEbPKcS6_RKT_S9_
FNDA:0,_ZN7testing12_GLOBAL__N_115IsSubstringImplIPKwEENS_15AssertionResultEbPKcS6_RKT_S9_
FN:1754,_ZN7testing12_GLOBAL__N_115IsSubstringImplINSt7__cxx1112basic_stringIcSt11char_traitsIcESaIcEEEEENS_15AssertionResultEbPKcSA_RKT_SD_
FNDA:0,_ZN7testing12_GLOBAL__N_115IsSubstringImplINSt7__cxx1112basic_stringIcSt11char_traitsIcESaIcEEEEENS_15AssertionResultEbPKcSA_RKT_SD_
FN:1754,_ZN7testing12_GLOBAL__N_115IsSubstringImplINSt7__cxx1112basic_stringIwSt11char_traitsIwESaIwEEEEENS_15AssertionResultEbPKcSA_RKT_SD_
FNDA:0,_ZN7testing12_GLOBAL__N_115IsSubstringImplINSt7__cxx1112basic_stringIwSt11char_traitsIwESaIwEEEEENS_15AssertionResultEbPKcSA_RKT_SD_
FN:1777,_ZN7testing11IsSubstringEPKcS1_S1_S1_
FNDA:0,_ZN7testing11IsSubstringEPKcS1_S1_S1_
FN:1783,_ZN7testing11IsSubstringEPKcS1_PKwS3_
FNDA:0,_ZN7testing11IsSubstringEPKcS1_PKwS3_
FN:1789,_ZN7testing14IsNotSubstringEPKcS1_S1_S1_
FNDA:0,_ZN7testing14IsNotSubstringEPKcS1_S1_S1_
FN:1795,_ZN7testing14IsNotSubstringEPKcS1_PKwS3_
FNDA:0,_ZN7testing14IsNotSubstringEPKcS1_PKwS3_
FN:1801,_ZN7testing11IsSubstringEPKcS1_RKNSt7__cxx1112basic_stringIcSt11char_traitsIcESaIcEEES9_
FNDA:0,_ZN7testing11IsSubstringEPKcS1_RKNSt7__cxx1112basic_stringIcSt11char_traitsIcESaIcEEES9_
FN:1807,_ZN7testing14IsNotSubstringEPKcS1_RKNSt7__cxx1112basic_stringIcSt11char_traitsIcESaIcEEES9_
FNDA:0,_ZN7testing14IsNotSubstringEPKcS1_RKNSt7__cxx1112basic_stringIcSt11char_traitsIcESaIcEEES9_
FN:1814,_ZN7testing11IsSubstringEPKcS1_RKNSt7__cxx1112basic_stringIwSt11char_traitsIwESaIwEEES9_
FNDA:0,_ZN7testing11IsSubstringEPKcS1_RKNSt7__cxx1112basic_stringIwSt11char_traitsIwESaIwEEES9_
FN:1820,_ZN7testing14IsNotSubstringEPKcS1_RKNSt7__cxx1112basic_stringIwSt11char_traitsIwESaIwEEES9_
FNDA:0,_ZN7testing14IsNotSubstringEPKcS1_RKNSt7__cxx1112basic_stringIwSt11char_traitsIwESaIwEEES9_
FN:1834,_ZN7testing8internal12_GLOBAL__N_120HRESULTFailureHelperEPKcS3_l
FNDA:0,_ZN7testing8internal12_GLOBAL__N_120HRESULTFailureHelperEPKcS3_l
FN:1875,_ZN7testing8internal16IsHRESULTSuccessEPKcl
FNDA:0,_ZN7testing8internal16IsHRESULTSuccessEPKcl
FN:1882,_ZN7testing8internal16IsHRESULTFailureEPKcl
FNDA:0,_ZN7testing8internal16IsHRESULTFailureEPKcl
FN:1918,_ZN7testing8internal11ChopLowBitsEPji
FNDA:0,_ZN7testing8internal11ChopLowBitsEPji
FN:1930,_ZN7testing8internal15CodePointToUtf8B5cxx11Ej
FNDA:0,_ZN7testing8internal15CodePointToUtf8B5cxx11Ej
FN:1965,_ZN7testing8internal20IsUtf16SurrogatePairEww
FNDA:0,_ZN7testing8internal20IsUtf16SurrogatePairEww
FN:1971,_ZN7testing8internal37CreateCodePointFromUtf16SurrogatePairEww
FNDA:0,_ZN7testing8internal37CreateCodePointFromUtf16SurrogatePairEww
FN:1997,_ZN7testing8internal16WideStringToUtf8B5cxx11EPKwi
FNDA:0,_ZN7testing8internal16WideStringToUtf8B5cxx11EPKwi
FN:2022,_ZN7testing8internal6String15ShowWideCStringB5cxx11EPKw
FNDA:0,_ZN7testing8internal6String15ShowWideCStringB5cxx11EPKw
FN:2034,_ZN7testing8internal6String17WideCStringEqualsEPKwS3_
FNDA:0,_ZN7testing8internal6String17WideCStringEqualsEPKwS3_
FN:2043,_ZN7testing8internal14CmpHelperSTREQEPKcS2_PKwS4_
FNDA:0,_ZN7testing8internal14CmpHelperSTREQEPKcS2_PKwS4_
FN:2059,_ZN7testing8internal14CmpHelperSTRNEEPKcS2_PKwS4_
FNDA:0,_ZN7testing8internal14CmpHelperSTRNEEPKcS2_PKwS4_
FN:2079,_ZN7testing8internal6String28CaseInsensitiveCStringEqualsEPKcS3_
FNDA:1,_ZN7testing8internal6String28CaseInsensitiveCStringEqualsEPKcS3_
FN:2097,_ZN7testing8internal6String32CaseInsensitiveWideCStringEqualsEPKwS3_
FNDA:0,_ZN7testing8internal6String32CaseInsensitiveWideCStringEqualsEPKwS3_
FN:2121,_ZN7testing8internal6String23EndsWithCaseInsensitiveERKNSt7__cxx1112basic_stringIcSt11char_traitsIcESaIcEEES9_
FNDA:0,_ZN7testing8internal6String23EndsWithCaseInsensitiveERKNSt7__cxx1112basic_stringIcSt11char_traitsIcESaIcEEES9_
FN:2131,_ZN7testing8internal6String15FormatIntWidth2B5cxx11Ei
FNDA:70,_ZN7testing8internal6String15FormatIntWidth2B5cxx11Ei
FN:2136,_ZN7testing8internal6String15FormatIntWidthNB5cxx11Eii
FNDA:84,_ZN7testing8internal6String15FormatIntWidthNB5cxx11Eii
FN:2143,_ZN7testing8internal6String15FormatHexUInt32B5cxx11Ej
FNDA:0,_ZN7testing8internal6String15FormatHexUInt32B5cxx11Ej
FN:2150,_ZN7testing8internal6String12FormatHexIntB5cxx11Ei
FNDA:0,_ZN7testing8internal6String12FormatHexIntB5cxx11Ei
FN:2155,_ZN7testing8internal6String10FormatByteB5cxx11Eh
FNDA:0,_ZN7testing8internal6String10FormatByteB5cxx11Eh
FN:2164,_ZN7testing8internal20StringStreamToStringEPNSt7__cxx1118basic_stringstreamIcSt11char_traitsIcESaIcEEE
FNDA:202,_ZN7testing8internal20StringStreamToStringEPNSt7__cxx1118basic_stringstreamIcSt11char_traitsIcESaIcEEE
FN:2183,_ZN7testing8internal17AppendUserMessageERKNSt7__cxx1112basic_stringIcSt11char_traitsIcESaIcEEERKNS_7MessageE
FNDA:0,_ZN7testing8internal17AppendUserMessageERKNSt7__cxx1112basic_stringIcSt11char_traitsIcESaIcEEERKNS_7MessageE
FN:2201,_ZN7testing10TestResultC2Ev
FNDA:14,_ZN7testing10TestResultC2Ev
FN:2205,_ZN7testing10TestResultD2Ev
FNDA:0,_ZN7testing10TestResultD2Ev
FN:2211,_ZNK7testing10TestResult17GetTestPartResultEi
FNDA:0,_ZNK7testing10TestResult17GetTestPartResultEi
FN:2220,_ZNK7testing10TestResult15GetTestPropertyEi
FNDA:0,_ZNK7testing10TestResult15GetTestPropertyEi
FN:2227,_ZN7testing10TestResult20ClearTestPartResultsEv
FNDA:0,_ZN7testing10TestResult20ClearTestPartResultsEv
FN:2232,_ZN7testing10TestResult17AddTestPartResultERKNS_14TestPartResultE
FNDA:0,_ZN7testing10TestResult17AddTestPartResultERKNS_14TestPartResultE
FN:2239,_ZN7testing10TestResult14RecordPropertyERKNSt7__cxx1112basic_stringIcSt11char_traitsIcESaIcEEERKNS_12TestPropertyE
FNDA:0,_ZN7testing10TestResult14RecordPropertyERKNSt7__cxx1112basic_stringIcSt11char_traitsIcESaIcEEERKNS_12TestPropertyE
FN:2286,_ZN7testing13ArrayAsVectorILy8EEESt6vectorINSt7__cxx1112basic_stringIcSt11char_traitsIcESaIcEEESaIS7_EERAT__KPKc
FNDA:39,_ZN7testing13ArrayAsVectorILy8EEESt6vectorINSt7__cxx1112basic_stringIcSt11char_traitsIcESaIcEEESaIS7_EERAT__KPKc
FN:2286,_ZN7testing13ArrayAsVectorILy10EEESt6vectorINSt7__cxx1112basic_stringIcSt11char_traitsIcESaIcEEESaIS7_EERAT__KPKc
FNDA:54,_ZN7testing13ArrayAsVectorILy10EEESt6vectorINSt7__cxx1112basic_stringIcSt11char_traitsIcESaIcEEESaIS7_EERAT__KPKc
FN:2290,_ZN7testingL31GetReservedAttributesForElementERKNSt7__cxx1112basic_stringIcSt11char_traitsIcESaIcEEE
FNDA:0,_ZN7testingL31GetReservedAttributesForElementERKNSt7__cxx1112basic_stringIcSt11char_traitsIcESaIcEEE
FN:2306,_ZN7testingL37GetReservedOutputAttributesForElementERKNSt7__cxx1112basic_stringIcSt11char_traitsIcESaIcEEE
FNDA:93,_ZN7testingL37GetReservedOutputAttributesForElementERKNSt7__cxx1112basic_stringIcSt11char_traitsIcESaIcEEE
FN:2321,_ZN7testingL14FormatWordListERKSt6vectorINSt7__cxx1112basic_stringIcSt11char_traitsIcESaIcEEESaIS6_EE
FNDA:0,_ZN7testingL14FormatWordListERKSt6vectorINSt7__cxx1112basic_stringIcSt11char_traitsIcESaIcEEESaIS6_EE
FN:2335,_ZN7testingL24ValidateTestPropertyNameERKNSt7__cxx1112basic_stringIcSt11char_traitsIcESaIcEEERKSt6vectorIS5_SaIS5_EE
FNDA:0,_ZN7testingL24ValidateTestPropertyNameERKNSt7__cxx1112basic_stringIcSt11char_traitsIcESaIcEEERKSt6vectorIS5_SaIS5_EE
FN:2350,_ZN7testing10TestResult20ValidateTestPropertyERKNSt7__cxx1112basic_stringIcSt11char_traitsIcESaIcEEERKNS_12TestPropertyE
FNDA:0,_ZN7testing10TestResult20ValidateTestPropertyERKNSt7__cxx1112basic_stringIcSt11char_traitsIcESaIcEEERKNS_12TestPropertyE
FN:2357,_ZN7testing10TestResult5ClearEv
FNDA:13,_ZN7testing10TestResult5ClearEv
FN:2365,_ZN7testingL15TestPartSkippedERKNS_14TestPartResultE
FNDA:0,_ZN7testingL15TestPartSkippedERKNS_14TestPartResultE
FN:2370,_ZNK7testing10TestResult7SkippedEv
FNDA:64,_ZNK7testing10TestResult7SkippedEv
FN:2375,_ZNK7testing10TestResult6FailedEv
FNDA:138,_ZNK7testing10TestResult6FailedEv
FN:2384,_ZN7testingL21TestPartFatallyFailedERKNS_14TestPartResultE
FNDA:0,_ZN7testingL21TestPartFatallyFailedERKNS_14TestPartResultE
FN:2389,_ZNK7testing10TestResult15HasFatalFailureEv
FNDA:19,_ZNK7testing10TestResult15HasFatalFailureEv
FN:2394,_ZN7testingL24TestPartNonfatallyFailedERKNS_14TestPartResultE
FNDA:0,_ZN7testingL24TestPartNonfatallyFailedERKNS_14TestPartResultE
FN:2399,_ZNK7testing10TestResult18HasNonfatalFailureEv
FNDA:0,_ZNK7testing10TestResult18HasNonfatalFailureEv
FN:2405,_ZNK7testing10TestResult16total_part_countEv
FNDA:147,_ZNK7testing10TestResult16total_part_countEv
FN:2410,_ZNK7testing10TestResult19test_property_countEv
FNDA:14,_ZNK7testing10TestResult19test_property_countEv
FN:2419,_ZN7testing4TestC2Ev
FNDA:9,_ZN7testing4TestC2Ev
FN:2426,_ZN7testing4TestD2Ev
FNDA:9,_ZN7testing4TestD2Ev
FN:2426,_ZN7testing4TestD0Ev
FNDA:0,_ZN7testing4TestD0Ev
FN:2432,_ZN7testing4Test5SetUpEv
FNDA:0,_ZN7testing4Test5SetUpEv
FN:2438,_ZN7testing4Test8TearDownEv
FNDA:0,_ZN7testing4Test8TearDownEv
FN:2442,_ZN7testing4Test14RecordPropertyERKNSt7__cxx1112basic_stringIcSt11char_traitsIcESaIcEEES8_
FNDA:0,_ZN7testing4Test14RecordPropertyERKNSt7__cxx1112basic_stringIcSt11char_traitsIcESaIcEEES8_
FN:2447,_ZN7testing4Test14RecordPropertyERKNSt7__cxx1112basic_stringIcSt11char_traitsIcESaIcEEEi
FNDA:0,_ZN7testing4Test14RecordPropertyERKNSt7__cxx1112basic_stringIcSt11char_traitsIcESaIcEEEi
FN:2455,_ZN7testing8internal30ReportFailureInUnknownLocationENS_14TestPartResult4TypeERKNSt7__cxx1112basic_stringIcSt11char_traitsIcESaIcEEE
FNDA:0,_ZN7testing8internal30ReportFailureInUnknownLocationENS_14TestPartResult4TypeERKNSt7__cxx1112basic_stringIcSt11char_traitsIcESaIcEEE
FN:2474,_ZN7testing4Test19HasSameFixtureClassEv
FNDA:9,_ZN7testing4Test19HasSameFixtureClassEv
FN:2557,_ZN7testing8internalL25FormatCxxExceptionMessageEPKcS2_
FNDA:0,_ZN7testing8internalL25FormatCxxExceptionMessageEPKcS2_
FN:2573,_ZN7testing8internal26GoogleTestFailureExceptionC2ERKNS_14TestPartResultE
FNDA:0,_ZN7testing8internal26GoogleTestFailureExceptionC2ERKNS_14TestPartResultE
FN:2588,_ZN7testing8internal38HandleSehExceptionsInMethodIfSupportedINS_9TestSuiteEvEET0_PT_MS4_FS3_vEPKc
FNDA:8,_ZN7testing8internal38HandleSehExceptionsInMethodIfSupportedINS_9TestSuiteEvEET0_PT_MS4_FS3_vEPKc
FN:2588,_ZN7testing8internal38HandleSehExceptionsInMethodIfSupportedINS0_12UnitTestImplEbEET0_PT_MS4_FS3_vEPKc
FNDA:1,_ZN7testing8internal38HandleSehExceptionsInMethodIfSupportedINS0_12UnitTestImplEbEET0_PT_MS4_FS3_vEPKc
FN:2588,_ZN7testing8internal38HandleSehExceptionsInMethodIfSupportedINS_4TestEvEET0_PT_MS4_FS3_vEPKc
FNDA:36,_ZN7testing8internal38HandleSehExceptionsInMethodIfSupportedINS_4TestEvEET0_PT_MS4_FS3_vEPKc
FN:2588,_ZN7testing8internal38HandleSehExceptionsInMethodIfSupportedINS0_15TestFactoryBaseEPNS_4TestEEET0_PT_MS6_FS5_vEPKc
FNDA:9,_ZN7testing8internal38HandleSehExceptionsInMethodIfSupportedINS0_15TestFactoryBaseEPNS_4TestEEET0_PT_MS6_FS5_vEPKc
FN:2615,_ZN7testing8internal35HandleExceptionsInMethodIfSupportedINS_4TestEvEET0_PT_MS4_FS3_vEPKc
FNDA:36,_ZN7testing8internal35HandleExceptionsInMethodIfSupportedINS_4TestEvEET0_PT_MS4_FS3_vEPKc
FN:2615,_ZN7testing8internal35HandleExceptionsInMethodIfSupportedINS0_15TestFactoryBaseEPNS_4TestEEET0_PT_MS6_FS5_vEPKc
FNDA:9,_ZN7testing8internal35HandleExceptionsInMethodIfSupportedINS0_15TestFactoryBaseEPNS_4TestEEET0_PT_MS6_FS5_vEPKc
FN:2615,_ZN7testing8internal35HandleExceptionsInMethodIfSupportedINS_9TestSuiteEvEET0_PT_MS4_FS3_vEPKc
FNDA:8,_ZN7testing8internal35HandleExceptionsInMethodIfSupportedINS_9TestSuiteEvEET0_PT_MS4_FS3_vEPKc
FN:2615,_ZN7testing8internal35HandleExceptionsInMethodIfSupportedINS0_12UnitTestImplEbEET0_PT_MS4_FS3_vEPKc
FNDA:1,_ZN7testing8internal35HandleExceptionsInMethodIfSupportedINS0_12UnitTestImplEbEET0_PT_MS4_FS3_vEPKc
FN:2672,_ZN7testing4Test3RunEv
FNDA:9,_ZN7testing4Test3RunEv
FN:2695,_ZN7testing4Test15HasFatalFailureEv
FNDA:19,_ZN7testing4Test15HasFatalFailureEv
FN:2700,_ZN7testing4Test18HasNonfatalFailureEv
FNDA:0,_ZN7testing4Test18HasNonfatalFailureEv
FN:2706,_ZN7testing4Test9IsSkippedEv
FNDA:19,_ZN7testing4Test9IsSkippedEv
FN:2714,_ZN7testing8TestInfoC2ERKNSt7__cxx1112basic_stringIcSt11char_traitsIcESaIcEEES8_PKcSA_NS_8internal12CodeLocationEPKvPNSB_15TestFactoryBaseE
FNDA:9,_ZN7testing8TestInfoC2ERKNSt7__cxx1112basic_stringIcSt11char_traitsIcESaIcEEES8_PKcSA_NS_8internal12CodeLocationEPKvPNSB_15TestFactoryBaseE
FN:2734,_ZN7testing8TestInfoD2Ev
FNDA:0,_ZN7testing8TestInfoD2Ev
FN:2756,_ZN7testing8internal23MakeAndRegisterTestInfoEPKcS2_S2_S2_NS0_12CodeLocationEPKvPFvvES7_PNS0_15TestFactoryBaseE
FNDA:9,_ZN7testing8internal23MakeAndRegisterTestInfoEPKcS2_S2_S2_NS0_12CodeLocationEPKvPFvvES7_PNS0_15TestFactoryBaseE
FN:2768,_ZN7testing8internal26ReportInvalidTestSuiteTypeEPKcNS0_12CodeLocationE
FNDA:0,_ZN7testing8internal26ReportInvalidTestSuiteTypeEPKcNS0_12CodeLocationE
FN:2821,_ZN7testing8internal12UnitTestImpl26RegisterParameterizedTestsEv
FNDA:1,_ZN7testing8internal12UnitTestImpl26RegisterParameterizedTestsEv
FN:2833,_ZN7testing8TestInfo3RunEv
FNDA:9,_ZN7testing8TestInfo3RunEv
FN:2882,_ZN7testing8TestInfo4SkipEv
FNDA:0,_ZN7testing8TestInfo4SkipEv
FN:2906,_ZNK7testing9TestSuite21successful_test_countEv
FNDA:4,_ZNK7testing9TestSuite21successful_test_countEv
FN:2911,_ZNK7testing9TestSuite18skipped_test_countEv
FNDA:8,_ZNK7testing9TestSuite18skipped_test_countEv
FN:2916,_ZNK7testing9TestSuite17failed_test_countEv
FNDA:16,_ZNK7testing9TestSuite17failed_test_countEv
FN:2921,_ZNK7testing9TestSuite30reportable_disabled_test_countEv
FNDA:12,_ZNK7testing9TestSuite30reportable_disabled_test_countEv
FN:2926,_ZNK7testing9TestSuite19disabled_test_countEv
FNDA:0,_ZNK7testing9TestSuite19disabled_test_countEv
FN:2931,_ZNK7testing9TestSuite21reportable_test_countEv
FNDA:12,_ZNK7testing9TestSuite21reportable_test_countEv
FN:2936,_ZNK7testing9TestSuite17test_to_run_countEv
FNDA:16,_ZNK7testing9TestSuite17test_to_run_countEv
FN:2941,_ZNK7testing9TestSuite16total_test_countEv
FNDA:26,_ZNK7testing9TestSuite16total_test_countEv
FN:2954,_ZN7testing9TestSuiteC2EPKcS2_PFvvES4_
FNDA:4,_ZN7testing9TestSuiteC2EPKcS2_PFvvES4_
FN:2966,_ZN7testing9TestSuiteD2Ev
FNDA:0,_ZN7testing9TestSuiteD2Ev
FN:2966,_ZN7testing9TestSuiteD0Ev
FNDA:0,_ZN7testing9TestSuiteD0Ev
FN:2973,_ZNK7testing9TestSuite11GetTestInfoEi
FNDA:18,_ZNK7testing9TestSuite11GetTestInfoEi
FN:2980,_ZN7testing9TestSuite18GetMutableTestInfoEi
FNDA:9,_ZN7testing9TestSuite18GetMutableTestInfoEi
FN:2987,_ZN7testing9TestSuite11AddTestInfoEPNS_8TestInfoE
FNDA:9,_ZN7testing9TestSuite11AddTestInfoEPNS_8TestInfoE
FN:2993,_ZN7testing9TestSuite3RunEv
FNDA:4,_ZN7testing9TestSuite3RunEv
FN:3040,_ZN7testing9TestSuite4SkipEv
FNDA:0,_ZN7testing9TestSuite4SkipEv
FN:3070,_ZN7testing9TestSuite11ClearResultEv
FNDA:4,_ZN7testing9TestSuite11ClearResultEv
FN:3076,_ZN7testing9TestSuite12ShuffleTestsEPNS_8internal6RandomE
FNDA:0,_ZN7testing9TestSuite12ShuffleTestsEPNS_8internal6RandomE
FN:3081,_ZN7testing9TestSuite14UnshuffleTestsEv
FNDA:4,_ZN7testing9TestSuite14UnshuffleTestsEv
FN:3092,_ZN7testingL19FormatCountableNounEiPKcS1_
FNDA:13,_ZN7testingL19FormatCountableNounEiPKcS1_
FN:3100,_ZN7testingL15FormatTestCountEi
FNDA:3,_ZN7testingL15FormatTestCountEi
FN:3105,_ZN7testingL20FormatTestSuiteCountEi
FNDA:2,_ZN7testingL20FormatTestSuiteCountEi
FN:3113,_ZN7testingL26TestPartResultTypeToStringENS_14TestPartResult4TypeE
FNDA:0,_ZN7testingL26TestPartResultTypeToStringENS_14TestPartResult4TypeE
FN:3138,_ZN7testing8internalL27PrintTestPartResultToStringERKNS_14TestPartResultE
FNDA:0,_ZN7testing8internalL27PrintTestPartResultToStringERKNS_14TestPartResultE
FN:3148,_ZN7testing8internalL19PrintTestPartResultERKNS_14TestPartResultE
FNDA:0,_ZN7testing8internalL19PrintTestPartResultERKNS_14TestPartResultE
FN:3218,_ZN7testing8internalL16GetAnsiColorCodeENS0_12_GLOBAL__N_110GTestColorE
FNDA:0,_ZN7testing8internalL16GetAnsiColorCodeENS0_12_GLOBAL__N_110GTestColorE
FN:3234,_ZN7testing8internal14ShouldUseColorEb
FNDA:1,_ZN7testing8internal14ShouldUseColorEb
FN:3276,_ZN7testing8internalL13ColoredPrintfENS0_12_GLOBAL__N_110GTestColorEPKcz
FNDA:31,_ZN7testing8internalL13ColoredPrintfENS0_12_GLOBAL__N_110GTestColorEPKcz
FN:3329,_ZN7testing8internalL29PrintFullTestCommentIfPresentERKNS_8TestInfoE
FNDA:0,_ZN7testing8internalL29PrintFullTestCommentIfPresentERKNS_8TestInfoE
FN:3350,_ZN7testing8internal27PrettyUnitTestResultPrinterC1Ev
FNDA:1,_ZN7testing8internal27PrettyUnitTestResultPrinterC1Ev
FN:3351,_ZN7testing8internal27PrettyUnitTestResultPrinter13PrintTestNameEPKcS3_
FNDA:18,_ZN7testing8internal27PrettyUnitTestResultPrinter13PrintTestNameEPKcS3_
FN:3356,_ZN7testing8internal27PrettyUnitTestResultPrinter18OnTestProgramStartERKNS_8UnitTestE
FNDA:1,_ZN7testing8internal27PrettyUnitTestResultPrinter18OnTestProgramStartERKNS_8UnitTestE
FN:3359,_ZN7testing8internal27PrettyUnitTestResultPrinter22OnEnvironmentsSetUpEndERKNS_8UnitTestE
FNDA:1,_ZN7testing8internal27PrettyUnitTestResultPrinter22OnEnvironmentsSetUpEndERKNS_8UnitTestE
FN:3377,_ZN7testing8internal27PrettyUnitTestResultPrinter25OnEnvironmentsTearDownEndERKNS_8UnitTestE
FNDA:1,_ZN7testing8internal27PrettyUnitTestResultPrinter25OnEnvironmentsTearDownEndERKNS_8UnitTestE
FN:3379,_ZN7testing8internal27PrettyUnitTestResultPrinter16OnTestProgramEndERKNS_8UnitTestE
FNDA:1,_ZN7testing8internal27PrettyUnitTestResultPrinter16OnTestProgramEndERKNS_8UnitTestE
FN:3388,_ZN7testing8internal27PrettyUnitTestResultPrinter20OnTestIterationStartERKNS_8UnitTestEi
FNDA:1,_ZN7testing8internal27PrettyUnitTestResultPrinter20OnTestIterationStartERKNS_8UnitTestEi
FN:3422,_ZN7testing8internal27PrettyUnitTestResultPrinter24OnEnvironmentsSetUpStartERKNS_8UnitTestE
FNDA:1,_ZN7testing8internal27PrettyUnitTestResultPrinter24OnEnvironmentsSetUpStartERKNS_8UnitTestE
FN:3430,_ZN7testing8internal27PrettyUnitTestResultPrinter15OnTestCaseStartERKNS_9TestSuiteE
FNDA:4,_ZN7testing8internal27PrettyUnitTestResultPrinter15OnTestCaseStartERKNS_9TestSuiteE
FN:3458,_ZN7testing8internal27PrettyUnitTestResultPrinter11OnTestStartERKNS_8TestInfoE
FNDA:9,_ZN7testing8internal27PrettyUnitTestResultPrinter11OnTestStartERKNS_8TestInfoE
FN:3466,_ZN7testing8internal27PrettyUnitTestResultPrinter16OnTestPartResultERKNS_14TestPartResultE
FNDA:0,_ZN7testing8internal27PrettyUnitTestResultPrinter16OnTestPartResultERKNS_14TestPartResultE
FN:3480,_ZN7testing8internal27PrettyUnitTestResultPrinter9OnTestEndERKNS_8TestInfoE
FNDA:9,_ZN7testing8internal27PrettyUnitTestResultPrinter9OnTestEndERKNS_8TestInfoE
FN:3502,_ZN7testing8internal27PrettyUnitTestResultPrinter13OnTestCaseEndERKNS_9TestSuiteE
FNDA:4,_ZN7testing8internal27PrettyUnitTestResultPrinter13OnTestCaseEndERKNS_9TestSuiteE
FN:3525,_ZN7testing8internal27PrettyUnitTestResultPrinter27OnEnvironmentsTearDownStartERKNS_8UnitTestE
FNDA:1,_ZN7testing8internal27PrettyUnitTestResultPrinter27OnEnvironmentsTearDownStartERKNS_8UnitTestE
FN:3533,_ZN7testing8internal27PrettyUnitTestResultPrinter16PrintFailedTestsERKNS_8UnitTestE
FNDA:0,_ZN7testing8internal27PrettyUnitTestResultPrinter16PrintFailedTestsERKNS_8UnitTestE
FN:3560,_ZN7testing8internal27PrettyUnitTestResultPrinter21PrintFailedTestSuitesERKNS_8UnitTestE
FNDA:0,_ZN7testing8internal27PrettyUnitTestResultPrinter21PrintFailedTestSuitesERKNS_8UnitTestE
FN:3581,_ZN7testing8internal27PrettyUnitTestResultPrinter17PrintSkippedTestsERKNS_8UnitTestE
FNDA:0,_ZN7testing8internal27PrettyUnitTestResultPrinter17PrintSkippedTestsERKNS_8UnitTestE
FN:3604,_ZN7testing8internal27PrettyUnitTestResultPrinter18OnTestIterationEndERKNS_8UnitTestEi
FNDA:1,_ZN7testing8internal27PrettyUnitTestResultPrinter18OnTestIterationEndERKNS_8UnitTestEi
FN:3649,_ZN7testing8internal26BriefUnitTestResultPrinterC1Ev
FNDA:0,_ZN7testing8internal26BriefUnitTestResultPrinterC1Ev
FN:3650,_ZN7testing8internal26BriefUnitTestResultPrinter13PrintTestNameEPKcS3_
FNDA:0,_ZN7testing8internal26BriefUnitTestResultPrinter13PrintTestNameEPKcS3_
FN:3655,_ZN7testing8internal26BriefUnitTestResultPrinter18OnTestProgramStartERKNS_8UnitTestE
FNDA:0,_ZN7testing8internal26BriefUnitTestResultPrinter18OnTestProgramStartERKNS_8UnitTestE
FN:3656,_ZN7testing8internal26BriefUnitTestResultPrinter20OnTestIterationStartERKNS_8UnitTestEi
FNDA:0,_ZN7testing8internal26BriefUnitTestResultPrinter20OnTestIterationStartERKNS_8UnitTestEi
FN:3658,_ZN7testing8internal26BriefUnitTestResultPrinter24OnEnvironmentsSetUpStartERKNS_8UnitTestE
FNDA:0,_ZN7testing8internal26BriefUnitTestResultPrinter24OnEnvironmentsSetUpStartERKNS_8UnitTestE
FN:3659,_ZN7testing8internal26BriefUnitTestResultPrinter22OnEnvironmentsSetUpEndERKNS_8UnitTestE
FNDA:0,_ZN7testing8internal26BriefUnitTestResultPrinter22OnEnvironmentsSetUpEndERKNS_8UnitTestE
FN:3661,_ZN7testing8internal26BriefUnitTestResultPrinter15OnTestCaseStartERKNS_9TestSuiteE
FNDA:0,_ZN7testing8internal26BriefUnitTestResultPrinter15OnTestCaseStartERKNS_9TestSuiteE
FN:3666,_ZN7testing8internal26BriefUnitTestResultPrinter11OnTestStartERKNS_8TestInfoE
FNDA:0,_ZN7testing8internal26BriefUnitTestResultPrinter11OnTestStartERKNS_8TestInfoE
FN:3671,_ZN7testing8internal26BriefUnitTestResultPrinter13OnTestCaseEndERKNS_9TestSuiteE
FNDA:0,_ZN7testing8internal26BriefUnitTestResultPrinter13OnTestCaseEndERKNS_9TestSuiteE
FN:3676,_ZN7testing8internal26BriefUnitTestResultPrinter27OnEnvironmentsTearDownStartERKNS_8UnitTestE
FNDA:0,_ZN7testing8internal26BriefUnitTestResultPrinter27OnEnvironmentsTearDownStartERKNS_8UnitTestE
FN:3677,_ZN7testing8internal26BriefUnitTestResultPrinter25OnEnvironmentsTearDownEndERKNS_8UnitTestE
FNDA:0,_ZN7testing8internal26BriefUnitTestResultPrinter25OnEnvironmentsTearDownEndERKNS_8UnitTestE
FN:3679,_ZN7testing8internal26BriefUnitTestResultPrinter16OnTestProgramEndERKNS_8UnitTestE
FNDA:0,_ZN7testing8internal26BriefUnitTestResultPrinter16OnTestProgramEndERKNS_8UnitTestE
FN:3683,_ZN7testing8internal26BriefUnitTestResultPrinter16OnTestPartResultERKNS_14TestPartResultE
FNDA:0,_ZN7testing8internal26BriefUnitTestResultPrinter16OnTestPartResultERKNS_14TestPartResultE
FN:3697,_ZN7testing8internal26BriefUnitTestResultPrinter9OnTestEndERKNS_8TestInfoE
FNDA:0,_ZN7testing8internal26BriefUnitTestResultPrinter9OnTestEndERKNS_8TestInfoE
FN:3714,_ZN7testing8internal26BriefUnitTestResultPrinter18OnTestIterationEndERKNS_8UnitTestEi
FNDA:0,_ZN7testing8internal26BriefUnitTestResultPrinter18OnTestIterationEndERKNS_8UnitTestEi
FN:3753,_ZN7testing8internal17TestEventRepeaterC1Ev
FNDA:1,_ZN7testing8internal17TestEventRepeaterC1Ev
FN:3760,_ZNK7testing8internal17TestEventRepeater18forwarding_enabledEv
FNDA:0,_ZNK7testing8internal17TestEventRepeater18forwarding_enabledEv
FN:3761,_ZN7testing8internal17TestEventRepeater22set_forwarding_enabledEb
FNDA:0,_ZN7testing8internal17TestEventRepeater22set_forwarding_enabledEb
FN:3795,_ZN7testing8internal17TestEventRepeaterD2Ev
FNDA:0,_ZN7testing8internal17TestEventRepeaterD2Ev
FN:3795,_ZN7testing8internal17TestEventRepeaterD0Ev
FNDA:0,_ZN7testing8internal17TestEventRepeaterD0Ev
FN:3799,_ZN7testing8internal17TestEventRepeater6AppendEPNS_17TestEventListenerE
FNDA:2,_ZN7testing8internal17TestEventRepeater6AppendEPNS_17TestEventListenerE
FN:3803,_ZN7testing8internal17TestEventRepeater7ReleaseEPNS_17TestEventListenerE
FNDA:2,_ZN7testing8internal17TestEventRepeater7ReleaseEPNS_17TestEventListenerE
FN:3835,_ZN7testing8internal17TestEventRepeater18OnTestProgramStartERKNS_8UnitTestE
FNDA:1,_ZN7testing8internal17TestEventRepeater18OnTestProgramStartERKNS_8UnitTestE
FN:3836,_ZN7testing8internal17TestEventRepeater24OnEnvironmentsSetUpStartERKNS_8UnitTestE
FNDA:1,_ZN7testing8internal17TestEventRepeater24OnEnvironmentsSetUpStartERKNS_8UnitTestE
FN:3839,_ZN7testing8internal17TestEventRepeater15OnTestCaseStartERKNS_9TestSuiteE
FNDA:4,_ZN7testing8internal17TestEventRepeater15OnTestCaseStartERKNS_9TestSuiteE
FN:3841,_ZN7testing8internal17TestEventRepeater16OnTestSuiteStartERKNS_9TestSuiteE
FNDA:4,_ZN7testing8internal17TestEventRepeater16OnTestSuiteStartERKNS_9TestSuiteE
FN:3842,_ZN7testing8internal17TestEventRepeater11OnTestStartERKNS_8TestInfoE
FNDA:9,_ZN7testing8internal17TestEventRepeater11OnTestStartERKNS_8TestInfoE
FN:3843,_ZN7testing8internal17TestEventRepeater16OnTestPartResultERKNS_14TestPartResultE
FNDA:0,_ZN7testing8internal17TestEventRepeater16OnTestPartResultERKNS_14TestPartResultE
FN:3844,_ZN7testing8internal17TestEventRepeater27OnEnvironmentsTearDownStartERKNS_8UnitTestE
FNDA:1,_ZN7testing8internal17TestEventRepeater27OnEnvironmentsTearDownStartERKNS_8UnitTestE
FN:3845,_ZN7testing8internal17TestEventRepeater22OnEnvironmentsSetUpEndERKNS_8UnitTestE
FNDA:1,_ZN7testing8internal17TestEventRepeater22OnEnvironmentsSetUpEndERKNS_8UnitTestE
FN:3846,_ZN7testing8internal17TestEventRepeater25OnEnvironmentsTearDownEndERKNS_8UnitTestE
FNDA:1,_ZN7testing8internal17TestEventRepeater25OnEnvironmentsTearDownEndERKNS_8UnitTestE
FN:3847,_ZN7testing8internal17TestEventRepeater9OnTestEndERKNS_8TestInfoE
FNDA:9,_ZN7testing8internal17TestEventRepeater9OnTestEndERKNS_8TestInfoE
FN:3850,_ZN7testing8internal17TestEventRepeater13OnTestCaseEndERKNS_9TestSuiteE
FNDA:4,_ZN7testing8internal17TestEventRepeater13OnTestCaseEndERKNS_9TestSuiteE
FN:3852,_ZN7testing8internal17TestEventRepeater14OnTestSuiteEndERKNS_9TestSuiteE
FNDA:4,_ZN7testing8internal17TestEventRepeater14OnTestSuiteEndERKNS_9TestSuiteE
FN:3853,_ZN7testing8internal17TestEventRepeater16OnTestProgramEndERKNS_8UnitTestE
FNDA:1,_ZN7testing8internal17TestEventRepeater16OnTestProgramEndERKNS_8UnitTestE
FN:3858,_ZN7testing8internal17TestEventRepeater20OnTestIterationStartERKNS_8UnitTestEi
FNDA:1,_ZN7testing8internal17TestEventRepeater20OnTestIterationStartERKNS_8UnitTestEi
FN:3867,_ZN7testing8internal17TestEventRepeater18OnTestIterationEndERKNS_8UnitTestEi
FNDA:1,_ZN7testing8internal17TestEventRepeater18OnTestIterationEndERKNS_8UnitTestEi
FN:3893,_ZN7testing8internal24XmlUnitTestResultPrinter24IsNormalizableWhitespaceEc
FNDA:1890,_ZN7testing8internal24XmlUnitTestResultPrinter24IsNormalizableWhitespaceEc
FN:3898,_ZN7testing8internal24XmlUnitTestResultPrinter19IsValidXmlCharacterEc
FNDA:945,_ZN7testing8internal24XmlUnitTestResultPrinter19IsValidXmlCharacterEc
FN:3912,_ZN7testing8internal24XmlUnitTestResultPrinter18EscapeXmlAttributeERKNSt7__cxx1112basic_stringIcSt11char_traitsIcESaIcEEE
FNDA:93,_ZN7testing8internal24XmlUnitTestResultPrinter18EscapeXmlAttributeERKNSt7__cxx1112basic_stringIcSt11char_traitsIcESaIcEEE
FN:3972,_ZN7testing8internal24XmlUnitTestResultPrinterC2EPKc
FNDA:1,_ZN7testing8internal24XmlUnitTestResultPrinterC2EPKc
FN:3980,_ZN7testing8internal24XmlUnitTestResultPrinter18OnTestIterationEndERKNS_8UnitTestEi
FNDA:1,_ZN7testing8internal24XmlUnitTestResultPrinter18OnTestIterationEndERKNS_8UnitTestEi
FN:3989,_ZN7testing8internal24XmlUnitTestResultPrinter23ListTestsMatchingFilterERKSt6vectorIPNS_9TestSuiteESaIS4_EE
FNDA:0,_ZN7testing8internal24XmlUnitTestResultPrinter23ListTestsMatchingFilterERKSt6vectorIPNS_9TestSuiteESaIS4_EE
FN:4008,_ZN7testing8internal24XmlUnitTestResultPrinter9EscapeXmlERKNSt7__cxx1112basic_stringIcSt11char_traitsIcESaIcEEEb
FNDA:93,_ZN7testing8internal24XmlUnitTestResultPrinter9EscapeXmlERKNSt7__cxx1112basic_stringIcSt11char_traitsIcESaIcEEEb
FN:4054,_ZN7testing8internal24XmlUnitTestResultPrinter26RemoveInvalidXmlCharactersERKNSt7__cxx1112basic_stringIcSt11char_traitsIcESaIcEEE
FNDA:0,_ZN7testing8internal24XmlUnitTestResultPrinter26RemoveInvalidXmlCharactersERKNSt7__cxx1112basic_stringIcSt11char_traitsIcESaIcEEE
FN:4083,_ZN7testing8internal27FormatTimeInMillisAsSecondsB5cxx11Ex
FNDA:14,_ZN7testing8internal27FormatTimeInMillisAsSecondsB5cxx11Ex
FN:4089,_ZN7testing8internalL17PortableLocaltimeExP2tm
FNDA:14,_ZN7testing8internalL17PortableLocaltimeExP2tm
FN:4110,_ZN7testing8internal32FormatEpochTimeInMillisAsIso8601B5cxx11Ex
FNDA:14,_ZN7testing8internal32FormatEpochTimeInMillisAsIso8601B5cxx11Ex
FN:4125,_ZN7testing8internal24XmlUnitTestResultPrinter21OutputXmlCDataSectionEPSoPKc
FNDA:0,_ZN7testing8internal24XmlUnitTestResultPrinter21OutputXmlCDataSectionEPSoPKc
FN:4144,_ZN7testing8internal24XmlUnitTestResultPrinter18OutputXmlAttributeEPSoRKNSt7__cxx1112basic_stringIcSt11char_traitsIcESaIcEEESA_SA_
FNDA:93,_ZN7testing8internal24XmlUnitTestResultPrinter18OutputXmlAttributeEPSoRKNSt7__cxx1112basic_stringIcSt11char_traitsIcESaIcEEESA_SA_
FN:4161,_ZN7testing8internal24XmlUnitTestResultPrinter31OutputXmlTestSuiteForTestResultEPSoRKNS_10TestResultE
FNDA:0,_ZN7testing8internal24XmlUnitTestResultPrinter31OutputXmlTestSuiteForTestResultEPSoRKNS_10TestResultE
FN:4198,_ZN7testing8internal24XmlUnitTestResultPrinter17OutputXmlTestInfoEPSoPKcRKNS_8TestInfoE
FNDA:9,_ZN7testing8internal24XmlUnitTestResultPrinter17OutputXmlTestInfoEPSoPKcRKNS_8TestInfoE
FN:4243,_ZN7testing8internal24XmlUnitTestResultPrinter19OutputXmlTestResultEPSoRKNS_10TestResultE
FNDA:9,_ZN7testing8internal24XmlUnitTestResultPrinter19OutputXmlTestResultEPSoRKNS_10TestResultE
FN:4291,_ZN7testing8internal24XmlUnitTestResultPrinter17PrintXmlTestSuiteEPSoRKNS_9TestSuiteE
FNDA:4,_ZN7testing8internal24XmlUnitTestResultPrinter17PrintXmlTestSuiteEPSoRKNS_9TestSuiteE
FN:4325,_ZN7testing8internal24XmlUnitTestResultPrinter16PrintXmlUnitTestEPSoRKNS_8UnitTestE
FNDA:1,_ZN7testing8internal24XmlUnitTestResultPrinter16PrintXmlUnitTestEPSoRKNS_8UnitTestE
FN:4369,_ZN7testing8internal24XmlUnitTestResultPrinter17PrintXmlTestsListEPSoRKSt6vectorIPNS_9TestSuiteESaIS5_EE
FNDA:0,_ZN7testing8internal24XmlUnitTestResultPrinter17PrintXmlTestsListEPSoRKSt6vectorIPNS_9TestSuiteESaIS5_EE
FN:4393,_ZN7testing8internal24XmlUnitTestResultPrinter29TestPropertiesAsXmlAttributesB5cxx11ERKNS_10TestResultE
FNDA:5,_ZN7testing8internal24XmlUnitTestResultPrinter29TestPropertiesAsXmlAttributesB5cxx11ERKNS_10TestResultE
FN:4404,_ZN7testing8internal24XmlUnitTestResultPrinter23OutputXmlTestPropertiesEPSoRKNS_10TestResultE
FNDA:0,_ZN7testing8internal24XmlUnitTestResultPrinter23OutputXmlTestPropertiesEPSoRKNS_10TestResultE
FN:4491,_ZN7testing8internal25JsonUnitTestResultPrinterC2EPKc
FNDA:0,_ZN7testing8internal25JsonUnitTestResultPrinterC2EPKc
FN:4498,_ZN7testing8internal25JsonUnitTestResultPrinter18OnTestIterationEndERKNS_8UnitTestEi
FNDA:0,_ZN7testing8internal25JsonUnitTestResultPrinter18OnTestIterationEndERKNS_8UnitTestEi
FN:4508,_ZN7testing8internal25JsonUnitTestResultPrinter10EscapeJsonERKNSt7__cxx1112basic_stringIcSt11char_traitsIcESaIcEEE
FNDA:0,_ZN7testing8internal25JsonUnitTestResultPrinter10EscapeJsonERKNSt7__cxx1112basic_stringIcSt11char_traitsIcESaIcEEE
FN:4551,_ZN7testing8internalL28FormatTimeInMillisAsDurationEx
FNDA:0,_ZN7testing8internalL28FormatTimeInMillisAsDurationEx
FN:4559,_ZN7testing8internalL32FormatEpochTimeInMillisAsRFC3339Ex
FNDA:0,_ZN7testing8internalL32FormatEpochTimeInMillisAsRFC3339Ex
FN:4572,_ZN7testing8internalL6IndentEy
FNDA:0,_ZN7testing8internalL6IndentEy
FN:4576,_ZN7testing8internal25JsonUnitTestResultPrinter13OutputJsonKeyEPSoRKNSt7__cxx1112basic_stringIcSt11char_traitsIcESaIcEEESA_SA_SA_b
FNDA:0,_ZN7testing8internal25JsonUnitTestResultPrinter13OutputJsonKeyEPSoRKNSt7__cxx1112basic_stringIcSt11char_traitsIcESaIcEEESA_SA_SA_b
FN:4596,_ZN7testing8internal25JsonUnitTestResultPrinter13OutputJsonKeyEPSoRKNSt7__cxx1112basic_stringIcSt11char_traitsIcESaIcEEESA_iSA_b
FNDA:0,_ZN7testing8internal25JsonUnitTestResultPrinter13OutputJsonKeyEPSoRKNSt7__cxx1112basic_stringIcSt11char_traitsIcESaIcEEESA_iSA_b
FN:4617,_ZN7testing8internal25JsonUnitTestResultPrinter32OutputJsonTestSuiteForTestResultEPSoRKNS_10TestResultE
FNDA:0,_ZN7testing8internal25JsonUnitTestResultPrinter32OutputJsonTestSuiteForTestResultEPSoRKNS_10TestResultE
FN:4659,_ZN7testing8internal25JsonUnitTestResultPrinter18OutputJsonTestInfoEPSoPKcRKNS_8TestInfoE
FNDA:0,_ZN7testing8internal25JsonUnitTestResultPrinter18OutputJsonTestInfoEPSoPKcRKNS_8TestInfoE
FN:4703,_ZN7testing8internal25JsonUnitTestResultPrinter20OutputJsonTestResultEPSoRKNS_10TestResultE
FNDA:0,_ZN7testing8internal25JsonUnitTestResultPrinter20OutputJsonTestResultEPSoRKNS_10TestResultE
FN:4732,_ZN7testing8internal25JsonUnitTestResultPrinter18PrintJsonTestSuiteEPSoRKNS_9TestSuiteE
FNDA:0,_ZN7testing8internal25JsonUnitTestResultPrinter18PrintJsonTestSuiteEPSoRKNS_9TestSuiteE
FN:4775,_ZN7testing8internal25JsonUnitTestResultPrinter17PrintJsonUnitTestEPSoRKNS_8UnitTestE
FNDA:0,_ZN7testing8internal25JsonUnitTestResultPrinter17PrintJsonUnitTestEPSoRKNS_8UnitTestE
FN:4826,_ZN7testing8internal25JsonUnitTestResultPrinter17PrintJsonTestListEPSoRKSt6vectorIPNS_9TestSuiteESaIS5_EE
FNDA:0,_ZN7testing8internal25JsonUnitTestResultPrinter17PrintJsonTestListEPSoRKSt6vectorIPNS_9TestSuiteESaIS5_EE
FN:4853,_ZN7testing8internal25JsonUnitTestResultPrinter20TestPropertiesAsJsonERKNS_10TestResultERKNSt7__cxx1112basic_stringIcSt11char_traitsIcESaIcEEE
FNDA:0,_ZN7testing8internal25JsonUnitTestResultPrinter20TestPropertiesAsJsonERKNS_10TestResultERKNSt7__cxx1112basic_stringIcSt11char_traitsIcESaIcEEE
FN:4941,_ZN7testing8internal18OsStackTraceGetter17CurrentStackTraceB5cxx11Eii
FNDA:0,_ZN7testing8internal18OsStackTraceGetter17CurrentStackTraceB5cxx11Eii
FN:4991,_ZN7testing8internal18OsStackTraceGetter16UponLeavingGTestEv
FNDA:53,_ZN7testing8internal18OsStackTraceGetter16UponLeavingGTestEv
FN:5007,_ZN7testing8internal23ScopedPrematureExitFileC1EPKc
FNDA:1,_ZN7testing8internal23ScopedPrematureExitFileC1EPKc
FN:5021,_ZN7testing8internal23ScopedPrematureExitFileD1Ev
FNDA:1,_ZN7testing8internal23ScopedPrematureExitFileD1Ev
FN:5044,_ZN7testing18TestEventListenersC2Ev
FNDA:1,_ZN7testing18TestEventListenersC2Ev
FN:5049,_ZN7testing18TestEventListenersD2Ev
FNDA:0,_ZN7testing18TestEventListenersD2Ev
FN:5055,_ZN7testing18TestEventListeners6AppendEPNS_17TestEventListenerE
FNDA:2,_ZN7testing18TestEventListeners6AppendEPNS_17TestEventListenerE
FN:5062,_ZN7testing18TestEventListeners7ReleaseEPNS_17TestEventListenerE
FNDA:2,_ZN7testing18TestEventListeners7ReleaseEPNS_17TestEventListenerE
FN:5072,_ZN7testing18TestEventListeners8repeaterEv
FNDA:14,_ZN7testing18TestEventListeners8repeaterEv
FN:5079,_ZN7testing18TestEventListeners23SetDefaultResultPrinterEPNS_17TestEventListenerE
FNDA:1,_ZN7testing18TestEventListeners23SetDefaultResultPrinterEPNS_17TestEventListenerE
FN:5094,_ZN7testing18TestEventListeners22SetDefaultXmlGeneratorEPNS_17TestEventListenerE
FNDA:1,_ZN7testing18TestEventListeners22SetDefaultXmlGeneratorEPNS_17TestEventListenerE
FN:5106,_ZNK7testing18TestEventListeners22EventForwardingEnabledEv
FNDA:0,_ZNK7testing18TestEventListeners22EventForwardingEnabledEv
FN:5110,_ZN7testing18TestEventListeners23SuppressEventForwardingEv
FNDA:0,_ZN7testing18TestEventListeners23SuppressEventForwardingEv
FN:5123,_ZN7testing8UnitTest11GetInstanceEv
FNDA:149,_ZN7testing8UnitTest11GetInstanceEv
FN:5138,_ZNK7testing8UnitTest27successful_test_suite_countEv
FNDA:0,_ZNK7testing8UnitTest27successful_test_suite_countEv
FN:5143,_ZNK7testing8UnitTest23failed_test_suite_countEv
FNDA:0,_ZNK7testing8UnitTest23failed_test_suite_countEv
FN:5148,_ZNK7testing8UnitTest22total_test_suite_countEv
FNDA:5,_ZNK7testing8UnitTest22total_test_suite_countEv
FN:5154,_ZNK7testing8UnitTest23test_suite_to_run_countEv
FNDA:2,_ZNK7testing8UnitTest23test_suite_to_run_countEv
FN:5160,_ZNK7testing8UnitTest26successful_test_case_countEv
FNDA:0,_ZNK7testing8UnitTest26successful_test_case_countEv
FN:5163,_ZNK7testing8UnitTest22failed_test_case_countEv
FNDA:0,_ZNK7testing8UnitTest22failed_test_case_countEv
FN:5166,_ZNK7testing8UnitTest21total_test_case_countEv
FNDA:0,_ZNK7testing8UnitTest21total_test_case_countEv
FN:5169,_ZNK7testing8UnitTest22test_case_to_run_countEv
FNDA:0,_ZNK7testing8UnitTest22test_case_to_run_countEv
FN:5175,_ZNK7testing8UnitTest21successful_test_countEv
FNDA:1,_ZNK7testing8UnitTest21successful_test_countEv
FN:5180,_ZNK7testing8UnitTest18skipped_test_countEv
FNDA:1,_ZNK7testing8UnitTest18skipped_test_countEv
FN:5185,_ZNK7testing8UnitTest17failed_test_countEv
FNDA:1,_ZNK7testing8UnitTest17failed_test_countEv
FN:5188,_ZNK7testing8UnitTest30reportable_disabled_test_countEv
FNDA:2,_ZNK7testing8UnitTest30reportable_disabled_test_countEv
FN:5193,_ZNK7testing8UnitTest19disabled_test_countEv
FNDA:0,_ZNK7testing8UnitTest19disabled_test_countEv
FN:5198,_ZNK7testing8UnitTest21reportable_test_countEv
FNDA:1,_ZNK7testing8UnitTest21reportable_test_countEv
FN:5203,_ZNK7testing8UnitTest16total_test_countEv
FNDA:0,_ZNK7testing8UnitTest16total_test_countEv
FN:5206,_ZNK7testing8UnitTest17test_to_run_countEv
FNDA:2,_ZNK7testing8UnitTest17test_to_run_countEv
FN:5210,_ZNK7testing8UnitTest15start_timestampEv
FNDA:1,_ZNK7testing8UnitTest15start_timestampEv
FN:5215,_ZNK7testing8UnitTest12elapsed_timeEv
FNDA:2,_ZNK7testing8UnitTest12elapsed_timeEv
FN:5221,_ZNK7testing8UnitTest6PassedEv
FNDA:1,_ZNK7testing8UnitTest6PassedEv
FN:5225,_ZNK7testing8UnitTest6FailedEv
FNDA:0,_ZNK7testing8UnitTest6FailedEv
FN:5229,_ZNK7testing8UnitTest12GetTestSuiteEi
FNDA:8,_ZNK7testing8UnitTest12GetTestSuiteEi
FN:5235,_ZNK7testing8UnitTest11GetTestCaseEi
FNDA:0,_ZNK7testing8UnitTest11GetTestCaseEi
FN:5242,_ZNK7testing8UnitTest18ad_hoc_test_resultEv
FNDA:2,_ZNK7testing8UnitTest18ad_hoc_test_resultEv
FN:5248,_ZN7testing8UnitTest19GetMutableTestSuiteEi
FNDA:0,_ZN7testing8UnitTest19GetMutableTestSuiteEi
FN:5254,_ZN7testing8UnitTest9listenersEv
FNDA:13,_ZN7testing8UnitTest9listenersEv
FN:5268,_ZN7testing8UnitTest14AddEnvironmentEPNS_11EnvironmentE
FNDA:0,_ZN7testing8UnitTest14AddEnvironmentEPNS_11EnvironmentE
FN:5281,_ZN7testing8UnitTest17AddTestPartResultENS_14TestPartResult4TypeEPKciRKNSt7__cxx1112basic_stringIcSt11char_traitsIcESaIcEEESC_
FNDA:0,_ZN7testing8UnitTest17AddTestPartResultENS_14TestPartResult4TypeEPKciRKNSt7__cxx1112basic_stringIcSt11char_traitsIcESaIcEEESC_
FN:5351,_ZN7testing8UnitTest14RecordPropertyERKNSt7__cxx1112basic_stringIcSt11char_traitsIcESaIcEEES8_
FNDA:0,_ZN7testing8UnitTest14RecordPropertyERKNSt7__cxx1112basic_stringIcSt11char_traitsIcESaIcEEES8_
FN:5361,_ZN7testing8UnitTest3RunEv
FNDA:1,_ZN7testing8UnitTest3RunEv
FN:5446,_ZNK7testing8UnitTest20original_working_dirEv
FNDA:1,_ZNK7testing8UnitTest20original_working_dirEv
FN:5452,_ZNK7testing8UnitTest18current_test_suiteEv
FNDA:0,_ZNK7testing8UnitTest18current_test_suiteEv
FN:5460,_ZNK7testing8UnitTest17current_test_caseEv
FNDA:0,_ZNK7testing8UnitTest17current_test_caseEv
FN:5469,_ZNK7testing8UnitTest17current_test_infoEv
FNDA:0,_ZNK7testing8UnitTest17current_test_infoEv
FN:5476,_ZNK7testing8UnitTest11random_seedEv
FNDA:0,_ZNK7testing8UnitTest11random_seedEv
FN:5481,_ZN7testing8UnitTest27parameterized_test_registryEv
FNDA:0,_ZN7testing8UnitTest27parameterized_test_registryEv
FN:5486,_ZN7testing8UnitTestC2Ev
FNDA:1,_ZN7testing8UnitTestC2Ev
FN:5491,_ZN7testing8UnitTestD0Ev
FNDA:0,_ZN7testing8UnitTestD0Ev
FN:5491,_ZN7testing8UnitTestD2Ev
FNDA:0,_ZN7testing8UnitTestD2Ev
FN:5497,_ZN7testing8UnitTest14PushGTestTraceERKNS_8internal9TraceInfoE
FNDA:0,_ZN7testing8UnitTest14PushGTestTraceERKNS_8internal9TraceInfoE
FN:5504,_ZN7testing8UnitTest13PopGTestTraceEv
FNDA:0,_ZN7testing8UnitTest13PopGTestTraceEv
FN:5512,_ZN7testing8internal12UnitTestImplC2EPNS_8UnitTestE
FNDA:1,_ZN7testing8internal12UnitTestImplC2EPNS_8UnitTestE
FN:5541,_ZN7testing8internal12UnitTestImplD2Ev
FNDA:0,_ZN7testing8internal12UnitTestImplD2Ev
FN:5541,_ZN7testing8internal12UnitTestImplD0Ev
FNDA:0,_ZN7testing8internal12UnitTestImplD0Ev
FN:5556,_ZN7testing8internal12UnitTestImpl14RecordPropertyERKNS_12TestPropertyE
FNDA:0,_ZN7testing8internal12UnitTestImpl14RecordPropertyERKNS_12TestPropertyE
FN:5576,_ZN7testing8internal12UnitTestImpl32SuppressTestEventsIfInSubprocessEv
FNDA:1,_ZN7testing8internal12UnitTestImpl32SuppressTestEventsIfInSubprocessEv
FN:5584,_ZN7testing8internal12UnitTestImpl18ConfigureXmlOutputEv
FNDA:1,_ZN7testing8internal12UnitTestImpl18ConfigureXmlOutputEv
FN:5621,_ZN7testing8internal12UnitTestImpl19PostFlagParsingInitEv
FNDA:2,_ZN7testing8internal12UnitTestImpl19PostFlagParsingInitEv
FN:5674,_ZN7testing8internal15TestSuiteNameIsC1ERKNSt7__cxx1112basic_stringIcSt11char_traitsIcESaIcEEE
FNDA:9,_ZN7testing8internal15TestSuiteNameIsC1ERKNSt7__cxx1112basic_stringIcSt11char_traitsIcESaIcEEE
FN:5677,_ZNK7testing8internal15TestSuiteNameIsclEPKNS_9TestSuiteE
FNDA:11,_ZNK7testing8internal15TestSuiteNameIsclEPKNS_9TestSuiteE
FN:5698,_ZN7testing8internal12UnitTestImpl12GetTestSuiteEPKcS3_PFvvES5_
FNDA:9,_ZN7testing8internal12UnitTestImpl12GetTestSuiteEPKcS3_PFvvES5_
FN:5734,_ZN7testing8internalL16SetUpEnvironmentEPNS_11EnvironmentE
FNDA:0,_ZN7testing8internalL16SetUpEnvironmentEPNS_11EnvironmentE
FN:5735,_ZN7testing8internalL19TearDownEnvironmentEPNS_11EnvironmentE
FNDA:0,_ZN7testing8internalL19TearDownEnvironmentEPNS_11EnvironmentE
FN:5746,_ZN7testing8internal12UnitTestImpl11RunAllTestsEv
FNDA:1,_ZN7testing8internal12UnitTestImpl11RunAllTestsEv
FN:5928,_ZN7testing8internal30WriteToShardStatusFileIfNeededEv
FNDA:1,_ZN7testing8internal30WriteToShardStatusFileIfNeededEv
FN:5950,_ZN7testing8internal11ShouldShardEPKcS2_b
FNDA:2,_ZN7testing8internal11ShouldShardEPKcS2_b
FN:5995,_ZN7testing8internal17Int32FromEnvOrDieEPKci
FNDA:4,_ZN7testing8internal17Int32FromEnvOrDieEPKci
FN:6013,_ZN7testing8internal20ShouldRunTestOnShardEiii
FNDA:0,_ZN7testing8internal20ShouldRunTestOnShardEiii
FN:6024,_ZN7testing8internal12UnitTestImpl11FilterTestsENS1_18ReactionToShardingE
FNDA:1,_ZN7testing8internal12UnitTestImpl11FilterTestsENS1_18ReactionToShardingE
FN:6079,_ZN7testing8internalL14PrintOnOneLineEPKci
FNDA:0,_ZN7testing8internalL14PrintOnOneLineEPKci
FN:6098,_ZN7testing8internal12UnitTestImpl23ListTestsMatchingFilterEv
FNDA:0,_ZN7testing8internal12UnitTestImpl23ListTestsMatchingFilterEv
FN:6155,_ZN7testing8internal12UnitTestImpl25set_os_stack_trace_getterEPNS0_27OsStackTraceGetterInterfaceE
FNDA:0,_ZN7testing8internal12UnitTestImpl25set_os_stack_trace_getterEPNS0_27OsStackTraceGetterInterfaceE
FN:6166,_ZN7testing8internal12UnitTestImpl21os_stack_trace_getterEv
FNDA:53,_ZN7testing8internal12UnitTestImpl21os_stack_trace_getterEv
FN:6179,_ZN7testing8internal12UnitTestImpl19current_test_resultEv
FNDA:38,_ZN7testing8internal12UnitTestImpl19current_test_resultEv
FN:6191,_ZN7testing8internal12UnitTestImpl12ShuffleTestsEv
FNDA:0,_ZN7testing8internal12UnitTestImpl12ShuffleTestsEv
FN:6206,_ZN7testing8internal12UnitTestImpl14UnshuffleTestsEv
FNDA:1,_ZN7testing8internal12UnitTestImpl14UnshuffleTestsEv
FN:6225,_ZN7testing8internal31GetCurrentOsStackTraceExceptTopB5cxx11EPNS_8UnitTestEi
FNDA:0,_ZN7testing8internal31GetCurrentOsStackTraceExceptTopB5cxx11EPNS_8UnitTestEi
FN:6238,_ZN7testing8internal6IsTrueEb
FNDA:114,_ZN7testing8internal6IsTrueEb
FN:6240,_ZN7testing8internal10AlwaysTrueEv
FNDA:2,_ZN7testing8internal10AlwaysTrueEv
FN:6253,_ZN7testing8internal10SkipPrefixEPKcPS2_
FNDA:0,_ZN7testing8internal10SkipPrefixEPKcPS2_
FN:6267,_ZN7testing8internalL14ParseFlagValueEPKcS2_b
FNDA:11,_ZN7testing8internalL14ParseFlagValueEPKcS2_b
FN:6304,_ZN7testing8internalL13ParseBoolFlagEPKcS2_Pb
FNDA:6,_ZN7testing8internalL13ParseBoolFlagEPKcS2_Pb
FN:6320,_ZN7testing8internal14ParseInt32FlagEPKcS2_Pi
FNDA:0,_ZN7testing8internal14ParseInt32FlagEPKcS2_Pi
FN:6337,_ZN7testing8internalL15ParseStringFlagINSt7__cxx1112basic_stringIcSt11char_traitsIcESaIcEEEEEbPKcS9_PT_
FNDA:5,_ZN7testing8internalL15ParseStringFlagINSt7__cxx1112basic_stringIcSt11char_traitsIcESaIcEEEEEbPKcS9_PT_
FN:6355,_ZN7testing8internalL23HasGoogleTestFlagPrefixEPKc
FNDA:0,_ZN7testing8internalL23HasGoogleTestFlagPrefixEPKc
FN:6373,_ZN7testing8internalL17PrintColorEncodedEPKc
FNDA:0,_ZN7testing8internalL17PrintColorEncodedEPKc
FN:6499,_ZN7testing8internalL19ParseGoogleTestFlagEPKc
FNDA:1,_ZN7testing8internalL19ParseGoogleTestFlagEPKc
FN:6531,_ZN7testing8internalL17LoadFlagsFromFileERKNSt7__cxx1112basic_stringIcSt11char_traitsIcESaIcEEE
FNDA:0,_ZN7testing8internalL17LoadFlagsFromFileERKNSt7__cxx1112basic_stringIcSt11char_traitsIcESaIcEEE
FN:6554,_ZN7testing8internal28ParseGoogleTestFlagsOnlyImplIcEEvPiPPT_
FNDA:1,_ZN7testing8internal28ParseGoogleTestFlagsOnlyImplIcEEvPiPPT_
FN:6554,_ZN7testing8internal28ParseGoogleTestFlagsOnlyImplIwEEvPiPPT_
FNDA:0,_ZN7testing8internal28ParseGoogleTestFlagsOnlyImplIwEEvPiPPT_
FN:6607,_ZN7testing8internal24ParseGoogleTestFlagsOnlyEPiPPc
FNDA:1,_ZN7testing8internal24ParseGoogleTestFlagsOnlyEPiPPc
FN:6621,_ZN7testing8internal24ParseGoogleTestFlagsOnlyEPiPPw
FNDA:0,_ZN7testing8internal24ParseGoogleTestFlagsOnlyEPiPPw
FN:6630,_ZN7testing8internal18InitGoogleTestImplIcEEvPiPPT_
FNDA:1,_ZN7testing8internal18InitGoogleTestImplIcEEvPiPPT_
FN:6630,_ZN7testing8internal18InitGoogleTestImplIwEEvPiPPT_
FNDA:0,_ZN7testing8internal18InitGoogleTestImplIwEEvPiPPT_
FN:6660,_ZN7testing14InitGoogleTestEPiPPc
FNDA:1,_ZN7testing14InitGoogleTestEPiPPc
FN:6670,_ZN7testing14InitGoogleTestEPiPPw
FNDA:0,_ZN7testing14InitGoogleTestEPiPPw
FN:6680,_ZN7testing14InitGoogleTestEv
FNDA:0,_ZN7testing14InitGoogleTestEv
FN:6694,_ZN7testing7TempDirB5cxx11Ev
FNDA:0,_ZN7testing7TempDirB5cxx11Ev
FN:6731,_ZN7testing11ScopedTrace9PushTraceEPKciNSt7__cxx1112basic_stringIcSt11char_traitsIcESaIcEEE
FNDA:0,_ZN7testing11ScopedTrace9PushTraceEPKciNSt7__cxx1112basic_stringIcSt11char_traitsIcESaIcEEE
FN:6741,_ZN7testing11ScopedTraceD2Ev
FNDA:0,_ZN7testing11ScopedTraceD2Ev
FNF:416
FNH:183
DA:181,1
DA:182,1
DA:183,1
DA:184,1
DA:186,1
DA:187,1
DA:189,1
DA:190,0
DA:192,1
DA:193,1
DA:199,1
DA:201,1
DA:202,1
DA:203,0
DA:205,1
DA:210,1
DA:212,1
DA:213,1
DA:214,0
DA:216,1
DA:348,0
DA:351,0
DA:353,0
DA:354,0
DA:355,0
DA:356,0
DA:357,0
DA:362,0
DA:368,2
DA:373,8
DA:375,8
DA:376,40
DA:377,32
DA:379,8
DA:383,0
DA:384,0
DA:388,8
DA:389,8
DA:394,8
DA:395,8
DA:399,0
DA:402,0
DA:403,0
DA:404,0
DA:406,0
DA:407,0
DA:408,0
DA:411,0
DA:413,0
DA:414,0
DA:416,0
DA:419,0
DA:434,0
DA:436,0
DA:437,0
DA:438,0
DA:440,0
DA:441,0
DA:442,0
DA:443,0
DA:445,0
DA:447,0
DA:458,1
DA:459,1
DA:463,0
DA:464,0
DA:465,0
DA:469,0
DA:471,0
DA:472,0
DA:474,0
DA:483,0
DA:493,0
DA:494,0
DA:499,0
DA:501,0
DA:502,0
DA:506,0
DA:507,0
DA:508,0
DA:510,0
DA:512,0
DA:514,0
DA:516,0
DA:518,0
DA:520,0
DA:521,0
DA:522,0
DA:524,0
DA:526,0
DA:527,0
DA:528,0
DA:530,0
DA:532,0
DA:533,0
DA:534,0
DA:536,0
DA:537,0
DA:539,0
DA:541,1
DA:542,1
DA:543,1
DA:544,0
DA:545,0
DA:548,0
DA:560,0
DA:561,0
DA:564,0
DA:565,0
DA:570,0
DA:571,0
DA:572,0
DA:574,0
DA:575,1
DA:580,2
DA:587,2
DA:593,0
DA:594,0
DA:597,0
DA:602,0
DA:603,0
DA:608,2
DA:609,2
DA:610,2
DA:612,2
DA:614,8
DA:619,1
DA:620,1
DA:622,1
DA:623,1
DA:624,0
DA:626,1
DA:627,1
DA:628,0
DA:629,0
DA:630,0
DA:631,0
DA:632,0
DA:634,1
DA:635,1
DA:636,2
DA:637,2
DA:638,4
DA:640,1
DA:641,1
DA:644,0
DA:645,0
DA:646,0
DA:647,1
DA:655,62
DA:657,62
DA:658,62
DA:659,62
DA:661,62
DA:662,62
DA:664,1863
DA:665,1854
DA:666,1479
DA:667,561
DA:668,561
DA:669,0
DA:670,0
DA:671,0
DA:673,561
DA:674,0
DA:675,0
DA:676,0
DA:677,0
DA:678,0
DA:680,0
DA:681,918
DA:685,918
DA:686,918
DA:687,918
DA:688,918
DA:692,936
DA:693,883
DA:694,883
DA:695,883
DA:697,53
DA:699,9
DA:702,40
DA:705,40
DA:708,62
DA:709,62
DA:710,62
DA:713,62
DA:714,9
DA:719,53
DA:720,31
DA:722,22
DA:723,22
DA:729,9
DA:731,9
DA:735,9
DA:736,9
DA:737,9
DA:738,9
DA:739,9
DA:740,9
DA:741,9
DA:743,0
DA:744,0
DA:745,0
DA:747,0
DA:753,18
DA:754,18
DA:755,9
DA:790,0
DA:791,0
DA:792,0
DA:793,0
DA:794,0
DA:795,0
DA:800,0
DA:801,0
DA:802,0
DA:803,0
DA:804,0
DA:805,0
DA:807,0
DA:808,0
DA:809,0
DA:810,0
DA:811,0
DA:813,0
DA:814,0
DA:816,0
DA:820,0
DA:827,0
DA:820,0
DA:821,0
DA:822,0
DA:823,0
DA:825,0
DA:827,0
DA:831,0
DA:833,0
DA:834,0
DA:847,1
DA:848,1
DA:858,0
DA:866,0
DA:867,0
DA:868,0
DA:869,0
DA:870,0
DA:871,0
DA:872,0
DA:874,0
DA:877,0
DA:878,0
DA:879,0
DA:880,0
DA:881,0
DA:884,0
DA:885,0
DA:886,0
DA:887,0
DA:888,0
DA:891,0
DA:892,0
DA:897,0
DA:899,0
DA:900,0
DA:906,0
DA:907,0
DA:908,0
DA:910,1
DA:911,1
DA:913,0
DA:915,0
DA:916,0
DA:917,0
DA:919,1
DA:920,1
DA:922,0
DA:924,0
DA:925,0
DA:929,0
DA:930,0
DA:931,0
DA:932,0
DA:935,0
DA:937,0
DA:938,0
DA:939,0
DA:943,0
DA:944,0
DA:948,0
DA:950,0
DA:951,0
DA:954,0
DA:955,0
DA:959,2
DA:960,2
DA:964,10
DA:965,10
DA:970,2
DA:971,2
DA:975,1
DA:976,1
DA:980,1
DA:981,1
DA:985,1
DA:986,1
DA:990,2
DA:991,2
DA:992,2
DA:996,0
DA:997,0
DA:1001,1
DA:1002,1
DA:1006,0
DA:1007,0
DA:1011,2
DA:1012,2
DA:1025,0
DA:1026,0
DA:1031,0
DA:1037,14
DA:1040,14
DA:1041,14
DA:1042,28
DA:1043,28
DA:1053,14
DA:1054,14
DA:1055,14
DA:1056,42
DA:1057,28
DA:1104,2
DA:1105,2
DA:1107,2
DA:1109,2
DA:1116,0
DA:1118,0
DA:1119,0
DA:1120,0
DA:1121,0
DA:1122,0
DA:1124,0
DA:1125,0
DA:1128,0
DA:1132,0
DA:1134,0
DA:1135,0
DA:1136,0
DA:1137,0
DA:1138,0
DA:1139,0
DA:1140,0
DA:1142,0
DA:1143,0
DA:1146,0
DA:1147,0
DA:1156,201
DA:1159,201
DA:1160,201
DA:1164,0
DA:1165,0
DA:1167,0
DA:1168,0
DA:1174,0
DA:1175,0
DA:1176,0
DA:1182,201
DA:1183,201
DA:1188,0
DA:1189,0
DA:1190,0
DA:1191,0
DA:1192,0
DA:1195,0
DA:1197,0
DA:1198,0
DA:1199,0
DA:1202,0
DA:1203,0
DA:1204,0
DA:1205,0
DA:1206,0
DA:1209,209
DA:1210,209
DA:1214,0
DA:1215,0
DA:1220,0
DA:1221,0
DA:1227,0
DA:1230,0
DA:1232,0
DA:1235,0
DA:1236,0
DA:1237,0
DA:1240,0
DA:1241,0
DA:1242,0
DA:1245,0
DA:1246,0
DA:1247,0
DA:1249,0
DA:1250,0
DA:1251,0
DA:1254,0
DA:1255,0
DA:1256,0
DA:1257,0
DA:1258,0
DA:1259,0
DA:1260,0
DA:1261,0
DA:1262,0
DA:1266,0
DA:1267,0
DA:1273,0
DA:1274,0
DA:1275,0
DA:1276,0
DA:1277,0
DA:1278,0
DA:1280,0
DA:1281,0
DA:1282,0
DA:1289,0
DA:1290,0
DA:1291,0
DA:1292,0
DA:1293,0
DA:1303,0
DA:1306,0
DA:1308,0
DA:1309,0
DA:1310,0
DA:1312,0
DA:1313,0
DA:1315,0
DA:1316,0
DA:1317,0
DA:1327,0
DA:1328,0
DA:1329,0
DA:1330,0
DA:1331,0
DA:1332,0
DA:1334,0
DA:1335,0
DA:1336,0
DA:1337,0
DA:1338,0
DA:1339,0
DA:1340,0
DA:1341,0
DA:1342,0
DA:1343,0
DA:1344,0
DA:1345,0
DA:1346,0
DA:1347,0
DA:1348,0
DA:1350,0
DA:1352,0
DA:1353,0
DA:1354,0
DA:1355,0
DA:1356,0
DA:1357,0
DA:1358,0
DA:1360,0
DA:1362,0
DA:1365,0
DA:1366,0
DA:1367,0
DA:1368,0
DA:1374,0
DA:1375,0
DA:1376,0
DA:1377,0
DA:1379,0
DA:1380,0
DA:1382,0
DA:1383,0
DA:1385,0
DA:1386,0
DA:1402,0
DA:1405,0
DA:1407,0
DA:1408,0
DA:1409,0
DA:1411,0
DA:1412,0
DA:1413,0
DA:1414,0
DA:1418,0
DA:1419,0
DA:1420,0
DA:1421,0
DA:1426,0
DA:1427,0
DA:1428,0
DA:1430,0
DA:1431,0
DA:1432,0
DA:1433,0
DA:1435,0
DA:1439,0
DA:1441,0
DA:1443,0
DA:1444,0
DA:1446,0
DA:1447,0
DA:1451,0
DA:1452,0
DA:1455,0
DA:1457,0
DA:1460,0
DA:1461,0
DA:1462,0
DA:1463,0
DA:1472,0
DA:1473,0
DA:1474,0
DA:1475,0
DA:1476,0
DA:1477,0
DA:1479,0
DA:1480,0
DA:1481,0
DA:1482,0
DA:1483,0
DA:1484,0
DA:1485,0
DA:1488,0
DA:1491,0
DA:1492,0
DA:1493,0
DA:1512,0
DA:1517,0
DA:1518,0
DA:1519,0
DA:1520,0
DA:1521,0
DA:1523,0
DA:1524,0
DA:1525,0
DA:1528,0
DA:1529,0
DA:1532,0
DA:1534,0
DA:1536,0
DA:1537,0
DA:1538,0
DA:1539,0
DA:1541,0
DA:1543,0
DA:1544,0
DA:1547,0
DA:1552,0
DA:1553,0
DA:1554,0
DA:1555,0
DA:1556,0
DA:1557,0
DA:1558,0
DA:1559,0
DA:1560,0
DA:1563,0
DA:1569,0
DA:1570,0
DA:1573,0
DA:1576,0
DA:1583,0
DA:1584,0
DA:1585,0
DA:1586,0
DA:1587,0
DA:1588,0
DA:1589,0
DA:1590,0
DA:1592,0
DA:1593,0
DA:1595,0
DA:1597,0
DA:1598,0
DA:1599,0
DA:1600,0
DA:1601,0
DA:1602,0
DA:1608,0
DA:1613,0
DA:1614,0
DA:1618,0
DA:1619,0
DA:1620,0
DA:1627,0
DA:1628,0
DA:1629,0
DA:1631,0
DA:1632,0
DA:1633,0
DA:1635,0
DA:1636,0
DA:1637,0
DA:1638,0
DA:1639,0
DA:1608,0
DA:1613,0
DA:1614,0
DA:1618,0
DA:1619,0
DA:1620,0
DA:1627,0
DA:1628,0
DA:1629,0
DA:1631,0
DA:1632,0
DA:1633,0
DA:1635,0
DA:1636,0
DA:1637,0
DA:1638,0
DA:1639,0
DA:1645,0
DA:1647,0
DA:1652,0
DA:1654,0
DA:1660,0
DA:1664,0
DA:1665,0
DA:1670,0
DA:1671,0
DA:1672,0
DA:1676,0
DA:1680,0
DA:1681,0
DA:1686,0
DA:1687,0
DA:1688,0
DA:1692,0
DA:1696,0
DA:1697,0
DA:1699,0
DA:1700,0
DA:1701,0
DA:1706,0
DA:1710,0
DA:1711,0
DA:1713,0
DA:1714,0
DA:1715,0
DA:1716,0
DA:1730,0
DA:1731,0
DA:1733,0
DA:1736,0
DA:1737,0
DA:1739,0
DA:1744,0
DA:1746,0
DA:1744,0
DA:1746,0
DA:1754,0
DA:1758,0
DA:1759,0
DA:1761,0
DA:1762,0
DA:1763,0
DA:1764,0
DA:1765,0
DA:1766,0
DA:1767,0
DA:1768,0
DA:1754,0
DA:1758,0
DA:1759,0
DA:1761,0
DA:1762,0
DA:1763,0
DA:1764,0
DA:1765,0
DA:1766,0
DA:1767,0
DA:1768,0
DA:1754,0
DA:1758,0
DA:1759,0
DA:1761,0
DA:1762,0
DA:1763,0
DA:1764,0
DA:1765,0
DA:1766,0
DA:1767,0
DA:1768,0
DA:1754,0
DA:1758,0
DA:1759,0
DA:1761,0
DA:1762,0
DA:1763,0
DA:1764,0
DA:1765,0
DA:1766,0
DA:1767,0
DA:1768,0
DA:1777,0
DA:1780,0
DA:1783,0
DA:1786,0
DA:1789,0
DA:1792,0
DA:1795,0
DA:1798,0
DA:1801,0
DA:1804,0
DA:1807,0
DA:1810,0
DA:1814,0
DA:1817,0
DA:1820,0
DA:1823,0
DA:1834,0
DA:1847,0
DA:1849,0
DA:1851,0
DA:1852,0
DA:1860,0
DA:1862,0
DA:1867,0
DA:1868,0
DA:1869,0
DA:1870,0
DA:1871,0
DA:1875,0
DA:1876,0
DA:1877,0
DA:1879,0
DA:1882,0
DA:1883,0
DA:1884,0
DA:1886,0
DA:1918,0
DA:1919,0
DA:1920,0
DA:1921,0
DA:1930,0
DA:1931,0
DA:1932,0
DA:1936,0
DA:1937,0
DA:1938,0
DA:1939,0
DA:1940,0
DA:1941,0
DA:1942,0
DA:1943,0
DA:1944,0
DA:1945,0
DA:1946,0
DA:1947,0
DA:1949,0
DA:1950,0
DA:1951,0
DA:1952,0
DA:1953,0
DA:1955,0
DA:1965,0
DA:1967,0
DA:1971,0
DA:1973,0
DA:1974,0
DA:1975,0
DA:1977,0
DA:1981,0
DA:1997,0
DA:1998,0
DA:1999,0
DA:2001,0
DA:2002,0
DA:2005,0
DA:2006,0
DA:2007,0
DA:2008,0
DA:2009,0
DA:2010,0
DA:2012,0
DA:2015,0
DA:2017,0
DA:2018,0
DA:2022,0
DA:2023,0
DA:2025,0
DA:2034,0
DA:2035,0
DA:2037,0
DA:2039,0
DA:2043,0
DA:2047,0
DA:2048,0
DA:2053,0
DA:2054,0
DA:2055,0
DA:2059,0
DA:2063,0
DA:2064,0
DA:2067,0
DA:2068,0
DA:2069,0
DA:2070,0
DA:2079,1
DA:2080,1
DA:2081,1
DA:2082,1
DA:2097,0
DA:2099,0
DA:2101,0
DA:2104,0
DA:2121,0
DA:2123,0
DA:2124,0
DA:2125,0
DA:2126,0
DA:2127,0
DA:2131,70
DA:2132,70
DA:2136,84
DA:2137,84
DA:2138,84
DA:2139,168
DA:2140,84
DA:2143,0
DA:2144,0
DA:2145,0
DA:2146,0
DA:2147,0
DA:2150,0
DA:2151,0
DA:2155,0
DA:2156,0
DA:2157,0
DA:2158,0
DA:2159,0
DA:2160,0
DA:2164,202
DA:2165,202
DA:2166,202
DA:2167,202
DA:2169,202
DA:2170,202
DA:2171,4363
DA:2172,4161
DA:2173,0
DA:2175,4161
DA:2179,202
DA:2180,202
DA:2183,0
DA:2186,0
DA:2187,0
DA:2188,0
DA:2190,0
DA:2191,0
DA:2193,0
DA:2194,0
DA:2201,14
DA:2202,14
DA:2205,0
DA:2206,0
DA:2211,0
DA:2212,0
DA:2213,0
DA:2214,0
DA:2220,0
DA:2221,0
DA:2222,0
DA:2223,0
DA:2227,0
DA:2228,0
DA:2229,0
DA:2232,0
DA:2233,0
DA:2234,0
DA:2239,0
DA:2241,0
DA:2242,0
DA:2244,0
DA:2246,0
DA:2247,0
DA:2248,0
DA:2249,0
DA:2250,0
DA:2252,0
DA:2253,0
DA:2286,54
DA:2287,108
DA:2286,39
DA:2287,78
DA:2290,0
DA:2292,0
DA:2293,0
DA:2294,0
DA:2295,0
DA:2296,0
DA:2297,0
DA:2299,0
DA:2302,0
DA:2306,93
DA:2308,93
DA:2309,7
DA:2310,86
DA:2311,32
DA:2312,54
DA:2313,54
DA:2315,0
DA:2318,0
DA:2321,0
DA:2322,0
DA:2323,0
DA:2324,0
DA:2325,0
DA:2327,0
DA:2328,0
DA:2330,0
DA:2332,0
DA:2333,0
DA:2335,0
DA:2338,0
DA:2339,0
DA:2340,0
DA:2341,0
DA:2342,0
DA:2343,0
DA:2345,0
DA:2350,0
DA:2352,0
DA:2353,0
DA:2357,13
DA:2358,13
DA:2359,13
DA:2360,13
DA:2361,13
DA:2362,13
DA:2365,0
DA:2366,0
DA:2370,64
DA:2371,64
DA:2375,138
DA:2376,138
DA:2377,0
DA:2378,0
DA:2380,138
DA:2384,0
DA:2385,0
DA:2389,19
DA:2390,19
DA:2394,0
DA:2395,0
DA:2399,0
DA:2400,0
DA:2405,147
DA:2406,147
DA:2410,14
DA:2411,14
DA:2419,9
DA:2420,9
DA:2421,9
DA:2426,0
DA:2427,0
DA:2426,9
DA:2427,9
DA:2432,0
DA:2433,0
DA:2438,0
DA:2439,0
DA:2442,0
DA:2443,0
DA:2444,0
DA:2447,0
DA:2448,0
DA:2449,0
DA:2450,0
DA:2451,0
DA:2455,0
DA:2459,0
DA:2465,0
DA:2474,9
DA:2475,9
DA:2476,9
DA:2479,9
DA:2480,9
DA:2481,9
DA:2484,9
DA:2485,9
DA:2486,9
DA:2488,9
DA:2490,0
DA:2492,0
DA:2494,0
DA:2501,0
DA:2503,0
DA:2506,0
DA:2507,0
DA:2508,0
DA:2509,0
DA:2510,0
DA:2511,0
DA:2512,0
DA:2513,0
DA:2514,0
DA:2515,0
DA:2518,0
DA:2519,0
DA:2520,0
DA:2521,0
DA:2522,0
DA:2523,0
DA:2524,0
DA:2525,0
DA:2526,0
DA:2527,0
DA:2529,0
DA:2532,9
DA:2557,0
DA:2559,0
DA:2560,0
DA:2561,0
DA:2563,0
DA:2565,0
DA:2567,0
DA:2568,0
DA:2573,0
DA:2574,0
DA:2575,0
DA:2588,1
DA:2607,1
DA:2588,8
DA:2607,8
DA:2588,9
DA:2607,9
DA:2588,36
DA:2607,36
DA:2615,1
DA:2640,1
DA:2643,1
DA:2644,0
DA:2646,0
DA:2650,0
DA:2651,0
DA:2652,0
DA:2654,0
DA:2655,0
DA:2656,0
DA:2658,0
DA:2660,0
DA:2665,0
DA:2615,8
DA:2640,8
DA:2643,8
DA:2644,0
DA:2646,0
DA:2650,0
DA:2651,0
DA:2652,0
DA:2654,0
DA:2655,0
DA:2656,0
DA:2658,0
DA:2660,0
DA:2665,0
DA:2615,9
DA:2640,9
DA:2643,9
DA:2644,0
DA:2646,0
DA:2650,0
DA:2651,0
DA:2652,0
DA:2654,0
DA:2655,0
DA:2656,0
DA:2658,0
DA:2660,0
DA:2665,0
DA:2615,36
DA:2640,36
DA:2643,36
DA:2644,0
DA:2646,0
DA:2650,0
DA:2651,0
DA:2652,0
DA:2654,0
DA:2655,0
DA:2656,0
DA:2658,0
DA:2660,0
DA:2665,0
DA:2672,9
DA:2673,9
DA:2675,9
DA:2676,9
DA:2677,9
DA:2680,9
DA:2681,9
DA:2682,9
DA:2689,9
DA:2690,9
DA:2695,19
DA:2696,19
DA:2700,0
DA:2702,0
DA:2706,19
DA:2707,19
DA:2714,9
DA:2719,9
DA:2720,9
DA:2721,9
DA:2722,9
DA:2723,9
DA:2724,9
DA:2725,9
DA:2726,9
DA:2727,9
DA:2728,9
DA:2729,9
DA:2730,9
DA:2731,9
DA:2734,0
DA:2756,9
DA:2763,45
DA:2764,9
DA:2765,9
DA:2768,0
DA:2770,0
DA:2772,0
DA:2773,0
DA:2774,0
DA:2775,0
DA:2776,0
DA:2777,0
DA:2778,0
DA:2779,0
DA:2781,0
DA:2783,0
DA:2784,0
DA:2821,1
DA:2822,1
DA:2823,1
DA:2824,1
DA:2825,1
DA:2827,1
DA:2833,9
DA:2834,9
DA:2837,9
DA:2838,9
DA:2840,9
DA:2843,9
DA:2845,9
DA:2846,9
DA:2848,9
DA:2851,18
DA:2852,9
DA:2858,9
DA:2861,9
DA:2864,9
DA:2866,9
DA:2867,9
DA:2871,9
DA:2874,9
DA:2878,9
DA:2882,0
DA:2883,0
DA:2885,0
DA:2886,0
DA:2888,0
DA:2891,0
DA:2894,0
DA:2895,0
DA:2899,0
DA:2900,0
DA:2901,0
DA:2906,4
DA:2907,4
DA:2911,8
DA:2912,8
DA:2916,16
DA:2917,16
DA:2921,12
DA:2922,12
DA:2926,0
DA:2927,0
DA:2931,12
DA:2932,12
DA:2936,16
DA:2937,16
DA:2941,26
DA:2942,26
DA:2954,4
DA:2956,4
DA:2957,4
DA:2958,4
DA:2959,4
DA:2960,4
DA:2961,4
DA:2962,4
DA:2963,8
DA:2966,0
DA:2969,0
DA:2966,0
DA:2968,0
DA:2969,0
DA:2973,18
DA:2974,18
DA:2975,18
DA:2980,9
DA:2981,9
DA:2982,9
DA:2987,9
DA:2988,9
DA:2989,9
DA:2990,9
DA:2993,4
DA:2994,4
DA:2996,4
DA:2997,4
DA:2999,4
DA:3002,4
DA:3005,4
DA:3008,4
DA:3009,4
DA:3012,4
DA:3013,4
DA:3014,13
DA:3015,9
DA:3016,9
DA:3017,0
DA:3018,0
DA:3020,0
DA:3023,4
DA:3025,4
DA:3026,4
DA:3030,4
DA:3033,4
DA:3036,4
DA:3040,0
DA:3041,0
DA:3043,0
DA:3044,0
DA:3046,0
DA:3049,0
DA:3052,0
DA:3055,0
DA:3056,0
DA:3060,0
DA:3063,0
DA:3066,0
DA:3070,4
DA:3071,4
DA:3072,4
DA:3073,4
DA:3076,0
DA:3077,0
DA:3078,0
DA:3081,4
DA:3082,13
DA:3083,9
DA:3085,4
DA:3092,13
DA:3095,26
DA:3096,39
DA:3100,3
DA:3101,3
DA:3105,2
DA:3106,2
DA:3113,0
DA:3114,0
DA:3115,0
DA:3116,0
DA:3117,0
DA:3118,0
DA:3120,0
DA:3125,0
DA:3127,0
DA:3128,0
DA:3138,0
DA:3140,0
DA:3141,0
DA:3142,0
DA:3143,0
DA:3144,0
DA:3148,0
DA:3150,0
DA:3151,0
DA:3152,0
DA:3161,0
DA:3162,0
DA:3164,0
DA:3218,0
DA:3219,0
DA:3220,0
DA:3221,0
DA:3222,0
DA:3223,0
DA:3224,0
DA:3225,0
DA:3226,0
DA:3227,0
DA:3234,1
DA:3235,1
DA:3237,1
DA:3244,1
DA:3246,1
DA:3247,0
DA:3248,0
DA:3249,0
DA:3250,0
DA:3251,0
DA:3252,0
DA:3253,0
DA:3254,0
DA:3255,1
DA:3256,0
DA:3257,1
DA:3261,0
DA:3262,0
DA:3263,0
DA:3264,0
DA:3276,31
DA:3278,31
DA:3285,31
DA:3286,31
DA:3289,31
DA:3290,31
DA:3291,31
DA:3292,31
DA:3317,0
DA:3318,0
DA:3319,0
DA:3321,0
DA:3329,0
DA:3330,0
DA:3331,0
DA:3333,0
DA:3334,0
DA:3335,0
DA:3336,0
DA:3337,0
DA:3339,0
DA:3340,0
DA:3343,0
DA:3350,1
DA:3351,18
DA:3352,18
DA:3353,18
DA:3356,1
DA:3359,1
DA:3377,1
DA:3379,1
DA:3388,1
DA:3390,1
DA:3391,0
DA:3393,1
DA:3397,1
DA:3398,0
DA:3402,1
DA:3403,0
DA:3404,0
DA:3409,1
DA:3410,0
DA:3415,1
DA:3416,2
DA:3417,2
DA:3418,2
DA:3419,1
DA:3420,1
DA:3422,1
DA:3424,1
DA:3425,1
DA:3426,1
DA:3427,1
DA:3430,4
DA:3432,4
DA:3433,4
DA:3434,4
DA:3435,4
DA:3436,4
DA:3438,0
DA:3440,4
DA:3441,4
DA:3458,9
DA:3459,9
DA:3460,9
DA:3461,9
DA:3462,9
DA:3463,9
DA:3466,0
DA:3468,0
DA:3470,0
DA:3471,0
DA:3472,0
DA:3475,0
DA:3476,0
DA:3480,9
DA:3481,9
DA:3482,9
DA:3483,0
DA:3484,0
DA:3486,0
DA:3488,9
DA:3489,9
DA:3490,0
DA:3492,9
DA:3493,9
DA:3494,18
DA:3496,0
DA:3498,9
DA:3499,9
DA:3502,4
DA:3503,4
DA:3506,4
DA:3507,4
DA:3508,4
DA:3509,8
DA:3510,4
DA:3511,4
DA:3525,1
DA:3527,1
DA:3528,1
DA:3529,1
DA:3530,1
DA:3533,0
DA:3534,0
DA:3535,0
DA:3536,0
DA:3538,0
DA:3539,0
DA:3540,0
DA:3541,0
DA:3543,0
DA:3544,0
DA:3545,0
DA:3546,0
DA:3548,0
DA:3549,0
DA:3550,0
DA:3551,0
DA:3554,0
DA:3556,0
DA:3560,0
DA:3562,0
DA:3563,0
DA:3564,0
DA:3565,0
DA:3566,0
DA:3568,0
DA:3569,0
DA:3570,0
DA:3571,0
DA:3574,0
DA:3575,0
DA:3578,0
DA:3581,0
DA:3582,0
DA:3583,0
DA:3584,0
DA:3587,0
DA:3588,0
DA:3589,0
DA:3590,0
DA:3592,0
DA:3593,0
DA:3594,0
DA:3595,0
DA:3597,0
DA:3598,0
DA:3599,0
DA:3604,1
DA:3606,1
DA:3607,2
DA:3608,2
DA:3609,2
DA:3610,1
DA:3611,1
DA:3612,2
DA:3614,1
DA:3615,1
DA:3616,1
DA:3618,1
DA:3619,1
DA:3620,0
DA:3621,0
DA:3622,0
DA:3625,1
DA:3626,0
DA:3627,0
DA:3630,1
DA:3631,1
DA:3632,0
DA:3633,0
DA:3635,0
DA:3639,1
DA:3640,1
DA:3649,0
DA:3650,0
DA:3651,0
DA:3652,0
DA:3655,0
DA:3656,0
DA:3657,0
DA:3658,0
DA:3659,0
DA:3661,0
DA:3666,0
DA:3671,0
DA:3676,0
DA:3677,0
DA:3679,0
DA:3683,0
DA:3685,0
DA:3687,0
DA:3688,0
DA:3689,0
DA:3692,0
DA:3693,0
DA:3697,0
DA:3698,0
DA:3699,0
DA:3700,0
DA:3701,0
DA:3703,0
DA:3704,0
DA:3705,0
DA:3708,0
DA:3710,0
DA:3712,0
DA:3714,0
DA:3716,0
DA:3717,0
DA:3718,0
DA:3719,0
DA:3720,0
DA:3721,0
DA:3722,0
DA:3724,0
DA:3725,0
DA:3726,0
DA:3728,0
DA:3729,0
DA:3730,0
DA:3731,0
DA:3734,0
DA:3735,0
DA:3736,0
DA:3737,0
DA:3739,0
DA:3743,0
DA:3744,0
DA:3753,1
DA:3760,0
DA:3761,0
DA:3795,0
DA:3797,0
DA:3795,0
DA:3796,0
DA:3797,0
DA:3799,2
DA:3800,2
DA:3801,2
DA:3803,2
DA:3804,3
DA:3805,1
DA:3806,0
DA:3807,0
DA:3811,2
DA:3835,3
DA:3836,3
DA:3839,12
DA:3841,12
DA:3842,27
DA:3843,0
DA:3844,3
DA:3845,3
DA:3846,3
DA:3847,27
DA:3850,12
DA:3852,12
DA:3853,3
DA:3858,1
DA:3860,1
DA:3861,3
DA:3862,2
DA:3865,1
DA:3867,1
DA:3869,1
DA:3870,3
DA:3871,2
DA:3874,1
DA:3893,1890
DA:3894,1890
DA:3898,945
DA:3899,945
DA:3912,93
DA:3913,93
DA:3972,1
DA:3973,2
DA:3974,1
DA:3975,0
DA:3977,1
DA:3980,1
DA:3982,1
DA:3983,1
DA:3984,1
DA:3985,1
DA:3986,1
DA:3987,1
DA:3989,0
DA:3991,0
DA:3992,0
DA:3993,0
DA:3994,0
DA:3995,0
DA:3996,0
DA:4008,93
DA:4010,93
DA:4012,1038
DA:4013,945
DA:4014,945
DA:4015,0
DA:4016,0
DA:4017,0
DA:4018,0
DA:4019,0
DA:4020,0
DA:4021,0
DA:4022,0
DA:4023,0
DA:4024,0
DA:4025,0
DA:4026,0
DA:4028,0
DA:4029,0
DA:4030,0
DA:4031,0
DA:4032,0
DA:4034,0
DA:4035,0
DA:4036,945
DA:4037,945
DA:4038,945
DA:4039,0
DA:4040,0
DA:4042,945
DA:4044,945
DA:4048,186
DA:4049,93
DA:4054,0
DA:4056,0
DA:4057,0
DA:4058,0
DA:4059,0
DA:4060,0
DA:4062,0
DA:4063,0
DA:4083,14
DA:4084,14
DA:4085,14
DA:4086,28
DA:4087,14
DA:4089,14
DA:4095,14
DA:4096,14
DA:4097,14
DA:4098,14
DA:4110,14
DA:4112,14
DA:4113,0
DA:4115,28
DA:4116,56
DA:4117,56
DA:4118,56
DA:4119,56
DA:4120,56
DA:4121,42
DA:4125,0
DA:4127,0
DA:4128,0
DA:4130,0
DA:4131,0
DA:4132,0
DA:4133,0
DA:4134,0
DA:4135,0
DA:4137,0
DA:4138,0
DA:4140,0
DA:4141,0
DA:4142,0
DA:4144,93
DA:4150,93
DA:4152,93
DA:4155,0
DA:4157,93
DA:4158,93
DA:4161,0
DA:4164,0
DA:4165,0
DA:4166,0
DA:4167,0
DA:4168,0
DA:4169,0
DA:4170,0
DA:4171,0
DA:4172,0
DA:4173,0
DA:4175,0
DA:4176,0
DA:4179,0
DA:4180,0
DA:4181,0
DA:4182,0
DA:4183,0
DA:4184,0
DA:4185,0
DA:4186,0
DA:4188,0
DA:4191,0
DA:4194,0
DA:4195,0
DA:4198,9
DA:4201,9
DA:4202,9
DA:4204,9
DA:4205,0
DA:4208,9
DA:4209,27
DA:4211,9
DA:4212,0
DA:4215,9
DA:4216,0
DA:4219,9
DA:4220,0
DA:4221,0
DA:4222,0
DA:4223,0
DA:4224,0
DA:4227,36
DA:4228,9
DA:4229,36
DA:4230,9
DA:4231,9
DA:4233,9
DA:4234,18
DA:4235,9
DA:4237,18
DA:4238,27
DA:4240,9
DA:4241,9
DA:4243,9
DA:4245,9
DA:4246,9
DA:4247,9
DA:4248,0
DA:4249,0
DA:4250,0
DA:4251,0
DA:4255,0
DA:4256,0
DA:4258,0
DA:4259,0
DA:4260,0
DA:4261,0
DA:4262,0
DA:4263,0
DA:4264,0
DA:4265,0
DA:4269,0
DA:4270,0
DA:4272,0
DA:4273,0
DA:4274,0
DA:4275,0
DA:4276,0
DA:4279,9
DA:4280,9
DA:4282,0
DA:4283,0
DA:4285,0
DA:4286,0
DA:4288,9
DA:4291,4
DA:4293,4
DA:4294,4
DA:4295,12
DA:4296,4
DA:4297,8
DA:4298,4
DA:4299,4
DA:4300,8
DA:4301,4
DA:4303,8
DA:4304,4
DA:4305,8
DA:4307,12
DA:4309,4
DA:4310,8
DA:4311,4
DA:4313,8
DA:4314,4
DA:4316,4
DA:4317,13
DA:4318,9
DA:4319,9
DA:4321,4
DA:4322,4
DA:4325,1
DA:4327,1
DA:4329,1
DA:4330,1
DA:4332,1
DA:4333,2
DA:4334,1
DA:4335,2
DA:4336,1
DA:4338,2
DA:4339,3
DA:4340,1
DA:4341,2
DA:4342,1
DA:4344,2
DA:4346,1
DA:4347,0
DA:4348,0
DA:4350,1
DA:4352,3
DA:4353,1
DA:4355,5
DA:4356,4
DA:4357,4
DA:4362,1
DA:4363,0
DA:4366,1
DA:4367,1
DA:4369,0
DA:4371,0
DA:4373,0
DA:4374,0
DA:4376,0
DA:4377,0
DA:4378,0
DA:4380,0
DA:4381,0
DA:4382,0
DA:4383,0
DA:4385,0
DA:4386,0
DA:4388,0
DA:4389,0
DA:4393,5
DA:4395,5
DA:4396,5
DA:4397,0
DA:4398,0
DA:4399,0
DA:4401,10
DA:4402,5
DA:4404,0
DA:4406,0
DA:4407,0
DA:4409,0
DA:4410,0
DA:4413,0
DA:4414,0
DA:4415,0
DA:4416,0
DA:4417,0
DA:4418,0
DA:4419,0
DA:4421,0
DA:4422,0
DA:4491,0
DA:4492,0
DA:4493,0
DA:4494,0
DA:4496,0
DA:4498,0
DA:4500,0
DA:4501,0
DA:4502,0
DA:4503,0
DA:4504,0
DA:4505,0
DA:4508,0
DA:4509,0
DA:4511,0
DA:4512,0
DA:4513,0
DA:4514,0
DA:4517,0
DA:4518,0
DA:4519,0
DA:4520,0
DA:4521,0
DA:4522,0
DA:4523,0
DA:4524,0
DA:4525,0
DA:4526,0
DA:4527,0
DA:4528,0
DA:4529,0
DA:4530,0
DA:4531,0
DA:4532,0
DA:4533,0
DA:4534,0
DA:4535,0
DA:4536,0
DA:4538,0
DA:4540,0
DA:4544,0
DA:4545,0
DA:4551,0
DA:4552,0
DA:4553,0
DA:4554,0
DA:4555,0
DA:4559,0
DA:4561,0
DA:4562,0
DA:4564,0
DA:4565,0
DA:4566,0
DA:4567,0
DA:4568,0
DA:4569,0
DA:4572,0
DA:4573,0
DA:4576,0
DA:4584,0
DA:4586,0
DA:4589,0
DA:4591,0
DA:4592,0
DA:4593,0
DA:4594,0
DA:4596,0
DA:4604,0
DA:4606,0
DA:4609,0
DA:4611,0
DA:4612,0
DA:4613,0
DA:4614,0
DA:4617,0
DA:4620,0
DA:4621,0
DA:4622,0
DA:4623,0
DA:4624,0
DA:4625,0
DA:4626,0
DA:4627,0
DA:4628,0
DA:4629,0
DA:4630,0
DA:4631,0
DA:4632,0
DA:4633,0
DA:4635,0
DA:4638,0
DA:4639,0
DA:4640,0
DA:4641,0
DA:4642,0
DA:4643,0
DA:4644,0
DA:4645,0
DA:4646,0
DA:4647,0
DA:4648,0
DA:4649,0
DA:4652,0
DA:4655,0
DA:4656,0
DA:4659,0
DA:4662,0
DA:4663,0
DA:4664,0
DA:4666,0
DA:4667,0
DA:4669,0
DA:4670,0
DA:4673,0
DA:4674,0
DA:4677,0
DA:4678,0
DA:4679,0
DA:4680,0
DA:4681,0
DA:4684,0
DA:4685,0
DA:4686,0
DA:4687,0
DA:4688,0
DA:4691,0
DA:4692,0
DA:4694,0
DA:4695,0
DA:4696,0
DA:4698,0
DA:4700,0
DA:4701,0
DA:4703,0
DA:4705,0
DA:4707,0
DA:4708,0
DA:4709,0
DA:4710,0
DA:4711,0
DA:4712,0
DA:4713,0
DA:4717,0
DA:4718,0
DA:4722,0
DA:4723,0
DA:4726,0
DA:4727,0
DA:4728,0
DA:4729,0
DA:4732,0
DA:4734,0
DA:4735,0
DA:4737,0
DA:4738,0
DA:4739,0
DA:4741,0
DA:4742,0
DA:4744,0
DA:4746,0
DA:4747,0
DA:4749,0
DA:4751,0
DA:4752,0
DA:4754,0
DA:4755,0
DA:4758,0
DA:4760,0
DA:4761,0
DA:4762,0
DA:4763,0
DA:4764,0
DA:4766,0
DA:4768,0
DA:4771,0
DA:4772,0
DA:4775,0
DA:4777,0
DA:4778,0
DA:4779,0
DA:4781,0
DA:4783,0
DA:4785,0
DA:4787,0
DA:4788,0
DA:4789,0
DA:4792,0
DA:4793,0
DA:4795,0
DA:4796,0
DA:4799,0
DA:4800,0
DA:4802,0
DA:4803,0
DA:4805,0
DA:4806,0
DA:4807,0
DA:4808,0
DA:4809,0
DA:4811,0
DA:4813,0
DA:4819,0
DA:4820,0
DA:4823,0
DA:4824,0
DA:4826,0
DA:4828,0
DA:4829,0
DA:4830,0
DA:4831,0
DA:4832,0
DA:4833,0
DA:4835,0
DA:4837,0
DA:4838,0
DA:4840,0
DA:4841,0
DA:4842,0
DA:4844,0
DA:4849,0
DA:4850,0
DA:4853,0
DA:4855,0
DA:4856,0
DA:4857,0
DA:4858,0
DA:4859,0
DA:4861,0
DA:4862,0
DA:4941,0
DA:4987,0
DA:4991,53
DA:5001,53
DA:5007,1
DA:5008,2
DA:5011,1
DA:5015,0
DA:5016,0
DA:5017,0
DA:5019,1
DA:5021,2
DA:5023,1
DA:5024,0
DA:5025,0
DA:5026,0
DA:5027,0
DA:5028,0
DA:5032,1
DA:5044,1
DA:5045,1
DA:5046,1
DA:5047,1
DA:5049,0
DA:5055,2
DA:5056,2
DA:5057,2
DA:5062,2
DA:5063,2
DA:5064,1
DA:5065,1
DA:5066,1
DA:5067,2
DA:5072,14
DA:5079,1
DA:5080,1
DA:5083,1
DA:5084,1
DA:5085,1
DA:5087,1
DA:5094,1
DA:5095,1
DA:5098,1
DA:5099,1
DA:5100,1
DA:5102,1
DA:5106,0
DA:5107,0
DA:5110,0
DA:5111,0
DA:5112,0
DA:5123,149
DA:5132,149
DA:5133,149
DA:5138,0
DA:5139,0
DA:5143,0
DA:5144,0
DA:5148,5
DA:5149,5
DA:5154,2
DA:5155,2
DA:5160,0
DA:5161,0
DA:5163,0
DA:5164,0
DA:5166,0
DA:5167,0
DA:5169,0
DA:5170,0
DA:5175,1
DA:5176,1
DA:5180,1
DA:5181,1
DA:5185,1
DA:5188,2
DA:5189,2
DA:5193,0
DA:5194,0
DA:5198,1
DA:5199,1
DA:5203,0
DA:5206,2
DA:5210,1
DA:5211,1
DA:5215,2
DA:5216,2
DA:5221,1
DA:5225,0
DA:5229,8
DA:5230,8
DA:5235,0
DA:5236,0
DA:5242,2
DA:5243,2
DA:5248,0
DA:5249,0
DA:5254,13
DA:5255,13
DA:5268,0
DA:5269,0
DA:5270,0
DA:5273,0
DA:5274,0
DA:5281,0
DA:5287,0
DA:5288,0
DA:5290,0
DA:5291,0
DA:5292,0
DA:5294,0
DA:5295,0
DA:5296,0
DA:5297,0
DA:5301,0
DA:5302,0
DA:5306,0
DA:5307,0
DA:5308,0
DA:5310,0
DA:5317,0
DA:5322,0
DA:5334,0
DA:5336,0
DA:5344,0
DA:5351,0
DA:5353,0
DA:5354,0
DA:5361,1
DA:5363,1
DA:5389,1
DA:5393,1
DA:5400,1
DA:5403,1
DA:5411,1
DA:5438,1
DA:5441,2
DA:5442,1
DA:5446,1
DA:5447,1
DA:5452,0
DA:5454,0
DA:5455,0
DA:5456,0
DA:5460,0
DA:5462,0
DA:5463,0
DA:5464,0
DA:5469,0
DA:5471,0
DA:5472,0
DA:5473,0
DA:5476,0
DA:5481,0
DA:5482,0
DA:5486,1
DA:5487,1
DA:5488,1
DA:5491,0
DA:5493,0
DA:5491,0
DA:5492,0
DA:5493,0
DA:5497,0
DA:5499,0
DA:5500,0
DA:5501,0
DA:5504,0
DA:5506,0
DA:5507,0
DA:5508,0
DA:5512,1
DA:5513,1
DA:5515,1
DA:5516,1
DA:5517,1
DA:5519,1
DA:5521,1
DA:5522,1
DA:5523,1
DA:5524,1
DA:5525,1
DA:5526,1
DA:5527,1
DA:5528,1
DA:5529,1
DA:5530,1
DA:5531,1
DA:5532,1
DA:5534,1
DA:5537,7
DA:5538,1
DA:5539,1
DA:5541,0
DA:5549,0
DA:5541,0
DA:5543,0
DA:5546,0
DA:5548,0
DA:5549,0
DA:5556,0
DA:5557,0
DA:5560,0
DA:5561,0
DA:5562,0
DA:5563,0
DA:5564,0
DA:5565,0
DA:5567,0
DA:5568,0
DA:5570,0
DA:5571,0
DA:5576,1
DA:5577,1
DA:5578,0
DA:5579,1
DA:5584,1
DA:5585,1
DA:5586,1
DA:5587,2
DA:5588,2
DA:5589,0
DA:5590,0
DA:5591,0
DA:5592,0
DA:5593,0
DA:5594,0
DA:5596,1
DA:5621,2
DA:5623,2
DA:5624,1
DA:5632,1
DA:5633,1
DA:5639,1
DA:5643,1
DA:5645,1
DA:5646,0
DA:5661,2
DA:5674,9
DA:5677,11
DA:5678,22
DA:5679,22
DA:5698,9
DA:5704,9
DA:5705,18
DA:5707,9
DA:5711,4
DA:5714,8
DA:5720,0
DA:5721,0
DA:5725,4
DA:5728,4
DA:5729,4
DA:5734,0
DA:5735,0
DA:5746,1
DA:5749,1
DA:5752,1
DA:5753,0
DA:5757,1
DA:5762,1
DA:5766,1
DA:5769,1
DA:5770,1
DA:5778,1
DA:5783,1
DA:5785,1
DA:5788,1
DA:5790,0
DA:5791,0
DA:5794,1
DA:5795,0
DA:5798,1
DA:5800,1
DA:5802,1
DA:5803,1
DA:5807,1
DA:5809,1
DA:5810,2
DA:5813,1
DA:5815,1
DA:5818,1
DA:5819,0
DA:5823,0
DA:5827,1
DA:5830,1
DA:5832,1
DA:5833,1
DA:5834,1
DA:5838,1
DA:5842,0
DA:5843,0
DA:5845,0
DA:5846,0
DA:5847,0
DA:5848,0
DA:5849,0
DA:5851,0
DA:5852,1
DA:5853,5
DA:5855,4
DA:5856,4
DA:5857,0
DA:5858,0
DA:5859,0
DA:5861,0
DA:5864,0
DA:5868,0
DA:5870,0
DA:5875,1
DA:5876,1
DA:5878,1
DA:5881,1
DA:5884,1
DA:5887,1
DA:5888,0
DA:5897,1
DA:5899,1
DA:5901,0
DA:5905,1
DA:5907,1
DA:5908,0
DA:5921,1
DA:5928,1
DA:5929,1
DA:5930,1
DA:5931,0
DA:5932,0
DA:5933,0
DA:5937,0
DA:5938,0
DA:5940,0
DA:5942,1
DA:5950,2
DA:5953,2
DA:5954,0
DA:5957,2
DA:5958,2
DA:5960,2
DA:5961,2
DA:5962,0
DA:5963,0
DA:5964,0
DA:5965,0
DA:5966,0
DA:5967,0
DA:5968,0
DA:5969,0
DA:5970,0
DA:5971,0
DA:5972,0
DA:5973,0
DA:5974,0
DA:5975,0
DA:5976,0
DA:5977,0
DA:5978,0
DA:5979,0
DA:5980,0
DA:5981,0
DA:5982,0
DA:5983,0
DA:5984,0
DA:5985,0
DA:5986,0
DA:5987,0
DA:5989,0
DA:5995,4
DA:5996,4
DA:5997,4
DA:5998,4
DA:6002,0
DA:6004,0
DA:6006,0
DA:6013,0
DA:6014,0
DA:6024,1
DA:6025,1
DA:6026,0
DA:6027,1
DA:6028,0
DA:6034,1
DA:6035,1
DA:6036,5
DA:6037,4
DA:6038,4
DA:6040,13
DA:6041,9
DA:6042,9
DA:6045,9
DA:6046,18
DA:6047,9
DA:6048,9
DA:6049,9
DA:6051,9
DA:6053,9
DA:6055,9
DA:6056,9
DA:6060,9
DA:6061,0
DA:6062,9
DA:6063,9
DA:6065,9
DA:6066,9
DA:6068,9
DA:6069,9
DA:6070,9
DA:6071,4
DA:6072,1
DA:6079,0
DA:6080,0
DA:6081,0
DA:6082,0
DA:6083,0
DA:6084,0
DA:6086,0
DA:6087,0
DA:6088,0
DA:6090,0
DA:6091,0
DA:6095,0
DA:6098,0
DA:6100,0
DA:6102,0
DA:6103,0
DA:6105,0
DA:6106,0
DA:6107,0
DA:6108,0
DA:6109,0
DA:6110,0
DA:6111,0
DA:6112,0
DA:6115,0
DA:6117,0
DA:6119,0
DA:6120,0
DA:6121,0
DA:6124,0
DA:6126,0
DA:6130,0
DA:6131,0
DA:6132,0
DA:6133,0
DA:6134,0
DA:6135,0
DA:6136,0
DA:6138,0
DA:6139,0
DA:6140,0
DA:6142,0
DA:6143,0
DA:6145,0
DA:6146,0
DA:6147,0
DA:6148,0
DA:6155,0
DA:6157,0
DA:6158,0
DA:6159,0
DA:6161,0
DA:6166,53
DA:6167,53
DA:6171,1
DA:6175,53
DA:6179,38
DA:6180,38
DA:6181,36
DA:6183,2
DA:6184,0
DA:6186,2
DA:6191,0
DA:6193,0
DA:6196,0
DA:6197,0
DA:6200,0
DA:6201,0
DA:6203,0
DA:6206,1
DA:6207,5
DA:6209,4
DA:6211,4
DA:6213,1
DA:6225,0
DA:6229,0
DA:6238,114
DA:6240,2
DA:6244,2
DA:6245,0
DA:6247,2
DA:6253,0
DA:6254,0
DA:6255,0
DA:6256,0
DA:6257,0
DA:6259,0
DA:6267,11
DA:6270,11
DA:6273,11
DA:6274,11
DA:6275,11
DA:6278,1
DA:6281,1
DA:6282,0
DA:6288,1
DA:6291,1
DA:6292,11
DA:6304,6
DA:6306,6
DA:6309,6
DA:6312,0
DA:6313,0
DA:6320,0
DA:6322,0
DA:6325,0
DA:6328,0
DA:6329,0
DA:6337,5
DA:6339,5
DA:6342,5
DA:6345,1
DA:6346,1
DA:6355,0
DA:6356,0
DA:6357,0
DA:6358,0
DA:6359,0
DA:6360,0
DA:6361,0
DA:6373,0
DA:6374,0
DA:6381,0
DA:6382,0
DA:6383,0
DA:6384,0
DA:6387,0
DA:6389,0
DA:6390,0
DA:6391,0
DA:6392,0
DA:6393,0
DA:6394,0
DA:6395,0
DA:6396,0
DA:6397,0
DA:6398,0
DA:6399,0
DA:6400,0
DA:6402,0
DA:6404,0
DA:6499,1
DA:6500,1
DA:6501,1
DA:6502,1
DA:6503,1
DA:6504,1
DA:6505,1
DA:6506,1
DA:6507,1
DA:6508,1
DA:6509,1
DA:6510,1
DA:6511,1
DA:6512,1
DA:6513,1
DA:6514,1
DA:6515,1
DA:6516,1
DA:6517,0
DA:6518,0
DA:6519,0
DA:6520,0
DA:6521,0
DA:6522,0
DA:6523,0
DA:6524,0
DA:6525,0
DA:6526,2
DA:6527,1
DA:6531,0
DA:6532,0
DA:6533,0
DA:6534,0
DA:6535,0
DA:6537,0
DA:6538,0
DA:6539,0
DA:6540,0
DA:6541,0
DA:6542,0
DA:6543,0
DA:6544,0
DA:6545,0
DA:6547,0
DA:6554,0
DA:6555,0
DA:6556,0
DA:6557,0
DA:6563,0
DA:6564,0
DA:6565,0
DA:6567,0
DA:6568,0
DA:6569,0
DA:6571,0
DA:6572,0
DA:6573,0
DA:6576,0
DA:6579,0
DA:6584,0
DA:6585,0
DA:6589,0
DA:6593,0
DA:6597,0
DA:6601,0
DA:6603,0
DA:6554,1
DA:6555,2
DA:6556,1
DA:6557,1
DA:6563,1
DA:6564,1
DA:6565,1
DA:6567,0
DA:6568,0
DA:6569,0
DA:6571,0
DA:6572,0
DA:6573,0
DA:6576,0
DA:6579,1
DA:6584,2
DA:6585,1
DA:6589,1
DA:6593,1
DA:6597,1
DA:6601,0
DA:6603,1
DA:6607,1
DA:6608,1
DA:6620,1
DA:6621,0
DA:6622,0
DA:6623,0
DA:6630,0
DA:6632,0
DA:6634,0
DA:6636,0
DA:6637,0
DA:6638,0
DA:6645,0
DA:6646,0
DA:6630,1
DA:6632,1
DA:6634,1
DA:6636,1
DA:6637,3
DA:6638,2
DA:6645,1
DA:6646,1
DA:6660,1
DA:6664,1
DA:6666,1
DA:6670,0
DA:6674,0
DA:6676,0
DA:6680,0
DA:6682,0
DA:6683,0
DA:6684,0
DA:6685,0
DA:6690,0
DA:6692,0
DA:6694,0
DA:6700,0
DA:6701,0
DA:6702,0
DA:6703,0
DA:6704,0
DA:6706,0
DA:6731,0
DA:6732,0
DA:6733,0
DA:6734,0
DA:6735,0
DA:6737,0
DA:6738,0
DA:6741,0
DA:6743,0
DA:6744,0
LF:2795
LH:923
end_of_record
SF:C:\msys64\mingw64\include\c++\14.1.0\bits\stl_algo.h
FN:1054,_ZSt9__reverseIN9__gnu_cxx17__normal_iteratorIPN7testing8internal13edit_distance8EditTypeESt6vectorIS5_SaIS5_EEEEEvT_SB_St26random_access_iterator_tag
FNDA:0,_ZSt9__reverseIN9__gnu_cxx17__normal_iteratorIPN7testing8internal13edit_distance8EditTypeESt6vectorIS5_SaIS5_EEEEEvT_SB_St26random_access_iterator_tag
FN:1083,_ZSt7reverseIN9__gnu_cxx17__normal_iteratorIPN7testing8internal13edit_distance8EditTypeESt6vectorIS5_SaIS5_EEEEEvT_SB_
FNDA:0,_ZSt7reverseIN9__gnu_cxx17__normal_iteratorIPN7testing8internal13edit_distance8EditTypeESt6vectorIS5_SaIS5_EEEEEvT_SB_
FN:3779,_ZSt8for_eachIN9__gnu_cxx17__normal_iteratorIPKPN7testing11EnvironmentESt6vectorIS4_SaIS4_EEEEPFvS4_EET0_T_SE_SD_
FNDA:1,_ZSt8for_eachIN9__gnu_cxx17__normal_iteratorIPKPN7testing11EnvironmentESt6vectorIS4_SaIS4_EEEEPFvS4_EET0_T_SE_SD_
FN:3779,_ZSt8for_eachIN9__gnu_cxx17__normal_iteratorIPKPN7testing17TestEventListenerESt6vectorIS4_SaIS4_EEEEPFvS4_EET0_T_SE_SD_
FNDA:0,_ZSt8for_eachIN9__gnu_cxx17__normal_iteratorIPKPN7testing17TestEventListenerESt6vectorIS4_SaIS4_EEEEPFvS4_EET0_T_SE_SD_
FN:3779,_ZSt8for_eachIN9__gnu_cxx17__normal_iteratorIPKPN7testing8TestInfoESt6vectorIS4_SaIS4_EEEEPFvS4_EET0_T_SE_SD_
FNDA:4,_ZSt8for_eachIN9__gnu_cxx17__normal_iteratorIPKPN7testing8TestInfoESt6vectorIS4_SaIS4_EEEEPFvS4_EET0_T_SE_SD_
FN:3779,_ZSt8for_eachIN9__gnu_cxx17__normal_iteratorIPKPN7testing9TestSuiteESt6vectorIS4_SaIS4_EEEEPFvS4_EET0_T_SE_SD_
FNDA:1,_ZSt8for_eachIN9__gnu_cxx17__normal_iteratorIPKPN7testing9TestSuiteESt6vectorIS4_SaIS4_EEEEPFvS4_EET0_T_SE_SD_
FN:3779,_ZSt8for_eachISt16reverse_iteratorIN9__gnu_cxx17__normal_iteratorIPPN7testing11EnvironmentESt6vectorIS5_SaIS5_EEEEEPFvS5_EET0_T_SF_SE_
FNDA:1,_ZSt8for_eachISt16reverse_iteratorIN9__gnu_cxx17__normal_iteratorIPPN7testing11EnvironmentESt6vectorIS5_SaIS5_EEEEEPFvS5_EET0_T_SF_SE_
FN:3841,_ZSt4findIN9__gnu_cxx17__normal_iteratorIPKNSt7__cxx1112basic_stringIcSt11char_traitsIcESaIcEEESt6vectorIS7_SaIS7_EEEES7_ET_SE_SE_RKT0_
FNDA:93,_ZSt4findIN9__gnu_cxx17__normal_iteratorIPKNSt7__cxx1112basic_stringIcSt11char_traitsIcESaIcEEESt6vectorIS7_SaIS7_EEEES7_ET_SE_SE_RKT0_
FN:3866,_ZSt7find_ifISt16reverse_iteratorIN9__gnu_cxx17__normal_iteratorIPPN7testing9TestSuiteESt6vectorIS5_SaIS5_EEEEENS3_8internal15TestSuiteNameIsEET_SE_SE_T0_
FNDA:9,_ZSt7find_ifISt16reverse_iteratorIN9__gnu_cxx17__normal_iteratorIPPN7testing9TestSuiteESt6vectorIS5_SaIS5_EEEEENS3_8internal15TestSuiteNameIsEET_SE_SE_T0_
FN:3866,_ZSt7find_ifIN9__gnu_cxx17__normal_iteratorIPN7testing12TestPropertyESt6vectorIS3_SaIS3_EEEENS2_8internal17TestPropertyKeyIsEET_SB_SB_T0_
FNDA:0,_ZSt7find_ifIN9__gnu_cxx17__normal_iteratorIPN7testing12TestPropertyESt6vectorIS3_SaIS3_EEEENS2_8internal17TestPropertyKeyIsEET_SB_SB_T0_
FNF:10
FNH:6
DA:1054,0
DA:1057,0
DA:1058,0
DA:1059,0
DA:1060,0
DA:1062,0
DA:1063,0
DA:1064,0
DA:1083,0
DA:1089,0
DA:1090,0
DA:3779,1
DA:3784,1
DA:3785,0
DA:3786,1
DA:3779,0
DA:3784,0
DA:3785,0
DA:3786,0
DA:3779,4
DA:3784,13
DA:3785,9
DA:3786,4
DA:3779,1
DA:3784,5
DA:3785,4
DA:3786,1
DA:3779,1
DA:3784,1
DA:3785,0
DA:3786,1
DA:3841,93
DA:3849,93
DA:3850,93
DA:3866,9
DA:3875,9
DA:3876,18
DA:3866,0
DA:3875,0
DA:3876,0
LF:40
LH:20
end_of_record
SF:C:\msys64\mingw64\include\c++\14.1.0\bits\stl_iterator_base_types.h
DA:240,309
LF:1
LH:1
end_of_record
SF:C:\msys64\mingw64\include\c++\14.1.0\x86_64-w64-mingw32\bits\c++config.h
DA:550,0
DA:606,0
LF:2
LH:0
end_of_record
SF:C:\msys64\mingw64\include\c++\14.1.0\bits\ios_base.h
FN:84,_ZStanSt13_Ios_FmtflagsS_
FNDA:0,_ZStanSt13_Ios_FmtflagsS_
FN:89,_ZStorSt13_Ios_FmtflagsS_
FNDA:0,_ZStorSt13_Ios_FmtflagsS_
FN:99,_ZStcoSt13_Ios_Fmtflags
FNDA:0,_ZStcoSt13_Ios_Fmtflags
FN:104,_ZStoRRSt13_Ios_FmtflagsS_
FNDA:0,_ZStoRRSt13_Ios_FmtflagsS_
FN:109,_ZStaNRSt13_Ios_FmtflagsS_
FNDA:0,_ZStaNRSt13_Ios_FmtflagsS_
FN:682,_ZNKSt8ios_base5flagsEv
FNDA:0,_ZNKSt8ios_base5flagsEv
FN:693,_ZNSt8ios_base5flagsESt13_Ios_Fmtflags
FNDA:0,_ZNSt8ios_base5flagsESt13_Ios_Fmtflags
FN:709,_ZNSt8ios_base4setfESt13_Ios_Fmtflags
FNDA:0,_ZNSt8ios_base4setfESt13_Ios_Fmtflags
FN:726,_ZNSt8ios_base4setfESt13_Ios_FmtflagsS0_
FNDA:0,_ZNSt8ios_base4setfESt13_Ios_FmtflagsS0_
FN:1021,_ZSt9uppercaseRSt8ios_base
FNDA:0,_ZSt9uppercaseRSt8ios_base
FN:1087,_ZSt3hexRSt8ios_base
FNDA:0,_ZSt3hexRSt8ios_base
FNF:11
FNH:0
DA:84,0
DA:85,0
DA:89,0
DA:90,0
DA:99,0
DA:100,0
DA:104,0
DA:105,0
DA:109,0
DA:110,0
DA:682,0
DA:683,0
DA:693,0
DA:695,0
DA:696,0
DA:697,0
DA:709,0
DA:711,0
DA:712,0
DA:713,0
DA:726,0
DA:728,0
DA:729,0
DA:730,0
DA:731,0
DA:1021,0
DA:1023,0
DA:1024,0
DA:1087,0
DA:1089,0
DA:1090,0
LF:31
LH:0
end_of_record
SF:C:\msys64\mingw64\include\c++\14.1.0\ext\alloc_traits.h
DA:98,2
DA:102,0
LF:2
LH:1
end_of_record
SF:C:\msys64\mingw64\include\c++\14.1.0\bits\shared_ptr.h
FN:203,_ZNSt10shared_ptrIN7testing8internal26ThreadLocalValueHolderBaseEEC1ERKS3_
FNDA:0,_ZNSt10shared_ptrIN7testing8internal26ThreadLocalValueHolderBaseEEC1ERKS3_
FN:213,_ZNSt10shared_ptrIN7testing8internal26ThreadLocalValueHolderBaseEEC1IS2_vEEPT_
FNDA:0,_ZNSt10shared_ptrIN7testing8internal26ThreadLocalValueHolderBaseEEC1IS2_vEEPT_
FN:358,_ZNSt10shared_ptrIN7testing8internal26ThreadLocalValueHolderBaseEEC1EOS3_
FNDA:0,_ZNSt10shared_ptrIN7testing8internal26ThreadLocalValueHolderBaseEEC1EOS3_
FNF:3
FNH:0
DA:203,0
DA:213,0
DA:358,0
DA:359,0
LF:4
LH:0
end_of_record
SF:C:\msys64\mingw64\include\c++\14.1.0\cmath
FN:1183,_ZSt5isnand
FNDA:0,_ZSt5isnand
FNF:1
FNH:0
DA:1183,0
DA:1184,0
LF:2
LH:0
end_of_record
SF:C:\workspace\matrixGenerator\build\_deps\googletest-src\googletest\include\gtest\gtest.h
FN:305,_ZN7testing15AssertionResultC1IbEERKT_PNSt9enable_ifIXntsrSt14is_convertibleIS2_S0_E5valueEvE4typeE
FNDA:0,_ZN7testing15AssertionResultC1IbEERKT_PNSt9enable_ifIXntsrSt14is_convertibleIS2_S0_E5valueEvE4typeE
FN:324,_ZNK7testing15AssertionResultcvbEv
FNDA:0,_ZNK7testing15AssertionResultcvbEv
FN:333,_ZNK7testing15AssertionResult7messageEv
FNDA:0,_ZNK7testing15AssertionResult7messageEv
FN:337,_ZNK7testing15AssertionResult15failure_messageEv
FNDA:0,_ZNK7testing15AssertionResult15failure_messageEv
FN:340,_ZN7testing15AssertionResultlsIPKwEERS0_RKT_
FNDA:0,_ZN7testing15AssertionResultlsIPKwEERS0_RKT_
FN:340,_ZN7testing15AssertionResultlsINS_7MessageEEERS0_RKT_
FNDA:0,_ZN7testing15AssertionResultlsINS_7MessageEEERS0_RKT_
FN:340,_ZN7testing15AssertionResultlsIA11_cEERS0_RKT_
FNDA:0,_ZN7testing15AssertionResultlsIA11_cEERS0_RKT_
FN:340,_ZN7testing15AssertionResultlsINSt7__cxx1112basic_stringIcSt11char_traitsIcESaIcEEEEERS0_RKT_
FNDA:0,_ZN7testing15AssertionResultlsINSt7__cxx1112basic_stringIcSt11char_traitsIcESaIcEEEEERS0_RKT_
FN:340,_ZN7testing15AssertionResultlsIA2_cEERS0_RKT_
FNDA:0,_ZN7testing15AssertionResultlsIA2_cEERS0_RKT_
FN:340,_ZN7testing15AssertionResultlsINS_14TestPartResultEEERS0_RKT_
FNDA:0,_ZN7testing15AssertionResultlsINS_14TestPartResultEEERS0_RKT_
FN:340,_ZN7testing15AssertionResultlsIA14_cEERS0_RKT_
FNDA:0,_ZN7testing15AssertionResultlsIA14_cEERS0_RKT_
FN:340,_ZN7testing15AssertionResultlsIA3_cEERS0_RKT_
FNDA:0,_ZN7testing15AssertionResultlsIA3_cEERS0_RKT_
FN:340,_ZN7testing15AssertionResultlsIA24_cEERS0_RKT_
FNDA:0,_ZN7testing15AssertionResultlsIA24_cEERS0_RKT_
FN:340,_ZN7testing15AssertionResultlsIPKcEERS0_RKT_
FNDA:0,_ZN7testing15AssertionResultlsIPKcEERS0_RKT_
FN:340,_ZN7testing15AssertionResultlsIA6_cEERS0_RKT_
FNDA:0,_ZN7testing15AssertionResultlsIA6_cEERS0_RKT_
FN:340,_ZN7testing15AssertionResultlsIdEERS0_RKT_
FNDA:0,_ZN7testing15AssertionResultlsIdEERS0_RKT_
FN:340,_ZN7testing15AssertionResultlsINSt7__cxx1112basic_stringIwSt11char_traitsIwESaIwEEEEERS0_RKT_
FNDA:0,_ZN7testing15AssertionResultlsINSt7__cxx1112basic_stringIwSt11char_traitsIwESaIwEEEEERS0_RKT_
FN:340,_ZN7testing15AssertionResultlsIA16_cEERS0_RKT_
FNDA:0,_ZN7testing15AssertionResultlsIA16_cEERS0_RKT_
FN:340,_ZN7testing15AssertionResultlsIA4096_cEERS0_RKT_
FNDA:0,_ZN7testing15AssertionResultlsIA4096_cEERS0_RKT_
FN:340,_ZN7testing15AssertionResultlsIA29_cEERS0_RKT_
FNDA:0,_ZN7testing15AssertionResultlsIA29_cEERS0_RKT_
FN:340,_ZN7testing15AssertionResultlsIA13_cEERS0_RKT_
FNDA:0,_ZN7testing15AssertionResultlsIA13_cEERS0_RKT_
FN:340,_ZN7testing15AssertionResultlsIA12_cEERS0_RKT_
FNDA:0,_ZN7testing15AssertionResultlsIA12_cEERS0_RKT_
FN:340,_ZN7testing15AssertionResultlsIA7_cEERS0_RKT_
FNDA:0,_ZN7testing15AssertionResultlsIA7_cEERS0_RKT_
FN:340,_ZN7testing15AssertionResultlsIA106_cEERS0_RKT_
FNDA:0,_ZN7testing15AssertionResultlsIA106_cEERS0_RKT_
FN:340,_ZN7testing15AssertionResultlsIA5_cEERS0_RKT_
FNDA:0,_ZN7testing15AssertionResultlsIA5_cEERS0_RKT_
FN:340,_ZN7testing15AssertionResultlsIA9_cEERS0_RKT_
FNDA:0,_ZN7testing15AssertionResultlsIA9_cEERS0_RKT_
FN:340,_ZN7testing15AssertionResultlsIA15_cEERS0_RKT_
FNDA:0,_ZN7testing15AssertionResultlsIA15_cEERS0_RKT_
FN:340,_ZN7testing15AssertionResultlsIA17_cEERS0_RKT_
FNDA:0,_ZN7testing15AssertionResultlsIA17_cEERS0_RKT_
FN:340,_ZN7testing15AssertionResultlsIA100_cEERS0_RKT_
FNDA:0,_ZN7testing15AssertionResultlsIA100_cEERS0_RKT_
FN:340,_ZN7testing15AssertionResultlsIA27_cEERS0_RKT_
FNDA:0,_ZN7testing15AssertionResultlsIA27_cEERS0_RKT_
FN:355,_ZN7testing15AssertionResult13AppendMessageERKNS_7MessageE
FNDA:0,_ZN7testing15AssertionResult13AppendMessageERKNS_7MessageE
FN:427,_ZN7testing4Test14SetUpTestSuiteEv
FNDA:0,_ZN7testing4Test14SetUpTestSuiteEv
FN:435,_ZN7testing4Test17TearDownTestSuiteEv
FNDA:0,_ZN7testing4Test17TearDownTestSuiteEv
FN:440,_ZN7testing4Test16TearDownTestCaseEv
FNDA:0,_ZN7testing4Test16TearDownTestCaseEv
FN:441,_ZN7testing4Test13SetUpTestCaseEv
FNDA:0,_ZN7testing4Test13SetUpTestCaseEv
FN:501,_ZN7testing4Test11DeleteSelf_Ev
FNDA:9,_ZN7testing4Test11DeleteSelf_Ev
FN:522,_ZN7testing4Test5SetupEv
FNDA:0,_ZN7testing4Test5SetupEv
FN:539,_ZN7testing12TestPropertyC1ERKNSt7__cxx1112basic_stringIcSt11char_traitsIcESaIcEEES8_
FNDA:0,_ZN7testing12TestPropertyC1ERKNSt7__cxx1112basic_stringIcSt11char_traitsIcESaIcEEES8_
FN:544,_ZNK7testing12TestProperty3keyEv
FNDA:0,_ZNK7testing12TestProperty3keyEv
FN:549,_ZNK7testing12TestProperty5valueEv
FNDA:0,_ZNK7testing12TestProperty5valueEv
FN:554,_ZN7testing12TestProperty8SetValueERKNSt7__cxx1112basic_stringIcSt11char_traitsIcESaIcEEE
FNDA:0,_ZN7testing12TestProperty8SetValueERKNSt7__cxx1112basic_stringIcSt11char_traitsIcESaIcEEE
FN:587,_ZNK7testing10TestResult6PassedEv
FNDA:18,_ZNK7testing10TestResult6PassedEv
FN:602,_ZNK7testing10TestResult12elapsed_timeEv
FNDA:18,_ZNK7testing10TestResult12elapsed_timeEv
FN:606,_ZNK7testing10TestResult15start_timestampEv
FNDA:9,_ZNK7testing10TestResult15start_timestampEv
FN:639,_ZN7testing10TestResult19set_start_timestampEx
FNDA:9,_ZN7testing10TestResult19set_start_timestampEx
FN:642,_ZN7testing10TestResult16set_elapsed_timeEx
FNDA:9,_ZN7testing10TestResult16set_elapsed_timeEx
FN:663,_ZNK7testing10TestResult16death_test_countEv
FNDA:0,_ZNK7testing10TestResult16death_test_countEv
FN:666,_ZN7testing10TestResult26increment_death_test_countEv
FNDA:0,_ZN7testing10TestResult26increment_death_test_countEv
FN:711,_ZNK7testing8TestInfo15test_suite_nameEv
FNDA:27,_ZNK7testing8TestInfo15test_suite_nameEv
FN:719,_ZNK7testing8TestInfo4nameEv
FNDA:54,_ZNK7testing8TestInfo4nameEv
FN:723,_ZNK7testing8TestInfo10type_paramEv
FNDA:18,_ZNK7testing8TestInfo10type_paramEv
FN:730,_ZNK7testing8TestInfo11value_paramEv
FNDA:9,_ZNK7testing8TestInfo11value_paramEv
FN:736,_ZNK7testing8TestInfo4fileEv
FNDA:0,_ZNK7testing8TestInfo4fileEv
FN:739,_ZNK7testing8TestInfo4lineEv
FNDA:0,_ZNK7testing8TestInfo4lineEv
FN:742,_ZNK7testing8TestInfo19is_in_another_shardEv
FNDA:9,_ZNK7testing8TestInfo19is_in_another_shardEv
FN:760,_ZNK7testing8TestInfo10should_runEv
FNDA:117,_ZNK7testing8TestInfo10should_runEv
FN:763,_ZNK7testing8TestInfo13is_reportableEv
FNDA:63,_ZNK7testing8TestInfo13is_reportableEv
FN:770,_ZNK7testing8TestInfo6resultEv
FNDA:99,_ZNK7testing8TestInfo6resultEv
FN:798,_ZN7testing8TestInfo26increment_death_test_countEv
FNDA:0,_ZN7testing8TestInfo26increment_death_test_countEv
FN:809,_ZN7testing8TestInfo15ClearTestResultEPS0_
FNDA:9,_ZN7testing8TestInfo15ClearTestResultEPS0_
FN:864,_ZNK7testing9TestSuite4nameEv
FNDA:36,_ZNK7testing9TestSuite4nameEv
FN:868,_ZNK7testing9TestSuite10type_paramEv
FNDA:4,_ZNK7testing9TestSuite10type_paramEv
FN:874,_ZNK7testing9TestSuite10should_runEv
FNDA:25,_ZNK7testing9TestSuite10should_runEv
FN:901,_ZNK7testing9TestSuite6PassedEv
FNDA:0,_ZNK7testing9TestSuite6PassedEv
FN:904,_ZNK7testing9TestSuite6FailedEv
FNDA:8,_ZNK7testing9TestSuite6FailedEv
FN:909,_ZNK7testing9TestSuite12elapsed_timeEv
FNDA:8,_ZNK7testing9TestSuite12elapsed_timeEv
FN:913,_ZNK7testing9TestSuite15start_timestampEv
FNDA:4,_ZNK7testing9TestSuite15start_timestampEv
FN:921,_ZNK7testing9TestSuite18ad_hoc_test_resultEv
FNDA:12,_ZNK7testing9TestSuite18ad_hoc_test_resultEv
FN:928,_ZN7testing9TestSuite14test_info_listEv
FNDA:22,_ZN7testing9TestSuite14test_info_listEv
FN:931,_ZNK7testing9TestSuite14test_info_listEv
FNDA:9,_ZNK7testing9TestSuite14test_info_listEv
FN:940,_ZN7testing9TestSuite14set_should_runEb
FNDA:13,_ZN7testing9TestSuite14set_should_runEb
FN:950,_ZN7testing9TestSuite20ClearTestSuiteResultEPS0_
FNDA:4,_ZN7testing9TestSuite20ClearTestSuiteResultEPS0_
FN:962,_ZN7testing9TestSuite17RunSetUpTestSuiteEv
FNDA:4,_ZN7testing9TestSuite17RunSetUpTestSuiteEv
FN:970,_ZN7testing9TestSuite20RunTearDownTestSuiteEv
FNDA:4,_ZN7testing9TestSuite20RunTearDownTestSuiteEv
FN:977,_ZN7testing9TestSuite10TestPassedEPKNS_8TestInfoE
FNDA:9,_ZN7testing9TestSuite10TestPassedEPKNS_8TestInfoE
FN:982,_ZN7testing9TestSuite11TestSkippedEPKNS_8TestInfoE
FNDA:18,_ZN7testing9TestSuite11TestSkippedEPKNS_8TestInfoE
FN:987,_ZN7testing9TestSuite10TestFailedEPKNS_8TestInfoE
FNDA:36,_ZN7testing9TestSuite10TestFailedEPKNS_8TestInfoE
FN:993,_ZN7testing9TestSuite22TestReportableDisabledEPKNS_8TestInfoE
FNDA:27,_ZN7testing9TestSuite22TestReportableDisabledEPKNS_8TestInfoE
FN:998,_ZN7testing9TestSuite12TestDisabledEPKNS_8TestInfoE
FNDA:0,_ZN7testing9TestSuite12TestDisabledEPKNS_8TestInfoE
FN:1003,_ZN7testing9TestSuite14TestReportableEPKNS_8TestInfoE
FNDA:27,_ZN7testing9TestSuite14TestReportableEPKNS_8TestInfoE
FN:1008,_ZN7testing9TestSuite13ShouldRunTestEPKNS_8TestInfoE
FNDA:36,_ZN7testing9TestSuite13ShouldRunTestEPKNS_8TestInfoE
FN:1095,_ZN7testing17TestEventListenerD2Ev
FNDA:0,_ZN7testing17TestEventListenerD2Ev
FN:1113,_ZN7testing17TestEventListener16OnTestSuiteStartERKNS_9TestSuiteE
FNDA:4,_ZN7testing17TestEventListener16OnTestSuiteStartERKNS_9TestSuiteE
FN:1117,_ZN7testing17TestEventListener15OnTestCaseStartERKNS_9TestSuiteE
FNDA:0,_ZN7testing17TestEventListener15OnTestCaseStartERKNS_9TestSuiteE
FN:1132,_ZN7testing17TestEventListener14OnTestSuiteEndERKNS_9TestSuiteE
FNDA:4,_ZN7testing17TestEventListener14OnTestSuiteEndERKNS_9TestSuiteE
FN:1136,_ZN7testing17TestEventListener13OnTestCaseEndERKNS_9TestSuiteE
FNDA:0,_ZN7testing17TestEventListener13OnTestCaseEndERKNS_9TestSuiteE
FN:1160,_ZN7testing22EmptyTestEventListener18OnTestProgramStartERKNS_8UnitTestE
FNDA:1,_ZN7testing22EmptyTestEventListener18OnTestProgramStartERKNS_8UnitTestE
FN:1161,_ZN7testing22EmptyTestEventListener20OnTestIterationStartERKNS_8UnitTestEi
FNDA:1,_ZN7testing22EmptyTestEventListener20OnTestIterationStartERKNS_8UnitTestEi
FN:1163,_ZN7testing22EmptyTestEventListener24OnEnvironmentsSetUpStartERKNS_8UnitTestE
FNDA:1,_ZN7testing22EmptyTestEventListener24OnEnvironmentsSetUpStartERKNS_8UnitTestE
FN:1164,_ZN7testing22EmptyTestEventListener22OnEnvironmentsSetUpEndERKNS_8UnitTestE
FNDA:1,_ZN7testing22EmptyTestEventListener22OnEnvironmentsSetUpEndERKNS_8UnitTestE
FN:1165,_ZN7testing22EmptyTestEventListener16OnTestSuiteStartERKNS_9TestSuiteE
FNDA:4,_ZN7testing22EmptyTestEventListener16OnTestSuiteStartERKNS_9TestSuiteE
FN:1168,_ZN7testing22EmptyTestEventListener15OnTestCaseStartERKNS_9TestSuiteE
FNDA:4,_ZN7testing22EmptyTestEventListener15OnTestCaseStartERKNS_9TestSuiteE
FN:1171,_ZN7testing22EmptyTestEventListener11OnTestStartERKNS_8TestInfoE
FNDA:9,_ZN7testing22EmptyTestEventListener11OnTestStartERKNS_8TestInfoE
FN:1172,_ZN7testing22EmptyTestEventListener16OnTestPartResultERKNS_14TestPartResultE
FNDA:0,_ZN7testing22EmptyTestEventListener16OnTestPartResultERKNS_14TestPartResultE
FN:1173,_ZN7testing22EmptyTestEventListener9OnTestEndERKNS_8TestInfoE
FNDA:9,_ZN7testing22EmptyTestEventListener9OnTestEndERKNS_8TestInfoE
FN:1174,_ZN7testing22EmptyTestEventListener14OnTestSuiteEndERKNS_9TestSuiteE
FNDA:4,_ZN7testing22EmptyTestEventListener14OnTestSuiteEndERKNS_9TestSuiteE
FN:1176,_ZN7testing22EmptyTestEventListener13OnTestCaseEndERKNS_9TestSuiteE
FNDA:4,_ZN7testing22EmptyTestEventListener13OnTestCaseEndERKNS_9TestSuiteE
FN:1179,_ZN7testing22EmptyTestEventListener27OnEnvironmentsTearDownStartERKNS_8UnitTestE
FNDA:1,_ZN7testing22EmptyTestEventListener27OnEnvironmentsTearDownStartERKNS_8UnitTestE
FN:1180,_ZN7testing22EmptyTestEventListener25OnEnvironmentsTearDownEndERKNS_8UnitTestE
FNDA:1,_ZN7testing22EmptyTestEventListener25OnEnvironmentsTearDownEndERKNS_8UnitTestE
FN:1181,_ZN7testing22EmptyTestEventListener18OnTestIterationEndERKNS_8UnitTestEi
FNDA:0,_ZN7testing22EmptyTestEventListener18OnTestIterationEndERKNS_8UnitTestEi
FN:1183,_ZN7testing22EmptyTestEventListener16OnTestProgramEndERKNS_8UnitTestE
FNDA:1,_ZN7testing22EmptyTestEventListener16OnTestProgramEndERKNS_8UnitTestE
FN:1429,_ZN7testing8UnitTest4implEv
FNDA:150,_ZN7testing8UnitTest4implEv
FN:1430,_ZNK7testing8UnitTest4implEv
FNDA:29,_ZNK7testing8UnitTest4implEv
FN:1789,_ZN7testing8internal12AssertHelper16AssertHelperDataC1ENS_14TestPartResult4TypeEPKciS6_
FNDA:0,_ZN7testing8internal12AssertHelper16AssertHelperDataC1ENS_14TestPartResult4TypeEPKciS6_
FN:2455,_ZN7testing12RegisterTestIJEZNS_8internal34TypeParameterizedTestSuiteRegistry22CheckForInstantiationsEvEUlvE_EEPNS_8TestInfoEPKcS7_S7_S7_S7_iT0_
FNDA:0,_ZN7testing12RegisterTestIJEZNS_8internal34TypeParameterizedTestSuiteRegistry22CheckForInstantiationsEvEUlvE_EEPNS_8TestInfoEPKcS7_S7_S7_S7_iT0_
FN:2455,_ZN7testing12RegisterTestIJEZNS_8internal23InsertSyntheticTestCaseERKNSt7__cxx1112basic_stringIcSt11char_traitsIcESaIcEEENS1_12CodeLocationEbEUlvE_EEPNS_8TestInfoEPKcSF_SF_SF_SF_iT0_
FNDA:0,_ZN7testing12RegisterTestIJEZNS_8internal23InsertSyntheticTestCaseERKNSt7__cxx1112basic_stringIcSt11char_traitsIcESaIcEEENS1_12CodeLocationEbEUlvE_EEPNS_8TestInfoEPKcSF_SF_SF_SF_iT0_
FN:2462,_ZZN7testing12RegisterTestIJEZNS_8internal23InsertSyntheticTestCaseERKNSt7__cxx1112basic_stringIcSt11char_traitsIcESaIcEEENS1_12CodeLocationEbEUlvE_EEPNS_8TestInfoEPKcSF_SF_SF_SF_iT0_EN11FactoryImplC2ESB_
FNDA:0,_ZZN7testing12RegisterTestIJEZNS_8internal23InsertSyntheticTestCaseERKNSt7__cxx1112basic_stringIcSt11char_traitsIcESaIcEEENS1_12CodeLocationEbEUlvE_EEPNS_8TestInfoEPKcSF_SF_SF_SF_iT0_EN11FactoryImplC2ESB_
FN:2462,_ZZN7testing12RegisterTestIJEZNS_8internal34TypeParameterizedTestSuiteRegistry22CheckForInstantiationsEvEUlvE_EEPNS_8TestInfoEPKcS7_S7_S7_S7_iT0_EN11FactoryImplC2ES3_
FNDA:0,_ZZN7testing12RegisterTestIJEZNS_8internal34TypeParameterizedTestSuiteRegistry22CheckForInstantiationsEvEUlvE_EEPNS_8TestInfoEPKcS7_S7_S7_S7_iT0_EN11FactoryImplC2ES3_
FN:2463,_ZZN7testing12RegisterTestIJEZNS_8internal23InsertSyntheticTestCaseERKNSt7__cxx1112basic_stringIcSt11char_traitsIcESaIcEEENS1_12CodeLocationEbEUlvE_EEPNS_8TestInfoEPKcSF_SF_SF_SF_iT0_EN11FactoryImpl10CreateTestEv
FNDA:0,_ZZN7testing12RegisterTestIJEZNS_8internal23InsertSyntheticTestCaseERKNSt7__cxx1112basic_stringIcSt11char_traitsIcESaIcEEENS1_12CodeLocationEbEUlvE_EEPNS_8TestInfoEPKcSF_SF_SF_SF_iT0_EN11FactoryImpl10CreateTestEv
FN:2463,_ZZN7testing12RegisterTestIJEZNS_8internal34TypeParameterizedTestSuiteRegistry22CheckForInstantiationsEvEUlvE_EEPNS_8TestInfoEPKcS7_S7_S7_S7_iT0_EN11FactoryImpl10CreateTestEv
FNDA:0,_ZZN7testing12RegisterTestIJEZNS_8internal34TypeParameterizedTestSuiteRegistry22CheckForInstantiationsEvEUlvE_EEPNS_8TestInfoEPKcS7_S7_S7_S7_iT0_EN11FactoryImpl10CreateTestEv
FNF:110
FNH:51
DA:305,0
DA:311,0
DA:324,0
DA:333,0
DA:334,0
DA:337,0
DA:340,0
DA:341,0
DA:342,0
DA:340,0
DA:341,0
DA:342,0
DA:340,0
DA:341,0
DA:342,0
DA:340,0
DA:341,0
DA:342,0
DA:340,0
DA:341,0
DA:342,0
DA:340,0
DA:341,0
DA:342,0
DA:340,0
DA:341,0
DA:342,0
DA:340,0
DA:341,0
DA:342,0
DA:340,0
DA:341,0
DA:342,0
DA:340,0
DA:341,0
DA:342,0
DA:340,0
DA:341,0
DA:342,0
DA:340,0
DA:341,0
DA:342,0
DA:340,0
DA:341,0
DA:342,0
DA:340,0
DA:341,0
DA:342,0
DA:340,0
DA:341,0
DA:342,0
DA:340,0
DA:341,0
DA:342,0
DA:340,0
DA:341,0
DA:342,0
DA:340,0
DA:341,0
DA:342,0
DA:340,0
DA:341,0
DA:342,0
DA:340,0
DA:341,0
DA:342,0
DA:340,0
DA:341,0
DA:342,0
DA:340,0
DA:341,0
DA:342,0
DA:340,0
DA:341,0
DA:342,0
DA:340,0
DA:341,0
DA:342,0
DA:340,0
DA:341,0
DA:342,0
DA:340,0
DA:341,0
DA:342,0
DA:355,0
DA:356,0
DA:357,0
DA:358,0
DA:427,0
DA:435,0
DA:440,0
DA:441,0
DA:501,9
DA:522,0
DA:539,0
DA:540,0
DA:541,0
DA:544,0
DA:545,0
DA:549,0
DA:550,0
DA:554,0
DA:555,0
DA:556,0
DA:587,18
DA:602,18
DA:606,9
DA:639,9
DA:642,9
DA:663,0
DA:666,0
DA:711,27
DA:719,54
DA:723,18
DA:724,18
DA:725,18
DA:730,9
DA:731,9
DA:732,9
DA:736,0
DA:739,0
DA:742,9
DA:760,117
DA:763,63
DA:766,63
DA:770,99
DA:798,0
DA:799,0
DA:809,9
DA:810,9
DA:811,9
DA:864,36
DA:868,4
DA:869,4
DA:870,4
DA:874,25
DA:901,0
DA:904,8
DA:905,8
DA:909,8
DA:913,4
DA:921,12
DA:928,22
DA:931,9
DA:932,9
DA:940,13
DA:950,4
DA:951,4
DA:952,4
DA:962,4
DA:963,4
DA:964,0
DA:966,4
DA:970,4
DA:971,4
DA:972,0
DA:974,4
DA:977,9
DA:978,9
DA:982,18
DA:983,18
DA:987,36
DA:988,36
DA:993,27
DA:994,27
DA:998,0
DA:999,0
DA:1003,27
DA:1004,27
DA:1008,36
DA:1009,36
DA:1095,0
DA:1113,4
DA:1117,0
DA:1132,4
DA:1136,0
DA:1160,1
DA:1161,1
DA:1162,1
DA:1163,1
DA:1164,1
DA:1165,4
DA:1168,4
DA:1171,9
DA:1172,0
DA:1173,9
DA:1174,4
DA:1176,4
DA:1179,1
DA:1180,1
DA:1181,0
DA:1182,0
DA:1183,1
DA:1429,150
DA:1430,29
DA:1789,0
DA:1793,0
DA:2455,0
DA:2469,0
DA:2471,0
DA:2474,0
DA:2455,0
DA:2469,0
DA:2471,0
DA:2474,0
DA:2462,0
DA:2462,0
DA:2463,0
DA:2463,0
LF:209
LH:75
end_of_record
SF:C:\msys64\mingw64\include\psdk_inc\intrin-impl.h
DA:1660,0
LF:1
LH:0
end_of_record
SF:C:\workspace\matrixGenerator\build\_deps\googletest-src\googletest\src\gtest-matchers.cc
FN:45,_ZN7testing7MatcherIRKNSt7__cxx1112basic_stringIcSt11char_traitsIcESaIcEEEEC2ES8_
FNDA:0,_ZN7testing7MatcherIRKNSt7__cxx1112basic_stringIcSt11char_traitsIcESaIcEEEEC2ES8_
FN:49,_ZN7testing7MatcherIRKNSt7__cxx1112basic_stringIcSt11char_traitsIcESaIcEEEEC2EPKc
FNDA:0,_ZN7testing7MatcherIRKNSt7__cxx1112basic_stringIcSt11char_traitsIcESaIcEEEEC2EPKc
FN:55,_ZN7testing7MatcherINSt7__cxx1112basic_stringIcSt11char_traitsIcESaIcEEEEC2ERKS6_
FNDA:0,_ZN7testing7MatcherINSt7__cxx1112basic_stringIcSt11char_traitsIcESaIcEEEEC2ERKS6_
FN:59,_ZN7testing7MatcherINSt7__cxx1112basic_stringIcSt11char_traitsIcESaIcEEEEC2EPKc
FNDA:0,_ZN7testing7MatcherINSt7__cxx1112basic_stringIcSt11char_traitsIcESaIcEEEEC2EPKc
FNF:4
FNH:0
DA:45,0
DA:49,0
DA:50,0
DA:51,0
DA:55,0
DA:59,0
LF:6
LH:0
end_of_record
SF:C:\msys64\mingw64\include\c++\14.1.0\bits\chrono.h
FN:210,_ZNSt6chrono20__duration_cast_implINS_8durationIxSt5ratioILx1ELx1000EEEES2_ILx1ELx1000000EExLb1ELb0EE6__castIxS2_ILx1ELx1000000000EEEES4_RKNS1_IT_T0_EE
FNDA:28,_ZNSt6chrono20__duration_cast_implINS_8durationIxSt5ratioILx1ELx1000EEEES2_ILx1ELx1000000EExLb1ELb0EE6__castIxS2_ILx1ELx1000000000EEEES4_RKNS1_IT_T0_EE
FN:223,_ZNSt6chrono20__duration_cast_implINS_8durationIxSt5ratioILx1ELx1000000000EEEES2_ILx1000000000ELx1EExLb0ELb1EE6__castIxS2_ILx1ELx1EEEES4_RKNS1_IT_T0_EE
FNDA:14,_ZNSt6chrono20__duration_cast_implINS_8durationIxSt5ratioILx1ELx1000000000EEEES2_ILx1000000000ELx1EExLb0ELb1EE6__castIxS2_ILx1ELx1EEEES4_RKNS1_IT_T0_EE
FN:275,_ZNSt6chrono13duration_castINS_8durationIxSt5ratioILx1ELx1000EEEExS2_ILx1ELx1000000000EEEENSt9enable_ifIXsrNS_13__is_durationIT_EE5valueES8_E4typeERKNS1_IT0_T1_EE
FNDA:28,_ZNSt6chrono13duration_castINS_8durationIxSt5ratioILx1ELx1000EEEExS2_ILx1ELx1000000000EEEENSt9enable_ifIXsrNS_13__is_durationIT_EE5valueES8_E4typeERKNS1_IT0_T1_EE
FN:275,_ZNSt6chrono13duration_castINS_8durationIxSt5ratioILx1ELx1000000000EEEExS2_ILx1ELx1EEEENSt9enable_ifIXsrNS_13__is_durationIT_EE5valueES8_E4typeERKNS1_IT0_T1_EE
FNDA:14,_ZNSt6chrono13duration_castINS_8durationIxSt5ratioILx1ELx1000000000EEEExS2_ILx1ELx1EEEENSt9enable_ifIXsrNS_13__is_durationIT_EE5valueES8_E4typeERKNS1_IT0_T1_EE
FN:573,_ZNSt6chrono8durationIxSt5ratioILx1ELx1000EEEC1IxvEERKT_
FNDA:0,_ZNSt6chrono8durationIxSt5ratioILx1ELx1000EEEC1IxvEERKT_
FN:573,_ZNSt6chrono8durationIxSt5ratioILx1ELx1EEEC1IxvEERKT_
FNDA:0,_ZNSt6chrono8durationIxSt5ratioILx1ELx1EEEC1IxvEERKT_
FN:573,_ZNSt6chrono8durationIxSt5ratioILx1ELx1000000000EEEC1IxvEERKT_
FNDA:0,_ZNSt6chrono8durationIxSt5ratioILx1ELx1000000000EEEC1IxvEERKT_
FN:589,_ZNKSt6chrono8durationIxSt5ratioILx1ELx1000EEE5countEv
FNDA:0,_ZNKSt6chrono8durationIxSt5ratioILx1ELx1000EEE5countEv
FN:589,_ZNKSt6chrono8durationIxSt5ratioILx1ELx1EEE5countEv
FNDA:0,_ZNKSt6chrono8durationIxSt5ratioILx1ELx1EEE5countEv
FN:589,_ZNKSt6chrono8durationIxSt5ratioILx1ELx1000000000EEE5countEv
FNDA:0,_ZNKSt6chrono8durationIxSt5ratioILx1ELx1000000000EEE5countEv
FN:710,_ZNSt6chronomiIxSt5ratioILx1ELx1000000000EExS2_EENSt11common_typeIJNS_8durationIT_T0_EENS4_IT1_T2_EEEE4typeERKS7_RKSA_
FNDA:30,_ZNSt6chronomiIxSt5ratioILx1ELx1000000000EExS2_EENSt11common_typeIJNS_8durationIT_T0_EENS4_IT1_T2_EEEE4typeERKS7_RKSA_
FN:936,_ZNSt6chrono10time_pointINS_3_V212system_clockENS_8durationIxSt5ratioILx1ELx1000000000EEEEEC1ERKS6_
FNDA:14,_ZNSt6chrono10time_pointINS_3_V212system_clockENS_8durationIxSt5ratioILx1ELx1000000000EEEEEC1ERKS6_
FN:936,_ZNSt6chrono10time_pointINS_3_V212system_clockENS_8durationIxSt5ratioILx1ELx1EEEEEC1ERKS6_
FNDA:14,_ZNSt6chrono10time_pointINS_3_V212system_clockENS_8durationIxSt5ratioILx1ELx1EEEEEC1ERKS6_
FN:949,_ZNKSt6chrono10time_pointINS_3_V212steady_clockENS_8durationIxSt5ratioILx1ELx1000000000EEEEE16time_since_epochEv
FNDA:28,_ZNKSt6chrono10time_pointINS_3_V212steady_clockENS_8durationIxSt5ratioILx1ELx1000000000EEEEE16time_since_epochEv
FN:949,_ZNKSt6chrono10time_pointINS_3_V212system_clockENS_8durationIxSt5ratioILx1ELx1EEEEE16time_since_epochEv
FNDA:14,_ZNKSt6chrono10time_pointINS_3_V212system_clockENS_8durationIxSt5ratioILx1ELx1EEEEE16time_since_epochEv
FN:949,_ZNKSt6chrono10time_pointINS_3_V212system_clockENS_8durationIxSt5ratioILx1ELx1000000000EEEEE16time_since_epochEv
FNDA:32,_ZNKSt6chrono10time_pointINS_3_V212system_clockENS_8durationIxSt5ratioILx1ELx1000000000EEEEE16time_since_epochEv
FN:1019,_ZNSt6chrono15time_point_castINS_8durationIxSt5ratioILx1ELx1000000000EEEENS_3_V212system_clockENS1_IxS2_ILx1ELx1EEEEEENSt9enable_ifIXsrNS_13__is_durationIT_EE5valueENS_10time_pointIT0_SB_EEE4typeERKNSD_ISE_T1_EE
FNDA:14,_ZNSt6chrono15time_point_castINS_8durationIxSt5ratioILx1ELx1000000000EEEENS_3_V212system_clockENS1_IxS2_ILx1ELx1EEEEEENSt9enable_ifIXsrNS_13__is_durationIT_EE5valueENS_10time_pointIT0_SB_EEE4typeERKNSD_ISE_T1_EE
FN:1141,_ZNSt6chronomiINS_3_V212system_clockENS_8durationIxSt5ratioILx1ELx1000000000EEEES6_EENSt11common_typeIJT0_T1_EE4typeERKNS_10time_pointIT_S8_EERKNSC_ISD_S9_EE
FNDA:16,_ZNSt6chronomiINS_3_V212system_clockENS_8durationIxSt5ratioILx1ELx1000000000EEEES6_EENSt11common_typeIJT0_T1_EE4typeERKNS_10time_pointIT_S8_EERKNSC_ISD_S9_EE
FN:1141,_ZNSt6chronomiINS_3_V212steady_clockENS_8durationIxSt5ratioILx1ELx1000000000EEEES6_EENSt11common_typeIJT0_T1_EE4typeERKNS_10time_pointIT_S8_EERKNSC_ISD_S9_EE
FNDA:14,_ZNSt6chronomiINS_3_V212steady_clockENS_8durationIxSt5ratioILx1ELx1000000000EEEES6_EENSt11common_typeIJT0_T1_EE4typeERKNS_10time_pointIT_S8_EERKNSC_ISD_S9_EE
FN:1250,_ZNSt6chrono3_V212system_clock11from_time_tEx
FNDA:14,_ZNSt6chrono3_V212system_clock11from_time_tEx
FNF:20
FNH:14
DA:210,28
DA:213,56
DA:214,28
DA:223,14
DA:226,28
DA:227,14
DA:275,14
DA:289,14
DA:275,28
DA:289,28
DA:573,0
DA:574,0
DA:573,0
DA:574,0
DA:573,0
DA:574,0
DA:589,0
DA:590,0
DA:589,0
DA:590,0
DA:589,0
DA:590,0
DA:710,30
DA:716,30
DA:936,14
DA:937,14
DA:938,14
DA:936,14
DA:937,14
DA:938,14
DA:949,28
DA:950,28
DA:949,14
DA:950,14
DA:949,32
DA:950,32
DA:1019,14
DA:1022,14
DA:1141,16
DA:1143,16
DA:1141,14
DA:1143,14
DA:1250,14
DA:1254,14
LF:44
LH:32
end_of_record
SF:C:\workspace\matrixGenerator\build\_deps\googletest-src\googletest\include\gtest\internal\gtest-internal.h
FN:298,_ZN7testing8internal13FloatingPointIfEC1ERKf
FNDA:0,_ZN7testing8internal13FloatingPointIfEC1ERKf
FN:298,_ZN7testing8internal13FloatingPointIdEC1ERKd
FNDA:0,_ZN7testing8internal13FloatingPointIdEC1ERKd
FN:325,_ZNK7testing8internal13FloatingPointIdE13exponent_bitsEv
FNDA:0,_ZNK7testing8internal13FloatingPointIdE13exponent_bitsEv
FN:325,_ZNK7testing8internal13FloatingPointIfE13exponent_bitsEv
FNDA:0,_ZNK7testing8internal13FloatingPointIfE13exponent_bitsEv
FN:328,_ZNK7testing8internal13FloatingPointIdE13fraction_bitsEv
FNDA:0,_ZNK7testing8internal13FloatingPointIdE13fraction_bitsEv
FN:328,_ZNK7testing8internal13FloatingPointIfE13fraction_bitsEv
FNDA:0,_ZNK7testing8internal13FloatingPointIfE13fraction_bitsEv
FN:334,_ZNK7testing8internal13FloatingPointIdE6is_nanEv
FNDA:0,_ZNK7testing8internal13FloatingPointIdE6is_nanEv
FN:334,_ZNK7testing8internal13FloatingPointIfE6is_nanEv
FNDA:0,_ZNK7testing8internal13FloatingPointIfE6is_nanEv
FN:346,_ZNK7testing8internal13FloatingPointIdE12AlmostEqualsERKS2_
FNDA:0,_ZNK7testing8internal13FloatingPointIdE12AlmostEqualsERKS2_
FN:346,_ZNK7testing8internal13FloatingPointIfE12AlmostEqualsERKS2_
FNDA:0,_ZNK7testing8internal13FloatingPointIfE12AlmostEqualsERKS2_
FN:377,_ZN7testing8internal13FloatingPointIfE24SignAndMagnitudeToBiasedERKj
FNDA:0,_ZN7testing8internal13FloatingPointIfE24SignAndMagnitudeToBiasedERKj
FN:377,_ZN7testing8internal13FloatingPointIdE24SignAndMagnitudeToBiasedERKy
FNDA:0,_ZN7testing8internal13FloatingPointIdE24SignAndMagnitudeToBiasedERKy
FN:389,_ZN7testing8internal13FloatingPointIdE38DistanceBetweenSignAndMagnitudeNumbersERKyS4_
FNDA:0,_ZN7testing8internal13FloatingPointIdE38DistanceBetweenSignAndMagnitudeNumbersERKyS4_
FN:389,_ZN7testing8internal13FloatingPointIfE38DistanceBetweenSignAndMagnitudeNumbersERKjS4_
FNDA:0,_ZN7testing8internal13FloatingPointIfE38DistanceBetweenSignAndMagnitudeNumbersERKjS4_
FN:435,_ZN7testing8internal9GetTypeIdINS0_12_GLOBAL__N_111FailureTestEEEPKvv
FNDA:0,_ZN7testing8internal9GetTypeIdINS0_12_GLOBAL__N_111FailureTestEEEPKvv
FN:435,_ZN7testing8internal9GetTypeIdINS_4TestEEEPKvv
FNDA:1,_ZN7testing8internal9GetTypeIdINS_4TestEEEPKvv
FN:454,_ZN7testing8internal15TestFactoryBaseD2Ev
FNDA:0,_ZN7testing8internal15TestFactoryBaseD2Ev
FN:461,_ZN7testing8internal15TestFactoryBaseC2Ev
FNDA:0,_ZN7testing8internal15TestFactoryBaseC2Ev
FN:493,_ZN7testing8internal12CodeLocationC1ERKNSt7__cxx1112basic_stringIcSt11char_traitsIcESaIcEEEi
FNDA:0,_ZN7testing8internal12CodeLocationC1ERKNSt7__cxx1112basic_stringIcSt11char_traitsIcESaIcEEEi
FN:506,_ZN7testing8internal19GetNotDefaultOrNullEPFvvES2_
FNDA:0,_ZN7testing8internal19GetNotDefaultOrNullEPFvvES2_
FN:521,_ZN7testing8internal16SuiteApiResolverINS0_12_GLOBAL__N_111FailureTestEE19GetSetUpCaseOrSuiteEPKci
FNDA:0,_ZN7testing8internal16SuiteApiResolverINS0_12_GLOBAL__N_111FailureTestEE19GetSetUpCaseOrSuiteEPKci
FN:542,_ZN7testing8internal16SuiteApiResolverINS0_12_GLOBAL__N_111FailureTestEE22GetTearDownCaseOrSuiteEPKci
FNDA:0,_ZN7testing8internal16SuiteApiResolverINS0_12_GLOBAL__N_111FailureTestEE22GetTearDownCaseOrSuiteEPKci
FN:652,_ZN7testing8internal9SkipCommaEPKc
FNDA:0,_ZN7testing8internal9SkipCommaEPKc
FN:663,_ZN7testing8internal19GetPrefixUntilCommaB5cxx11EPKc
FNDA:0,_ZN7testing8internal19GetPrefixUntilCommaB5cxx11EPKc
FN:844,_ZN7testing8internal11AlwaysFalseEv
FNDA:0,_ZN7testing8internal11AlwaysFalseEv
FN:874,_ZN7testing8internal6RandomC1Ej
FNDA:1,_ZN7testing8internal6RandomC1Ej
FN:876,_ZN7testing8internal6Random6ReseedEj
FNDA:0,_ZN7testing8internal6Random6ReseedEj
FNF:27
FNH:2
DA:298,0
DA:298,0
DA:325,0
DA:325,0
DA:328,0
DA:328,0
DA:334,0
DA:337,0
DA:334,0
DA:337,0
DA:346,0
DA:349,0
DA:351,0
DA:352,0
DA:346,0
DA:349,0
DA:351,0
DA:352,0
DA:377,0
DA:378,0
DA:380,0
DA:383,0
DA:377,0
DA:378,0
DA:380,0
DA:383,0
DA:389,0
DA:391,0
DA:392,0
DA:393,0
DA:389,0
DA:391,0
DA:392,0
DA:393,0
DA:435,0
DA:440,0
DA:435,1
DA:440,1
DA:454,0
DA:461,0
DA:493,0
DA:494,0
DA:506,0
DA:508,0
DA:521,0
DA:525,0
DA:527,0
DA:529,0
DA:532,0
DA:534,0
DA:542,0
DA:546,0
DA:548,0
DA:550,0
DA:553,0
DA:555,0
DA:652,0
DA:653,0
DA:654,0
DA:655,0
DA:657,0
DA:658,0
DA:663,0
DA:664,0
DA:665,0
DA:844,0
DA:874,1
DA:876,0
LF:68
LH:3
end_of_record
SF:C:\msys64\mingw64\include\c++\14.1.0\bits\basic_string.h
FN:227,_ZNKSt7__cxx1112basic_stringIDiSt11char_traitsIDiESaIDiEE7_M_dataEv
FNDA:0,_ZNKSt7__cxx1112basic_stringIDiSt11char_traitsIDiESaIDiEE7_M_dataEv
FN:227,_ZNKSt7__cxx1112basic_stringIDsSt11char_traitsIDsESaIDsEE7_M_dataEv
FNDA:0,_ZNKSt7__cxx1112basic_stringIDsSt11char_traitsIDsESaIDsEE7_M_dataEv
FN:765,_ZNSt7__cxx1112basic_stringIcSt11char_traitsIcESaIcEEC1IPKcvEET_S8_RKS3_
FNDA:0,_ZNSt7__cxx1112basic_stringIcSt11char_traitsIcESaIcEEC1IPKcvEET_S8_RKS3_
FN:1076,_ZNKSt7__cxx1112basic_stringIDiSt11char_traitsIDiESaIDiEE4sizeEv
FNDA:0,_ZNKSt7__cxx1112basic_stringIDiSt11char_traitsIDiESaIDiEE4sizeEv
FN:1076,_ZNKSt7__cxx1112basic_stringIDsSt11char_traitsIDsESaIDsEE4sizeEv
FNDA:0,_ZNKSt7__cxx1112basic_stringIDsSt11char_traitsIDsESaIDsEE4sizeEv
FN:2653,_ZNKSt7__cxx1112basic_stringIDiSt11char_traitsIDiESaIDiEE4dataEv
FNDA:0,_ZNKSt7__cxx1112basic_stringIDiSt11char_traitsIDiESaIDiEE4dataEv
FN:2653,_ZNKSt7__cxx1112basic_stringIDsSt11char_traitsIDsESaIDsEE4dataEv
FNDA:0,_ZNKSt7__cxx1112basic_stringIDsSt11char_traitsIDsESaIDsEE4dataEv
FN:3573,_ZSt12__str_concatINSt7__cxx1112basic_stringIcSt11char_traitsIcESaIcEEEET_PKNS6_10value_typeENS6_9size_typeES9_SA_RKNS6_14allocator_typeE
FNDA:0,_ZSt12__str_concatINSt7__cxx1112basic_stringIcSt11char_traitsIcESaIcEEEET_PKNS6_10value_typeENS6_9size_typeES9_SA_RKNS6_14allocator_typeE
FN:3616,_ZStplIcSt11char_traitsIcESaIcEENSt7__cxx1112basic_stringIT_T0_T1_EEPKS5_RKS8_
FNDA:0,_ZStplIcSt11char_traitsIcESaIcEENSt7__cxx1112basic_stringIT_T0_T1_EEPKS5_RKS8_
FN:3652,_ZStplIcSt11char_traitsIcESaIcEENSt7__cxx1112basic_stringIT_T0_T1_EERKS8_PKS5_
FNDA:9,_ZStplIcSt11char_traitsIcESaIcEENSt7__cxx1112basic_stringIT_T0_T1_EERKS8_PKS5_
FN:3670,_ZStplIcSt11char_traitsIcESaIcEENSt7__cxx1112basic_stringIT_T0_T1_EERKS8_S5_
FNDA:1,_ZStplIcSt11char_traitsIcESaIcEENSt7__cxx1112basic_stringIT_T0_T1_EERKS8_S5_
FN:3682,_ZStplIcSt11char_traitsIcESaIcEENSt7__cxx1112basic_stringIT_T0_T1_EEOS8_RKS8_
FNDA:1,_ZStplIcSt11char_traitsIcESaIcEENSt7__cxx1112basic_stringIT_T0_T1_EEOS8_RKS8_
FN:3696,_ZStplIcSt11char_traitsIcESaIcEENSt7__cxx1112basic_stringIT_T0_T1_EEOS8_S9_
FNDA:84,_ZStplIcSt11char_traitsIcESaIcEENSt7__cxx1112basic_stringIT_T0_T1_EEOS8_S9_
FN:3719,_ZStplIcSt11char_traitsIcESaIcEENSt7__cxx1112basic_stringIT_T0_T1_EEPKS5_OS8_
FNDA:0,_ZStplIcSt11char_traitsIcESaIcEENSt7__cxx1112basic_stringIT_T0_T1_EEPKS5_OS8_
FN:3733,_ZStplIcSt11char_traitsIcESaIcEENSt7__cxx1112basic_stringIT_T0_T1_EEOS8_PKS5_
FNDA:141,_ZStplIcSt11char_traitsIcESaIcEENSt7__cxx1112basic_stringIT_T0_T1_EEOS8_PKS5_
FN:3755,_ZSteqIcSt11char_traitsIcESaIcEEbRKNSt7__cxx1112basic_stringIT_T0_T1_EESA_
FNDA:0,_ZSteqIcSt11char_traitsIcESaIcEEbRKNSt7__cxx1112basic_stringIT_T0_T1_EESA_
FN:3772,_ZSteqIcSt11char_traitsIcESaIcEEbRKNSt7__cxx1112basic_stringIT_T0_T1_EEPKS5_
FNDA:235,_ZSteqIcSt11char_traitsIcESaIcEEbRKNSt7__cxx1112basic_stringIT_T0_T1_EEPKS5_
FN:3819,_ZSteqIcSt11char_traitsIcESaIcEEbPKT_RKNSt7__cxx1112basic_stringIS3_T0_T1_EE
FNDA:0,_ZSteqIcSt11char_traitsIcESaIcEEbPKT_RKNSt7__cxx1112basic_stringIS3_T0_T1_EE
FN:3860,_ZStneIcSt11char_traitsIcESaIcEEbRKNSt7__cxx1112basic_stringIT_T0_T1_EEPKS5_
FNDA:0,_ZStneIcSt11char_traitsIcESaIcEEbRKNSt7__cxx1112basic_stringIT_T0_T1_EEPKS5_
FN:3874,_ZStltIcSt11char_traitsIcESaIcEEbRKNSt7__cxx1112basic_stringIT_T0_T1_EESA_
FNDA:0,_ZStltIcSt11char_traitsIcESaIcEEbRKNSt7__cxx1112basic_stringIT_T0_T1_EESA_
FNF:20
FNH:6
DA:227,0
DA:228,0
DA:227,0
DA:228,0
DA:360,0
DA:765,0
DA:767,0
DA:770,0
DA:775,0
DA:1076,0
DA:1077,0
DA:1076,0
DA:1077,0
DA:2653,0
DA:2654,0
DA:2653,0
DA:2654,0
DA:3573,0
DA:3581,0
DA:3582,0
DA:3583,0
DA:3584,0
DA:3585,0
DA:3586,0
DA:3616,0
DA:3623,0
DA:3652,9
DA:3659,18
DA:3670,1
DA:3675,2
DA:3682,1
DA:3684,1
DA:3696,84
DA:3701,84
DA:3702,84
DA:3703,84
DA:3704,0
DA:3705,0
DA:3706,84
DA:3709,84
DA:3710,84
DA:3711,0
DA:3713,84
DA:3719,0
DA:3721,0
DA:3733,141
DA:3735,141
DA:3755,0
DA:3759,0
DA:3760,0
DA:3772,235
DA:3775,235
DA:3776,235
DA:3819,0
DA:3821,0
DA:3860,0
DA:3862,0
DA:3874,0
DA:3877,0
LF:59
LH:19
end_of_record
SF:C:\msys64\mingw64\include\c++\14.1.0\bits\atomic_base.h
FN:358,_ZNSt13__atomic_baseIiEC2Ei
FNDA:0,_ZNSt13__atomic_baseIiEC2Ei
FNF:1
FNH:0
DA:358,0
DA:641,0
LF:2
LH:0
end_of_record
SF:C:\msys64\mingw64\include\c++\14.1.0\bits\predefined_ops.h
FN:262,_ZN9__gnu_cxx5__ops16_Iter_equals_valIKNSt7__cxx1112basic_stringIcSt11char_traitsIcESaIcEEEEC1ERS8_
FNDA:93,_ZN9__gnu_cxx5__ops16_Iter_equals_valIKNSt7__cxx1112basic_stringIcSt11char_traitsIcESaIcEEEEC1ERS8_
FN:269,_ZN9__gnu_cxx5__ops16_Iter_equals_valIKNSt7__cxx1112basic_stringIcSt11char_traitsIcESaIcEEEEclINS_17__normal_iteratorIPS8_St6vectorIS7_SaIS7_EEEEEEbT_
FNDA:436,_ZN9__gnu_cxx5__ops16_Iter_equals_valIKNSt7__cxx1112basic_stringIcSt11char_traitsIcESaIcEEEEclINS_17__normal_iteratorIPS8_St6vectorIS7_SaIS7_EEEEEEbT_
FN:276,_ZN9__gnu_cxx5__ops17__iter_equals_valIKNSt7__cxx1112basic_stringIcSt11char_traitsIcESaIcEEEEENS0_16_Iter_equals_valIT_EERSA_
FNDA:93,_ZN9__gnu_cxx5__ops17__iter_equals_valIKNSt7__cxx1112basic_stringIcSt11char_traitsIcESaIcEEEEENS0_16_Iter_equals_valIT_EERSA_
FN:310,_ZN9__gnu_cxx5__ops10_Iter_predIN7testing8internal15TestSuiteNameIsEEC1ES4_
FNDA:9,_ZN9__gnu_cxx5__ops10_Iter_predIN7testing8internal15TestSuiteNameIsEEC1ES4_
FN:310,_ZN9__gnu_cxx5__ops10_Iter_predIN7testing8internal17TestPropertyKeyIsEEC1ES4_
FNDA:0,_ZN9__gnu_cxx5__ops10_Iter_predIN7testing8internal17TestPropertyKeyIsEEC1ES4_
FN:317,_ZN9__gnu_cxx5__ops10_Iter_predIN7testing8internal15TestSuiteNameIsEEclISt16reverse_iteratorINS_17__normal_iteratorIPPNS2_9TestSuiteESt6vectorISA_SaISA_EEEEEEEbT_
FNDA:11,_ZN9__gnu_cxx5__ops10_Iter_predIN7testing8internal15TestSuiteNameIsEEclISt16reverse_iteratorINS_17__normal_iteratorIPPNS2_9TestSuiteESt6vectorISA_SaISA_EEEEEEEbT_
FN:317,_ZN9__gnu_cxx5__ops10_Iter_predIN7testing8internal17TestPropertyKeyIsEEclINS_17__normal_iteratorIPNS2_12TestPropertyESt6vectorIS8_SaIS8_EEEEEEbT_
FNDA:0,_ZN9__gnu_cxx5__ops10_Iter_predIN7testing8internal17TestPropertyKeyIsEEclINS_17__normal_iteratorIPNS2_12TestPropertyESt6vectorIS8_SaIS8_EEEEEEbT_
FN:324,_ZN9__gnu_cxx5__ops11__pred_iterIN7testing8internal15TestSuiteNameIsEEENS0_10_Iter_predIT_EES6_
FNDA:9,_ZN9__gnu_cxx5__ops11__pred_iterIN7testing8internal15TestSuiteNameIsEEENS0_10_Iter_predIT_EES6_
FN:324,_ZN9__gnu_cxx5__ops11__pred_iterIN7testing8internal17TestPropertyKeyIsEEENS0_10_Iter_predIT_EES6_
FNDA:0,_ZN9__gnu_cxx5__ops11__pred_iterIN7testing8internal17TestPropertyKeyIsEEENS0_10_Iter_predIT_EES6_
FNF:9
FNH:6
DA:262,93
DA:263,93
DA:264,93
DA:269,436
DA:270,436
DA:276,93
DA:277,93
DA:310,9
DA:311,9
DA:312,9
DA:310,0
DA:311,0
DA:312,0
DA:317,11
DA:318,11
DA:317,0
DA:318,0
DA:324,9
DA:325,9
DA:324,0
DA:325,0
LF:21
LH:14
end_of_record
SF:C:\msys64\mingw64\include\c++\14.1.0\bits\allocated_ptr.h
FN:53,_ZNSt15__allocated_ptrISaISt10_List_nodeISt4pairIcPKcEEEEC1ERS6_PS5_
FNDA:0,_ZNSt15__allocated_ptrISaISt10_List_nodeISt4pairIcPKcEEEEC1ERS6_PS5_
FN:71,_ZNSt15__allocated_ptrISaISt10_List_nodeISt4pairIcPKcEEEED1Ev
FNDA:0,_ZNSt15__allocated_ptrISaISt10_List_nodeISt4pairIcPKcEEEED1Ev
FN:79,_ZNSt15__allocated_ptrISaISt10_List_nodeISt4pairIcPKcEEEEaSEDn
FNDA:0,_ZNSt15__allocated_ptrISaISt10_List_nodeISt4pairIcPKcEEEEaSEDn
FNF:3
FNH:0
DA:53,0
DA:54,0
DA:55,0
DA:71,0
DA:73,0
DA:74,0
DA:75,0
DA:79,0
DA:81,0
DA:82,0
LF:10
LH:0
end_of_record
SF:C:\msys64\mingw64\include\c++\14.1.0\bits\new_allocator.h
FN:104,_ZNSt15__new_allocatorIN7testing8internal9TraceInfoEED2Ev
FNDA:0,_ZNSt15__new_allocatorIN7testing8internal9TraceInfoEED2Ev
FN:104,_ZNSt15__new_allocatorISt10shared_ptrIN7testing8internal26ThreadLocalValueHolderBaseEEED2Ev
FNDA:0,_ZNSt15__new_allocatorISt10shared_ptrIN7testing8internal26ThreadLocalValueHolderBaseEEED2Ev
FN:104,_ZNSt15__new_allocatorISt13_Rb_tree_nodeISt4pairIKPKN7testing8internal15ThreadLocalBaseESt10shared_ptrINS3_26ThreadLocalValueHolderBaseEEEEED2Ev
FNDA:0,_ZNSt15__new_allocatorISt13_Rb_tree_nodeISt4pairIKPKN7testing8internal15ThreadLocalBaseESt10shared_ptrINS3_26ThreadLocalValueHolderBaseEEEEED2Ev
FN:104,_ZNSt15__new_allocatorISt13_Rb_tree_nodeINSt7__cxx1112basic_stringIcSt11char_traitsIcESaIcEEEEED2Ev
FNDA:0,_ZNSt15__new_allocatorISt13_Rb_tree_nodeINSt7__cxx1112basic_stringIcSt11char_traitsIcESaIcEEEEED2Ev
FN:104,_ZNSt15__new_allocatorISt13_Rb_tree_nodeISt4pairIKNSt7__cxx1112basic_stringIcSt11char_traitsIcESaIcEEEN7testing8internal34TypeParameterizedTestSuiteRegistry30TypeParameterizedTestSuiteInfoEEEED2Ev
FNDA:0,_ZNSt15__new_allocatorISt13_Rb_tree_nodeISt4pairIKNSt7__cxx1112basic_stringIcSt11char_traitsIcESaIcEEEN7testing8internal34TypeParameterizedTestSuiteRegistry30TypeParameterizedTestSuiteInfoEEEED2Ev
FN:104,_ZNSt15__new_allocatorIPN7testing9TestSuiteEED2Ev
FNDA:0,_ZNSt15__new_allocatorIPN7testing9TestSuiteEED2Ev
FN:104,_ZNSt15__new_allocatorIPN7testing11EnvironmentEED2Ev
FNDA:0,_ZNSt15__new_allocatorIPN7testing11EnvironmentEED2Ev
FN:104,_ZNSt15__new_allocatorIPN7testing17TestEventListenerEED2Ev
FNDA:0,_ZNSt15__new_allocatorIPN7testing17TestEventListenerEED2Ev
FN:104,_ZNSt15__new_allocatorIiED2Ev
FNDA:0,_ZNSt15__new_allocatorIiED2Ev
FN:104,_ZNSt15__new_allocatorIPN7testing8TestInfoEED2Ev
FNDA:0,_ZNSt15__new_allocatorIPN7testing8TestInfoEED2Ev
FN:104,_ZNSt15__new_allocatorIN7testing12TestPropertyEED2Ev
FNDA:0,_ZNSt15__new_allocatorIN7testing12TestPropertyEED2Ev
FN:104,_ZNSt15__new_allocatorISt10_List_nodeISt4pairIcPKcEEED2Ev
FNDA:0,_ZNSt15__new_allocatorISt10_List_nodeISt4pairIcPKcEEED2Ev
FN:104,_ZNSt15__new_allocatorISt13_Rb_tree_nodeISt4pairIKNSt7__cxx1112basic_stringIcSt11char_traitsIcESaIcEEEyEEED2Ev
FNDA:0,_ZNSt15__new_allocatorISt13_Rb_tree_nodeISt4pairIKNSt7__cxx1112basic_stringIcSt11char_traitsIcESaIcEEEyEEED2Ev
FN:104,_ZNSt15__new_allocatorIyED2Ev
FNDA:0,_ZNSt15__new_allocatorIyED2Ev
FN:104,_ZNSt15__new_allocatorISt6vectorIN7testing8internal13edit_distance8EditTypeESaIS4_EEED2Ev
FNDA:0,_ZNSt15__new_allocatorISt6vectorIN7testing8internal13edit_distance8EditTypeESaIS4_EEED2Ev
FN:104,_ZNSt15__new_allocatorIN7testing8internal13edit_distance8EditTypeEED2Ev
FNDA:0,_ZNSt15__new_allocatorIN7testing8internal13edit_distance8EditTypeEED2Ev
FN:104,_ZNSt15__new_allocatorISt6vectorIdSaIdEEED2Ev
FNDA:0,_ZNSt15__new_allocatorISt6vectorIdSaIdEEED2Ev
FN:104,_ZNSt15__new_allocatorIdED2Ev
FNDA:0,_ZNSt15__new_allocatorIdED2Ev
FN:104,_ZNSt15__new_allocatorINSt7__cxx1112basic_stringIcSt11char_traitsIcESaIcEEEED2Ev
FNDA:283,_ZNSt15__new_allocatorINSt7__cxx1112basic_stringIcSt11char_traitsIcESaIcEEEED2Ev
FN:104,_ZNSt15__new_allocatorIPN7testing8internal30ParameterizedTestSuiteInfoBaseEED2Ev
FNDA:0,_ZNSt15__new_allocatorIPN7testing8internal30ParameterizedTestSuiteInfoBaseEED2Ev
FN:104,_ZNSt15__new_allocatorIN7testing14TestPartResultEED2Ev
FNDA:0,_ZNSt15__new_allocatorIN7testing14TestPartResultEED2Ev
FN:104,_ZNSt15__new_allocatorIcED2Ev
FNDA:0,_ZNSt15__new_allocatorIcED2Ev
FN:104,_ZNSt15__new_allocatorIwED2Ev
FNDA:0,_ZNSt15__new_allocatorIwED2Ev
FN:126,_ZNSt15__new_allocatorISt13_Rb_tree_nodeINSt7__cxx1112basic_stringIcSt11char_traitsIcESaIcEEEEE8allocateEyPKv
FNDA:0,_ZNSt15__new_allocatorISt13_Rb_tree_nodeINSt7__cxx1112basic_stringIcSt11char_traitsIcESaIcEEEEE8allocateEyPKv
FN:126,_ZNSt15__new_allocatorIN7testing8internal13edit_distance8EditTypeEE8allocateEyPKv
FNDA:0,_ZNSt15__new_allocatorIN7testing8internal13edit_distance8EditTypeEE8allocateEyPKv
FN:126,_ZNSt15__new_allocatorISt6vectorIdSaIdEEE8allocateEyPKv
FNDA:0,_ZNSt15__new_allocatorISt6vectorIdSaIdEEE8allocateEyPKv
FN:126,_ZNSt15__new_allocatorIPN7testing8TestInfoEE8allocateEyPKv
FNDA:8,_ZNSt15__new_allocatorIPN7testing8TestInfoEE8allocateEyPKv
FN:126,_ZNSt15__new_allocatorIN7testing14TestPartResultEE8allocateEyPKv
FNDA:0,_ZNSt15__new_allocatorIN7testing14TestPartResultEE8allocateEyPKv
FN:126,_ZNSt15__new_allocatorIPN7testing11EnvironmentEE8allocateEyPKv
FNDA:0,_ZNSt15__new_allocatorIPN7testing11EnvironmentEE8allocateEyPKv
FN:126,_ZNSt15__new_allocatorIN7testing8internal9TraceInfoEE8allocateEyPKv
FNDA:0,_ZNSt15__new_allocatorIN7testing8internal9TraceInfoEE8allocateEyPKv
FN:126,_ZNSt15__new_allocatorIPN7testing9TestSuiteEE8allocateEyPKv
FNDA:3,_ZNSt15__new_allocatorIPN7testing9TestSuiteEE8allocateEyPKv
FN:126,_ZNSt15__new_allocatorISt10shared_ptrIN7testing8internal26ThreadLocalValueHolderBaseEEE8allocateEyPKv
FNDA:0,_ZNSt15__new_allocatorISt10shared_ptrIN7testing8internal26ThreadLocalValueHolderBaseEEE8allocateEyPKv
FN:126,_ZNSt15__new_allocatorINSt7__cxx1112basic_stringIcSt11char_traitsIcESaIcEEEE8allocateEyPKv
FNDA:96,_ZNSt15__new_allocatorINSt7__cxx1112basic_stringIcSt11char_traitsIcESaIcEEEE8allocateEyPKv
FN:126,_ZNSt15__new_allocatorIdE8allocateEyPKv
FNDA:0,_ZNSt15__new_allocatorIdE8allocateEyPKv
FN:126,_ZNSt15__new_allocatorIPN7testing17TestEventListenerEE8allocateEyPKv
FNDA:2,_ZNSt15__new_allocatorIPN7testing17TestEventListenerEE8allocateEyPKv
FN:126,_ZNSt15__new_allocatorISt6vectorIN7testing8internal13edit_distance8EditTypeESaIS4_EEE8allocateEyPKv
FNDA:0,_ZNSt15__new_allocatorISt6vectorIN7testing8internal13edit_distance8EditTypeESaIS4_EEE8allocateEyPKv
FN:126,_ZNSt15__new_allocatorIyE8allocateEyPKv
FNDA:0,_ZNSt15__new_allocatorIyE8allocateEyPKv
FN:126,_ZNSt15__new_allocatorISt10_List_nodeISt4pairIcPKcEEE8allocateEyPKv
FNDA:0,_ZNSt15__new_allocatorISt10_List_nodeISt4pairIcPKcEEE8allocateEyPKv
FN:126,_ZNSt15__new_allocatorIiE8allocateEyPKv
FNDA:0,_ZNSt15__new_allocatorIiE8allocateEyPKv
FN:126,_ZNSt15__new_allocatorISt13_Rb_tree_nodeISt4pairIKNSt7__cxx1112basic_stringIcSt11char_traitsIcESaIcEEEN7testing8internal34TypeParameterizedTestSuiteRegistry30TypeParameterizedTestSuiteInfoEEEE8allocateEyPKv
FNDA:0,_ZNSt15__new_allocatorISt13_Rb_tree_nodeISt4pairIKNSt7__cxx1112basic_stringIcSt11char_traitsIcESaIcEEEN7testing8internal34TypeParameterizedTestSuiteRegistry30TypeParameterizedTestSuiteInfoEEEE8allocateEyPKv
FN:126,_ZNSt15__new_allocatorISt13_Rb_tree_nodeISt4pairIKNSt7__cxx1112basic_stringIcSt11char_traitsIcESaIcEEEyEEE8allocateEyPKv
FNDA:0,_ZNSt15__new_allocatorISt13_Rb_tree_nodeISt4pairIKNSt7__cxx1112basic_stringIcSt11char_traitsIcESaIcEEEyEEE8allocateEyPKv
FN:126,_ZNSt15__new_allocatorISt13_Rb_tree_nodeISt4pairIKmSt3mapIPKN7testing8internal15ThreadLocalBaseESt10shared_ptrINS5_26ThreadLocalValueHolderBaseEESt4lessIS8_ESaIS1_IKS8_SB_EEEEEE8allocateEyPKv
FNDA:0,_ZNSt15__new_allocatorISt13_Rb_tree_nodeISt4pairIKmSt3mapIPKN7testing8internal15ThreadLocalBaseESt10shared_ptrINS5_26ThreadLocalValueHolderBaseEESt4lessIS8_ESaIS1_IKS8_SB_EEEEEE8allocateEyPKv
FN:126,_ZNSt15__new_allocatorISt13_Rb_tree_nodeISt4pairIKPKN7testing8internal15ThreadLocalBaseESt10shared_ptrINS3_26ThreadLocalValueHolderBaseEEEEE8allocateEyPKv
FNDA:0,_ZNSt15__new_allocatorISt13_Rb_tree_nodeISt4pairIKPKN7testing8internal15ThreadLocalBaseESt10shared_ptrINS3_26ThreadLocalValueHolderBaseEEEEE8allocateEyPKv
FN:126,_ZNSt15__new_allocatorIN7testing12TestPropertyEE8allocateEyPKv
FNDA:0,_ZNSt15__new_allocatorIN7testing12TestPropertyEE8allocateEyPKv
FN:156,_ZNSt15__new_allocatorISt13_Rb_tree_nodeISt4pairIKNSt7__cxx1112basic_stringIcSt11char_traitsIcESaIcEEEyEEE10deallocateEPSA_y
FNDA:0,_ZNSt15__new_allocatorISt13_Rb_tree_nodeISt4pairIKNSt7__cxx1112basic_stringIcSt11char_traitsIcESaIcEEEyEEE10deallocateEPSA_y
FN:156,_ZNSt15__new_allocatorISt10_List_nodeISt4pairIcPKcEEE10deallocateEPS5_y
FNDA:0,_ZNSt15__new_allocatorISt10_List_nodeISt4pairIcPKcEEE10deallocateEPS5_y
FN:156,_ZNSt15__new_allocatorISt6vectorIN7testing8internal13edit_distance8EditTypeESaIS4_EEE10deallocateEPS6_y
FNDA:0,_ZNSt15__new_allocatorISt6vectorIN7testing8internal13edit_distance8EditTypeESaIS4_EEE10deallocateEPS6_y
FN:156,_ZNSt15__new_allocatorISt6vectorIdSaIdEEE10deallocateEPS2_y
FNDA:0,_ZNSt15__new_allocatorISt6vectorIdSaIdEEE10deallocateEPS2_y
FN:156,_ZNSt15__new_allocatorISt13_Rb_tree_nodeISt4pairIKmSt3mapIPKN7testing8internal15ThreadLocalBaseESt10shared_ptrINS5_26ThreadLocalValueHolderBaseEESt4lessIS8_ESaIS1_IKS8_SB_EEEEEE10deallocateEPSJ_y
FNDA:0,_ZNSt15__new_allocatorISt13_Rb_tree_nodeISt4pairIKmSt3mapIPKN7testing8internal15ThreadLocalBaseESt10shared_ptrINS5_26ThreadLocalValueHolderBaseEESt4lessIS8_ESaIS1_IKS8_SB_EEEEEE10deallocateEPSJ_y
FN:156,_ZNSt15__new_allocatorISt13_Rb_tree_nodeISt4pairIKPKN7testing8internal15ThreadLocalBaseESt10shared_ptrINS3_26ThreadLocalValueHolderBaseEEEEE10deallocateEPSC_y
FNDA:0,_ZNSt15__new_allocatorISt13_Rb_tree_nodeISt4pairIKPKN7testing8internal15ThreadLocalBaseESt10shared_ptrINS3_26ThreadLocalValueHolderBaseEEEEE10deallocateEPSC_y
FN:156,_ZNSt15__new_allocatorISt13_Rb_tree_nodeINSt7__cxx1112basic_stringIcSt11char_traitsIcESaIcEEEEE10deallocateEPS7_y
FNDA:0,_ZNSt15__new_allocatorISt13_Rb_tree_nodeINSt7__cxx1112basic_stringIcSt11char_traitsIcESaIcEEEEE10deallocateEPS7_y
FN:156,_ZNSt15__new_allocatorISt13_Rb_tree_nodeISt4pairIKNSt7__cxx1112basic_stringIcSt11char_traitsIcESaIcEEEN7testing8internal34TypeParameterizedTestSuiteRegistry30TypeParameterizedTestSuiteInfoEEEE10deallocateEPSE_y
FNDA:0,_ZNSt15__new_allocatorISt13_Rb_tree_nodeISt4pairIKNSt7__cxx1112basic_stringIcSt11char_traitsIcESaIcEEEN7testing8internal34TypeParameterizedTestSuiteRegistry30TypeParameterizedTestSuiteInfoEEEE10deallocateEPSE_y
FN:156,_ZNSt15__new_allocatorIdE10deallocateEPdy
FNDA:0,_ZNSt15__new_allocatorIdE10deallocateEPdy
FN:156,_ZNSt15__new_allocatorISt10shared_ptrIN7testing8internal26ThreadLocalValueHolderBaseEEE10deallocateEPS4_y
FNDA:0,_ZNSt15__new_allocatorISt10shared_ptrIN7testing8internal26ThreadLocalValueHolderBaseEEE10deallocateEPS4_y
FN:156,_ZNSt15__new_allocatorIPN7testing9TestSuiteEE10deallocateEPS2_y
FNDA:2,_ZNSt15__new_allocatorIPN7testing9TestSuiteEE10deallocateEPS2_y
FN:156,_ZNSt15__new_allocatorIN7testing14TestPartResultEE10deallocateEPS1_y
FNDA:0,_ZNSt15__new_allocatorIN7testing14TestPartResultEE10deallocateEPS1_y
FN:156,_ZNSt15__new_allocatorIN7testing8internal9TraceInfoEE10deallocateEPS2_y
FNDA:0,_ZNSt15__new_allocatorIN7testing8internal9TraceInfoEE10deallocateEPS2_y
FN:156,_ZNSt15__new_allocatorIPN7testing11EnvironmentEE10deallocateEPS2_y
FNDA:0,_ZNSt15__new_allocatorIPN7testing11EnvironmentEE10deallocateEPS2_y
FN:156,_ZNSt15__new_allocatorIPN7testing17TestEventListenerEE10deallocateEPS2_y
FNDA:1,_ZNSt15__new_allocatorIPN7testing17TestEventListenerEE10deallocateEPS2_y
FN:156,_ZNSt15__new_allocatorIiE10deallocateEPiy
FNDA:0,_ZNSt15__new_allocatorIiE10deallocateEPiy
FN:156,_ZNSt15__new_allocatorIPN7testing8TestInfoEE10deallocateEPS2_y
FNDA:4,_ZNSt15__new_allocatorIPN7testing8TestInfoEE10deallocateEPS2_y
FN:156,_ZNSt15__new_allocatorIN7testing12TestPropertyEE10deallocateEPS1_y
FNDA:0,_ZNSt15__new_allocatorIN7testing12TestPropertyEE10deallocateEPS1_y
FN:156,_ZNSt15__new_allocatorIyE10deallocateEPyy
FNDA:0,_ZNSt15__new_allocatorIyE10deallocateEPyy
FN:156,_ZNSt15__new_allocatorIN7testing8internal13edit_distance8EditTypeEE10deallocateEPS3_y
FNDA:0,_ZNSt15__new_allocatorIN7testing8internal13edit_distance8EditTypeEE10deallocateEPS3_y
FN:156,_ZNSt15__new_allocatorINSt7__cxx1112basic_stringIcSt11char_traitsIcESaIcEEEE10deallocateEPS5_y
FNDA:95,_ZNSt15__new_allocatorINSt7__cxx1112basic_stringIcSt11char_traitsIcESaIcEEEE10deallocateEPS5_y
FN:156,_ZNSt15__new_allocatorIPN7testing8internal30ParameterizedTestSuiteInfoBaseEE10deallocateEPS3_y
FNDA:0,_ZNSt15__new_allocatorIPN7testing8internal30ParameterizedTestSuiteInfoBaseEE10deallocateEPS3_y
FNF:66
FNH:9
DA:88,1207
DA:92,190
DA:104,0
DA:104,0
DA:104,0
DA:104,0
DA:104,0
DA:104,283
DA:104,0
DA:104,0
DA:104,0
DA:104,0
DA:104,0
DA:104,0
DA:104,0
DA:104,0
DA:104,0
DA:104,0
DA:104,0
DA:104,0
DA:104,0
DA:104,0
DA:104,0
DA:104,0
DA:104,0
DA:126,0
DA:134,0
DA:138,0
DA:139,0
DA:140,0
DA:151,0
DA:126,0
DA:134,0
DA:138,0
DA:139,0
DA:140,0
DA:151,0
DA:126,0
DA:134,0
DA:138,0
DA:139,0
DA:140,0
DA:151,0
DA:126,0
DA:134,0
DA:138,0
DA:139,0
DA:140,0
DA:151,0
DA:126,8
DA:134,8
DA:138,0
DA:139,0
DA:140,0
DA:151,8
DA:126,2
DA:134,2
DA:138,0
DA:139,0
DA:140,0
DA:151,2
DA:126,0
DA:134,0
DA:138,0
DA:139,0
DA:140,0
DA:151,0
DA:126,0
DA:134,0
DA:138,0
DA:139,0
DA:140,0
DA:151,0
DA:126,3
DA:134,3
DA:138,0
DA:139,0
DA:140,0
DA:151,3
DA:126,0
DA:134,0
DA:138,0
DA:139,0
DA:140,0
DA:151,0
DA:126,96
DA:134,96
DA:138,0
DA:139,0
DA:140,0
DA:151,96
DA:126,0
DA:134,0
DA:138,0
DA:139,0
DA:140,0
DA:151,0
DA:126,0
DA:134,0
DA:138,0
DA:139,0
DA:140,0
DA:151,0
DA:126,0
DA:134,0
DA:138,0
DA:139,0
DA:140,0
DA:151,0
DA:126,0
DA:134,0
DA:138,0
DA:139,0
DA:140,0
DA:151,0
DA:126,0
DA:134,0
DA:138,0
DA:139,0
DA:140,0
DA:151,0
DA:126,0
DA:134,0
DA:138,0
DA:139,0
DA:140,0
DA:151,0
DA:126,0
DA:134,0
DA:138,0
DA:139,0
DA:140,0
DA:151,0
DA:126,0
DA:134,0
DA:138,0
DA:139,0
DA:140,0
DA:151,0
DA:126,0
DA:134,0
DA:138,0
DA:139,0
DA:140,0
DA:151,0
DA:126,0
DA:134,0
DA:138,0
DA:139,0
DA:140,0
DA:151,0
DA:156,0
DA:172,0
DA:173,0
DA:156,0
DA:172,0
DA:173,0
DA:156,0
DA:172,0
DA:173,0
DA:156,95
DA:172,95
DA:173,95
DA:156,0
DA:172,0
DA:173,0
DA:156,0
DA:172,0
DA:173,0
DA:156,0
DA:172,0
DA:173,0
DA:156,4
DA:172,4
DA:173,4
DA:156,0
DA:172,0
DA:173,0
DA:156,1
DA:172,1
DA:173,1
DA:156,0
DA:172,0
DA:173,0
DA:156,0
DA:172,0
DA:173,0
DA:156,2
DA:172,2
DA:173,2
DA:156,0
DA:172,0
DA:173,0
DA:156,0
DA:172,0
DA:173,0
DA:156,0
DA:172,0
DA:173,0
DA:156,0
DA:172,0
DA:173,0
DA:156,0
DA:172,0
DA:173,0
DA:156,0
DA:172,0
DA:173,0
DA:156,0
DA:172,0
DA:173,0
DA:156,0
DA:172,0
DA:173,0
DA:156,0
DA:172,0
DA:173,0
DA:183,123
DA:191,18
DA:198,1
DA:233,232
LF:221
LH:31
end_of_record
SF:C:\msys64\mingw64\include\c++\14.1.0\limits
FN:1791,_ZNSt14numeric_limitsIdE8infinityEv
FNDA:0,_ZNSt14numeric_limitsIdE8infinityEv
FNF:1
FNH:0
DA:1791,0
LF:1
LH:0
end_of_record
SF:C:\workspace\matrixGenerator\build\_deps\googletest-src\googletest\include\gtest\internal\gtest-death-test-internal.h
FN:86,_ZN7testing8internal9DeathTestD2Ev
FNDA:0,_ZN7testing8internal9DeathTestD2Ev
FN:148,_ZN7testing8internal16DeathTestFactoryD2Ev
FNDA:0,_ZN7testing8internal16DeathTestFactoryD2Ev
FN:268,_ZN7testing8internal24InternalRunDeathTestFlagC1ERKNSt7__cxx1112basic_stringIcSt11char_traitsIcESaIcEEEiii
FNDA:0,_ZN7testing8internal24InternalRunDeathTestFlagC1ERKNSt7__cxx1112basic_stringIcSt11char_traitsIcESaIcEEEiii
FN:275,_ZN7testing8internal24InternalRunDeathTestFlagD1Ev
FNDA:0,_ZN7testing8internal24InternalRunDeathTestFlagD1Ev
FN:280,_ZNK7testing8internal24InternalRunDeathTestFlag4fileB5cxx11Ev
FNDA:0,_ZNK7testing8internal24InternalRunDeathTestFlag4fileB5cxx11Ev
FN:281,_ZNK7testing8internal24InternalRunDeathTestFlag4lineEv
FNDA:0,_ZNK7testing8internal24InternalRunDeathTestFlag4lineEv
FN:282,_ZNK7testing8internal24InternalRunDeathTestFlag5indexEv
FNDA:0,_ZNK7testing8internal24InternalRunDeathTestFlag5indexEv
FN:283,_ZNK7testing8internal24InternalRunDeathTestFlag8write_fdEv
FNDA:0,_ZNK7testing8internal24InternalRunDeathTestFlag8write_fdEv
FNF:8
FNH:0
DA:86,0
DA:148,0
DA:268,0
DA:272,0
DA:273,0
DA:275,0
DA:276,0
DA:277,0
DA:278,0
DA:280,0
DA:281,0
DA:282,0
DA:283,0
LF:13
LH:0
end_of_record
SF:C:\msys64\mingw64\include\c++\14.1.0\bits\stl_pair.h
FN:294,_ZNSt4pairIKNSt7__cxx1112basic_stringIcSt11char_traitsIcESaIcEEEN7testing8internal34TypeParameterizedTestSuiteRegistry30TypeParameterizedTestSuiteInfoEEC1ERKSB_
FNDA:0,_ZNSt4pairIKNSt7__cxx1112basic_stringIcSt11char_traitsIcESaIcEEEN7testing8internal34TypeParameterizedTestSuiteRegistry30TypeParameterizedTestSuiteInfoEEC1ERKSB_
FN:752,_ZNSt4pairIPSt18_Rb_tree_node_baseS1_EC1IS1_S1_Lb1EEERKS1_S5_
FNDA:0,_ZNSt4pairIPSt18_Rb_tree_node_baseS1_EC1IS1_S1_Lb1EEERKS1_S5_
FN:881,_ZNSt4pairISt17_Rb_tree_iteratorIS_IKmSt3mapIPKN7testing8internal15ThreadLocalBaseESt10shared_ptrINS4_26ThreadLocalValueHolderBaseEESt4lessIS7_ESaIS_IKS7_SA_EEEEEbEC1ISI_bLb1EEEOT_OT0_
FNDA:0,_ZNSt4pairISt17_Rb_tree_iteratorIS_IKmSt3mapIPKN7testing8internal15ThreadLocalBaseESt10shared_ptrINS4_26ThreadLocalValueHolderBaseEESt4lessIS7_ESaIS_IKS7_SA_EEEEEbEC1ISI_bLb1EEEOT_OT0_
FN:881,_ZNSt4pairImPvEC1IRmRS0_Lb1EEEOT_OT0_
FNDA:0,_ZNSt4pairImPvEC1IRmRS0_Lb1EEEOT_OT0_
FN:881,_ZNSt4pairISt23_Rb_tree_const_iteratorINSt7__cxx1112basic_stringIcSt11char_traitsIcESaIcEEEEbEC1IRSt17_Rb_tree_iteratorIS6_ERbLb1EEEOT_OT0_
FNDA:0,_ZNSt4pairISt23_Rb_tree_const_iteratorINSt7__cxx1112basic_stringIcSt11char_traitsIcESaIcEEEEbEC1IRSt17_Rb_tree_iteratorIS6_ERbLb1EEEOT_OT0_
FN:881,_ZNSt4pairIcPKcEC1IcRS1_Lb1EEEOT_OT0_
FNDA:0,_ZNSt4pairIcPKcEC1IcRS1_Lb1EEEOT_OT0_
FN:881,_ZNSt4pairImSt3mapIPKN7testing8internal15ThreadLocalBaseESt10shared_ptrINS2_26ThreadLocalValueHolderBaseEESt4lessIS5_ESaIS_IKS5_S8_EEEEC1IRmSE_Lb1EEEOT_OT0_
FNDA:0,_ZNSt4pairImSt3mapIPKN7testing8internal15ThreadLocalBaseESt10shared_ptrINS2_26ThreadLocalValueHolderBaseEESt4lessIS5_ESaIS_IKS5_S8_EEEEC1IRmSE_Lb1EEEOT_OT0_
FN:881,_ZNSt4pairIPKN7testing8internal15ThreadLocalBaseESt10shared_ptrINS1_26ThreadLocalValueHolderBaseEEEC1IRS4_S7_Lb1EEEOT_OT0_
FNDA:0,_ZNSt4pairIPKN7testing8internal15ThreadLocalBaseESt10shared_ptrINS1_26ThreadLocalValueHolderBaseEEEC1IRS4_S7_Lb1EEEOT_OT0_
FN:881,_ZNSt4pairISt17_Rb_tree_iteratorINSt7__cxx1112basic_stringIcSt11char_traitsIcESaIcEEEEbEC1IS7_bLb1EEEOT_OT0_
FNDA:0,_ZNSt4pairISt17_Rb_tree_iteratorINSt7__cxx1112basic_stringIcSt11char_traitsIcESaIcEEEEbEC1IS7_bLb1EEEOT_OT0_
FN:881,_ZNSt4pairISt17_Rb_tree_iteratorIS_IKNSt7__cxx1112basic_stringIcSt11char_traitsIcESaIcEEEN7testing8internal34TypeParameterizedTestSuiteRegistry30TypeParameterizedTestSuiteInfoEEEbEC1ISD_bLb1EEEOT_OT0_
FNDA:0,_ZNSt4pairISt17_Rb_tree_iteratorIS_IKNSt7__cxx1112basic_stringIcSt11char_traitsIcESaIcEEEN7testing8internal34TypeParameterizedTestSuiteRegistry30TypeParameterizedTestSuiteInfoEEEbEC1ISD_bLb1EEEOT_OT0_
FN:881,_ZNSt4pairISt17_Rb_tree_iteratorIS_IKPKN7testing8internal15ThreadLocalBaseESt10shared_ptrINS2_26ThreadLocalValueHolderBaseEEEEbEC1ISB_bLb1EEEOT_OT0_
FNDA:0,_ZNSt4pairISt17_Rb_tree_iteratorIS_IKPKN7testing8internal15ThreadLocalBaseESt10shared_ptrINS2_26ThreadLocalValueHolderBaseEEEEbEC1ISB_bLb1EEEOT_OT0_
FN:881,_ZNSt4pairIPSt18_Rb_tree_node_baseS1_EC1IRPSt13_Rb_tree_nodeINSt7__cxx1112basic_stringIcSt11char_traitsIcESaIcEEEERS1_Lb1EEEOT_OT0_
FNDA:0,_ZNSt4pairIPSt18_Rb_tree_node_baseS1_EC1IRPSt13_Rb_tree_nodeINSt7__cxx1112basic_stringIcSt11char_traitsIcESaIcEEEERS1_Lb1EEEOT_OT0_
FN:881,_ZNSt4pairIPSt18_Rb_tree_node_baseS1_EC1IRPSt13_Rb_tree_nodeIS_IKNSt7__cxx1112basic_stringIcSt11char_traitsIcESaIcEEEN7testing8internal34TypeParameterizedTestSuiteRegistry30TypeParameterizedTestSuiteInfoEEERS1_Lb1EEEOT_OT0_
FNDA:0,_ZNSt4pairIPSt18_Rb_tree_node_baseS1_EC1IRPSt13_Rb_tree_nodeIS_IKNSt7__cxx1112basic_stringIcSt11char_traitsIcESaIcEEEN7testing8internal34TypeParameterizedTestSuiteRegistry30TypeParameterizedTestSuiteInfoEEERS1_Lb1EEEOT_OT0_
FN:881,_ZNSt4pairIPSt18_Rb_tree_node_baseS1_EC1IRS1_S4_Lb1EEEOT_OT0_
FNDA:0,_ZNSt4pairIPSt18_Rb_tree_node_baseS1_EC1IRS1_S4_Lb1EEEOT_OT0_
FN:881,_ZNSt4pairIPSt18_Rb_tree_node_baseS1_EC1IRPSt13_Rb_tree_nodeIS_IKmSt3mapIPKN7testing8internal15ThreadLocalBaseESt10shared_ptrINS8_26ThreadLocalValueHolderBaseEESt4lessISB_ESaIS_IKSB_SE_EEEEERS1_Lb1EEEOT_OT0_
FNDA:0,_ZNSt4pairIPSt18_Rb_tree_node_baseS1_EC1IRPSt13_Rb_tree_nodeIS_IKmSt3mapIPKN7testing8internal15ThreadLocalBaseESt10shared_ptrINS8_26ThreadLocalValueHolderBaseEESt4lessISB_ESaIS_IKSB_SE_EEEEERS1_Lb1EEEOT_OT0_
FN:881,_ZNSt4pairIPSt18_Rb_tree_node_baseS1_EC1IRPSt13_Rb_tree_nodeIS_IKPKN7testing8internal15ThreadLocalBaseESt10shared_ptrINS6_26ThreadLocalValueHolderBaseEEEERS1_Lb1EEEOT_OT0_
FNDA:0,_ZNSt4pairIPSt18_Rb_tree_node_baseS1_EC1IRPSt13_Rb_tree_nodeIS_IKPKN7testing8internal15ThreadLocalBaseESt10shared_ptrINS6_26ThreadLocalValueHolderBaseEEEERS1_Lb1EEEOT_OT0_
FN:881,_ZNSt4pairIPSt18_Rb_tree_node_baseS1_EC1IRPSt13_Rb_tree_nodeIS_IKNSt7__cxx1112basic_stringIcSt11char_traitsIcESaIcEEEyEERS1_Lb1EEEOT_OT0_
FNDA:0,_ZNSt4pairIPSt18_Rb_tree_node_baseS1_EC1IRPSt13_Rb_tree_nodeIS_IKNSt7__cxx1112basic_stringIcSt11char_traitsIcESaIcEEEyEERS1_Lb1EEEOT_OT0_
FN:881,_ZNSt4pairIKNSt7__cxx1112basic_stringIcSt11char_traitsIcESaIcEEEN7testing8internal34TypeParameterizedTestSuiteRegistry30TypeParameterizedTestSuiteInfoEEC1IS5_SA_Lb1EEEOT_OT0_
FNDA:0,_ZNSt4pairIKNSt7__cxx1112basic_stringIcSt11char_traitsIcESaIcEEEN7testing8internal34TypeParameterizedTestSuiteRegistry30TypeParameterizedTestSuiteInfoEEC1IS5_SA_Lb1EEEOT_OT0_
FN:902,_ZNSt4pairIKPKN7testing8internal15ThreadLocalBaseESt10shared_ptrINS1_26ThreadLocalValueHolderBaseEEEC1IS4_S8_Lb1EEEOS_IT_T0_E
FNDA:0,_ZNSt4pairIKPKN7testing8internal15ThreadLocalBaseESt10shared_ptrINS1_26ThreadLocalValueHolderBaseEEEC1IS4_S8_Lb1EEEOS_IT_T0_E
FN:902,_ZNSt4pairIKmSt3mapIPKN7testing8internal15ThreadLocalBaseESt10shared_ptrINS3_26ThreadLocalValueHolderBaseEESt4lessIS6_ESaIS_IKS6_S9_EEEEC1ImSF_Lb1EEEOS_IT_T0_E
FNDA:0,_ZNSt4pairIKmSt3mapIPKN7testing8internal15ThreadLocalBaseESt10shared_ptrINS3_26ThreadLocalValueHolderBaseEESt4lessIS6_ESaIS_IKS6_S9_EEEEC1ImSF_Lb1EEEOS_IT_T0_E
FN:1132,_ZSt9make_pairIRPKN7testing8internal15ThreadLocalBaseESt10shared_ptrINS1_26ThreadLocalValueHolderBaseEEESt4pairINSt25__strip_reference_wrapperINSt5decayIT_E4typeEE6__typeENSA_INSB_IT0_E4typeEE6__typeEEOSC_OSH_
FNDA:0,_ZSt9make_pairIRPKN7testing8internal15ThreadLocalBaseESt10shared_ptrINS1_26ThreadLocalValueHolderBaseEEESt4pairINSt25__strip_reference_wrapperINSt5decayIT_E4typeEE6__typeENSA_INSB_IT0_E4typeEE6__typeEEOSC_OSH_
FN:1132,_ZSt9make_pairIRmSt3mapIPKN7testing8internal15ThreadLocalBaseESt10shared_ptrINS3_26ThreadLocalValueHolderBaseEESt4lessIS6_ESaISt4pairIKS6_S9_EEEESC_INSt25__strip_reference_wrapperINSt5decayIT_E4typeEE6__typeENSH_INSI_IT0_E4typeEE6__typeEEOSJ_OSO_
FNDA:0,_ZSt9make_pairIRmSt3mapIPKN7testing8internal15ThreadLocalBaseESt10shared_ptrINS3_26ThreadLocalValueHolderBaseEESt4lessIS6_ESaISt4pairIKS6_S9_EEEESC_INSt25__strip_reference_wrapperINSt5decayIT_E4typeEE6__typeENSH_INSI_IT0_E4typeEE6__typeEEOSJ_OSO_
FN:1132,_ZSt9make_pairIcRPKcESt4pairINSt25__strip_reference_wrapperINSt5decayIT_E4typeEE6__typeENS4_INS5_IT0_E4typeEE6__typeEEOS6_OSB_
FNDA:0,_ZSt9make_pairIcRPKcESt4pairINSt25__strip_reference_wrapperINSt5decayIT_E4typeEE6__typeENS4_INS5_IT0_E4typeEE6__typeEEOS6_OSB_
FNF:23
FNH:0
DA:294,0
DA:752,0
DA:753,0
DA:881,0
DA:882,0
DA:883,0
DA:881,0
DA:882,0
DA:883,0
DA:881,0
DA:882,0
DA:883,0
DA:881,0
DA:882,0
DA:883,0
DA:881,0
DA:882,0
DA:883,0
DA:881,0
DA:882,0
DA:883,0
DA:881,0
DA:882,0
DA:883,0
DA:881,0
DA:882,0
DA:883,0
DA:881,0
DA:882,0
DA:883,0
DA:881,0
DA:882,0
DA:883,0
DA:881,0
DA:882,0
DA:883,0
DA:881,0
DA:882,0
DA:883,0
DA:881,0
DA:882,0
DA:883,0
DA:881,0
DA:882,0
DA:883,0
DA:881,0
DA:882,0
DA:883,0
DA:881,0
DA:882,0
DA:883,0
DA:902,0
DA:903,0
DA:904,0
DA:905,0
DA:902,0
DA:903,0
DA:904,0
DA:905,0
DA:1132,0
DA:1137,0
DA:1132,0
DA:1137,0
DA:1132,0
DA:1137,0
LF:65
LH:0
end_of_record
SF:C:\msys64\mingw64\include\c++\14.1.0\bits\stl_list.h
FN:110,_ZNSt8__detail17_List_node_headerC1Ev
FNDA:0,_ZNSt8__detail17_List_node_headerC1Ev
FN:150,_ZNSt8__detail17_List_node_header7_M_initEv
FNDA:0,_ZNSt8__detail17_List_node_header7_M_initEv
FN:238,_ZNSt10_List_nodeISt4pairIcPKcEE9_M_valptrEv
FNDA:0,_ZNSt10_List_nodeISt4pairIcPKcEE9_M_valptrEv
FN:239,_ZNKSt10_List_nodeISt4pairIcPKcEE9_M_valptrEv
FNDA:0,_ZNKSt10_List_nodeISt4pairIcPKcEE9_M_valptrEv
FN:268,_ZNSt14_List_iteratorISt4pairIcPKcEEC1EPNSt8__detail15_List_node_baseE
FNDA:0,_ZNSt14_List_iteratorISt4pairIcPKcEEC1EPNSt8__detail15_List_node_baseE
FN:358,_ZNSt20_List_const_iteratorISt4pairIcPKcEEC1ERKSt14_List_iteratorIS3_E
FNDA:0,_ZNSt20_List_const_iteratorISt4pairIcPKcEEC1ERKSt14_List_iteratorIS3_E
FN:362,_ZNKSt20_List_const_iteratorISt4pairIcPKcEE13_M_const_castEv
FNDA:0,_ZNKSt20_List_const_iteratorISt4pairIcPKcEE13_M_const_castEv
FN:373,_ZNKSt20_List_const_iteratorISt4pairIcPKcEEptEv
FNDA:0,_ZNKSt20_List_const_iteratorISt4pairIcPKcEEptEv
FN:377,_ZNSt20_List_const_iteratorISt4pairIcPKcEEppEv
FNDA:0,_ZNSt20_List_const_iteratorISt4pairIcPKcEEppEv
FN:414,_ZStneRKSt20_List_const_iteratorISt4pairIcPKcEES6_
FNDA:0,_ZStneRKSt20_List_const_iteratorISt4pairIcPKcEES6_
FN:455,_ZNSt7__cxx1110_List_baseISt4pairIcPKcESaIS4_EE10_List_implC1Ev
FNDA:0,_ZNSt7__cxx1110_List_baseISt4pairIcPKcESaIS4_EE10_List_implC1Ev
FN:480,_ZNKSt7__cxx1110_List_baseISt4pairIcPKcESaIS4_EE11_M_get_sizeEv
FNDA:0,_ZNKSt7__cxx1110_List_baseISt4pairIcPKcESaIS4_EE11_M_get_sizeEv
FN:482,_ZNSt7__cxx1110_List_baseISt4pairIcPKcESaIS4_EE11_M_set_sizeEy
FNDA:0,_ZNSt7__cxx1110_List_baseISt4pairIcPKcESaIS4_EE11_M_set_sizeEy
FN:484,_ZNSt7__cxx1110_List_baseISt4pairIcPKcESaIS4_EE11_M_inc_sizeEy
FNDA:0,_ZNSt7__cxx1110_List_baseISt4pairIcPKcESaIS4_EE11_M_inc_sizeEy
FN:517,_ZNSt7__cxx1110_List_baseISt4pairIcPKcESaIS4_EE11_M_get_nodeEv
FNDA:0,_ZNSt7__cxx1110_List_baseISt4pairIcPKcESaIS4_EE11_M_get_nodeEv
FN:521,_ZNSt7__cxx1110_List_baseISt4pairIcPKcESaIS4_EE11_M_put_nodeEPSt10_List_nodeIS4_E
FNDA:0,_ZNSt7__cxx1110_List_baseISt4pairIcPKcESaIS4_EE11_M_put_nodeEPSt10_List_nodeIS4_E
FN:528,_ZNSt7__cxx1110_List_baseISt4pairIcPKcESaIS4_EE21_M_get_Node_allocatorEv
FNDA:0,_ZNSt7__cxx1110_List_baseISt4pairIcPKcESaIS4_EE21_M_get_Node_allocatorEv
FN:532,_ZNKSt7__cxx1110_List_baseISt4pairIcPKcESaIS4_EE21_M_get_Node_allocatorEv
FNDA:0,_ZNKSt7__cxx1110_List_baseISt4pairIcPKcESaIS4_EE21_M_get_Node_allocatorEv
FN:536,_ZNSt7__cxx1110_List_baseISt4pairIcPKcESaIS4_EEC2Ev
FNDA:0,_ZNSt7__cxx1110_List_baseISt4pairIcPKcESaIS4_EEC2Ev
FN:574,_ZNSt7__cxx1110_List_baseISt4pairIcPKcESaIS4_EED2Ev
FNDA:0,_ZNSt7__cxx1110_List_baseISt4pairIcPKcESaIS4_EED2Ev
FN:708,_ZNSt7__cxx114listISt4pairIcPKcESaIS4_EE14_M_create_nodeIJS4_EEEPSt10_List_nodeIS4_EDpOT_
FNDA:0,_ZNSt7__cxx114listISt4pairIcPKcESaIS4_EE14_M_create_nodeIJS4_EEEPSt10_List_nodeIS4_EDpOT_
FN:749,_ZNSt7__cxx114listISt4pairIcPKcESaIS4_EEC1Ev
FNDA:0,_ZNSt7__cxx114listISt4pairIcPKcESaIS4_EEC1Ev
FN:903,_ZNSt7__cxx114listISt4pairIcPKcESaIS4_EED1Ev
FNDA:0,_ZNSt7__cxx114listISt4pairIcPKcESaIS4_EED1Ev
FN:1022,_ZNSt7__cxx114listISt4pairIcPKcESaIS4_EE5beginEv
FNDA:0,_ZNSt7__cxx114listISt4pairIcPKcESaIS4_EE5beginEv
FN:1042,_ZNSt7__cxx114listISt4pairIcPKcESaIS4_EE3endEv
FNDA:0,_ZNSt7__cxx114listISt4pairIcPKcESaIS4_EE3endEv
FN:1143,_ZNKSt7__cxx114listISt4pairIcPKcESaIS4_EE5emptyEv
FNDA:0,_ZNKSt7__cxx114listISt4pairIcPKcESaIS4_EE5emptyEv
FN:1310,_ZNSt7__cxx114listISt4pairIcPKcESaIS4_EE9push_backEOS4_
FNDA:0,_ZNSt7__cxx114listISt4pairIcPKcESaIS4_EE9push_backEOS4_
FN:1612,_ZNSt7__cxx114listISt4pairIcPKcESaIS4_EE6spliceESt20_List_const_iteratorIS4_EOS6_
FNDA:0,_ZNSt7__cxx114listISt4pairIcPKcESaIS4_EE6spliceESt20_List_const_iteratorIS4_EOS6_
FN:1631,_ZNSt7__cxx114listISt4pairIcPKcESaIS4_EE6spliceESt20_List_const_iteratorIS4_ERS6_
FNDA:0,_ZNSt7__cxx114listISt4pairIcPKcESaIS4_EE6spliceESt20_List_const_iteratorIS4_ERS6_
FN:1987,_ZNSt7__cxx114listISt4pairIcPKcESaIS4_EE11_M_transferESt14_List_iteratorIS4_ES8_S8_
FNDA:0,_ZNSt7__cxx114listISt4pairIcPKcESaIS4_EE11_M_transferESt14_List_iteratorIS4_ES8_S8_
FN:2002,_ZNSt7__cxx114listISt4pairIcPKcESaIS4_EE9_M_insertIJS4_EEEvSt14_List_iteratorIS4_EDpOT_
FNDA:0,_ZNSt7__cxx114listISt4pairIcPKcESaIS4_EE9_M_insertIJS4_EEEvSt14_List_iteratorIS4_EDpOT_
FN:2028,_ZNSt7__cxx114listISt4pairIcPKcESaIS4_EE25_M_check_equal_allocatorsERKS6_
FNDA:0,_ZNSt7__cxx114listISt4pairIcPKcESaIS4_EE25_M_check_equal_allocatorsERKS6_
FNF:32
FNH:0
DA:110,0
DA:111,0
DA:150,0
DA:152,0
DA:154,0
DA:156,0
DA:238,0
DA:239,0
DA:268,0
DA:269,0
DA:358,0
DA:359,0
DA:362,0
DA:363,0
DA:373,0
DA:374,0
DA:377,0
DA:379,0
DA:380,0
DA:414,0
DA:415,0
DA:455,0
DA:457,0
DA:458,0
DA:480,0
DA:482,0
DA:484,0
DA:517,0
DA:518,0
DA:521,0
DA:522,0
DA:528,0
DA:529,0
DA:532,0
DA:533,0
DA:536,0
DA:574,0
DA:575,0
DA:708,0
DA:710,0
DA:711,0
DA:712,0
DA:713,0
DA:715,0
DA:716,0
DA:717,0
DA:749,0
DA:903,0
DA:1022,0
DA:1023,0
DA:1042,0
DA:1043,0
DA:1143,0
DA:1144,0
DA:1310,0
DA:1311,0
DA:1612,0
DA:1617,0
DA:1619,0
DA:1621,0
DA:1624,0
DA:1625,0
DA:1627,0
DA:1631,0
DA:1632,0
DA:1987,0
DA:1988,0
DA:2002,0
DA:2004,0
DA:2005,0
DA:2006,0
DA:2007,0
DA:2028,0
DA:2030,0
DA:2031,0
DA:2032,0
LF:76
LH:0
end_of_record
SF:C:\workspace\matrixGenerator\build\_deps\googletest-src\googletest\include\gtest\gtest-test-part.h
FN:63,_ZN7testing14TestPartResultC1ENS0_4TypeEPKciS3_
FNDA:0,_ZN7testing14TestPartResultC1ENS0_4TypeEPKciS3_
FN:72,_ZNK7testing14TestPartResult4typeEv
FNDA:0,_ZNK7testing14TestPartResult4typeEv
FN:76,_ZNK7testing14TestPartResult9file_nameEv
FNDA:0,_ZNK7testing14TestPartResult9file_nameEv
FN:82,_ZNK7testing14TestPartResult11line_numberEv
FNDA:0,_ZNK7testing14TestPartResult11line_numberEv
FN:85,_ZNK7testing14TestPartResult7summaryEv
FNDA:0,_ZNK7testing14TestPartResult7summaryEv
FN:88,_ZNK7testing14TestPartResult7messageEv
FNDA:0,_ZNK7testing14TestPartResult7messageEv
FN:91,_ZNK7testing14TestPartResult7skippedEv
FNDA:0,_ZNK7testing14TestPartResult7skippedEv
FN:97,_ZNK7testing14TestPartResult17nonfatally_failedEv
FNDA:0,_ZNK7testing14TestPartResult17nonfatally_failedEv
FN:100,_ZNK7testing14TestPartResult14fatally_failedEv
FNDA:0,_ZNK7testing14TestPartResult14fatally_failedEv
FN:103,_ZNK7testing14TestPartResult6failedEv
FNDA:0,_ZNK7testing14TestPartResult6failedEv
FN:151,_ZN7testing31TestPartResultReporterInterfaceD2Ev
FNDA:0,_ZN7testing31TestPartResultReporterInterfaceD2Ev
FNF:11
FNH:0
DA:63,0
DA:65,0
DA:66,0
DA:67,0
DA:68,0
DA:69,0
DA:72,0
DA:76,0
DA:77,0
DA:82,0
DA:85,0
DA:88,0
DA:91,0
DA:97,0
DA:100,0
DA:103,0
DA:151,0
LF:17
LH:0
end_of_record
SF:C:\msys64\mingw64\include\c++\14.1.0\bits\char_traits.h
FN:366,_ZNSt11char_traitsIcE7compareEPKcS2_y
FNDA:0,_ZNSt11char_traitsIcE7compareEPKcS2_y
FN:385,_ZNSt11char_traitsIcE6lengthEPKc
FNDA:0,_ZNSt11char_traitsIcE6lengthEPKc
FN:419,_ZNSt11char_traitsIcE4copyEPcPKcy
FNDA:0,_ZNSt11char_traitsIcE4copyEPcPKcy
FN:516,_ZNSt11char_traitsIwE6lengthEPKw
FNDA:0,_ZNSt11char_traitsIwE6lengthEPKw
FN:771,_ZNSt11char_traitsIDsE2eqERKDsS2_
FNDA:0,_ZNSt11char_traitsIDsE2eqERKDsS2_
FN:790,_ZNSt11char_traitsIDsE6lengthEPKDs
FNDA:0,_ZNSt11char_traitsIDsE6lengthEPKDs
FN:898,_ZNSt11char_traitsIDiE2eqERKDiS2_
FNDA:0,_ZNSt11char_traitsIDiE2eqERKDiS2_
FN:917,_ZNSt11char_traitsIDiE6lengthEPKDi
FNDA:0,_ZNSt11char_traitsIDiE6lengthEPKDi
FNF:8
FNH:0
DA:366,0
DA:368,0
DA:369,0
DA:381,0
DA:385,0
DA:391,0
DA:419,0
DA:421,0
DA:422,0
DA:427,0
DA:516,0
DA:522,0
DA:771,0
DA:772,0
DA:790,0
DA:792,0
DA:793,0
DA:794,0
DA:795,0
DA:898,0
DA:899,0
DA:917,0
DA:919,0
DA:920,0
DA:921,0
DA:922,0
LF:26
LH:0
end_of_record
SF:C:\msys64\mingw64\include\c++\14.1.0\bits\stl_iterator.h
FN:188,_ZNSt16reverse_iteratorIN9__gnu_cxx17__normal_iteratorIPPN7testing9TestSuiteESt6vectorIS4_SaIS4_EEEEEC1ES9_
FNDA:27,_ZNSt16reverse_iteratorIN9__gnu_cxx17__normal_iteratorIPPN7testing9TestSuiteESt6vectorIS4_SaIS4_EEEEEC1ES9_
FN:188,_ZNSt16reverse_iteratorIN9__gnu_cxx17__normal_iteratorIPPN7testing11EnvironmentESt6vectorIS4_SaIS4_EEEEEC1ES9_
FNDA:2,_ZNSt16reverse_iteratorIN9__gnu_cxx17__normal_iteratorIPPN7testing11EnvironmentESt6vectorIS4_SaIS4_EEEEEC1ES9_
FN:197,_ZNSt16reverse_iteratorIN9__gnu_cxx17__normal_iteratorIPPN7testing9TestSuiteESt6vectorIS4_SaIS4_EEEEEC1ERKSA_
FNDA:56,_ZNSt16reverse_iteratorIN9__gnu_cxx17__normal_iteratorIPPN7testing9TestSuiteESt6vectorIS4_SaIS4_EEEEEC1ERKSA_
FN:241,_ZNKSt16reverse_iteratorIN9__gnu_cxx17__normal_iteratorIPPN7testing9TestSuiteESt6vectorIS4_SaIS4_EEEEE4baseEv
FNDA:54,_ZNKSt16reverse_iteratorIN9__gnu_cxx17__normal_iteratorIPPN7testing9TestSuiteESt6vectorIS4_SaIS4_EEEEE4baseEv
FN:241,_ZNKSt16reverse_iteratorIN9__gnu_cxx17__normal_iteratorIPPN7testing11EnvironmentESt6vectorIS4_SaIS4_EEEEE4baseEv
FNDA:2,_ZNKSt16reverse_iteratorIN9__gnu_cxx17__normal_iteratorIPPN7testing11EnvironmentESt6vectorIS4_SaIS4_EEEEE4baseEv
FN:257,_ZNKSt16reverse_iteratorIN9__gnu_cxx17__normal_iteratorIPPN7testing11EnvironmentESt6vectorIS4_SaIS4_EEEEEdeEv
FNDA:0,_ZNKSt16reverse_iteratorIN9__gnu_cxx17__normal_iteratorIPPN7testing11EnvironmentESt6vectorIS4_SaIS4_EEEEEdeEv
FN:257,_ZNKSt16reverse_iteratorIN9__gnu_cxx17__normal_iteratorIPPN7testing9TestSuiteESt6vectorIS4_SaIS4_EEEEEdeEv
FNDA:16,_ZNKSt16reverse_iteratorIN9__gnu_cxx17__normal_iteratorIPPN7testing9TestSuiteESt6vectorIS4_SaIS4_EEEEEdeEv
FN:289,_ZNSt16reverse_iteratorIN9__gnu_cxx17__normal_iteratorIPPN7testing11EnvironmentESt6vectorIS4_SaIS4_EEEEEppEv
FNDA:0,_ZNSt16reverse_iteratorIN9__gnu_cxx17__normal_iteratorIPPN7testing11EnvironmentESt6vectorIS4_SaIS4_EEEEEppEv
FN:289,_ZNSt16reverse_iteratorIN9__gnu_cxx17__normal_iteratorIPPN7testing9TestSuiteESt6vectorIS4_SaIS4_EEEEEppEv
FNDA:6,_ZNSt16reverse_iteratorIN9__gnu_cxx17__normal_iteratorIPPN7testing9TestSuiteESt6vectorIS4_SaIS4_EEEEEppEv
FN:441,_ZSteqIN9__gnu_cxx17__normal_iteratorIPPN7testing11EnvironmentESt6vectorIS4_SaIS4_EEEEEbRKSt16reverse_iteratorIT_ESE_
FNDA:1,_ZSteqIN9__gnu_cxx17__normal_iteratorIPPN7testing11EnvironmentESt6vectorIS4_SaIS4_EEEEEbRKSt16reverse_iteratorIT_ESE_
FN:441,_ZSteqIN9__gnu_cxx17__normal_iteratorIPPN7testing9TestSuiteESt6vectorIS4_SaIS4_EEEEEbRKSt16reverse_iteratorIT_ESE_
FNDA:9,_ZSteqIN9__gnu_cxx17__normal_iteratorIPPN7testing9TestSuiteESt6vectorIS4_SaIS4_EEEEEbRKSt16reverse_iteratorIT_ESE_
FN:455,_ZStneIN9__gnu_cxx17__normal_iteratorIPPN7testing9TestSuiteESt6vectorIS4_SaIS4_EEEEEbRKSt16reverse_iteratorIT_ESE_
FNDA:9,_ZStneIN9__gnu_cxx17__normal_iteratorIPPN7testing9TestSuiteESt6vectorIS4_SaIS4_EEEEEbRKSt16reverse_iteratorIT_ESE_
FN:455,_ZStneIN9__gnu_cxx17__normal_iteratorIPPN7testing11EnvironmentESt6vectorIS4_SaIS4_EEEEEbRKSt16reverse_iteratorIT_ESE_
FNDA:1,_ZStneIN9__gnu_cxx17__normal_iteratorIPPN7testing11EnvironmentESt6vectorIS4_SaIS4_EEEEEbRKSt16reverse_iteratorIT_ESE_
FN:618,_ZStmiIN9__gnu_cxx17__normal_iteratorIPPN7testing9TestSuiteESt6vectorIS4_SaIS4_EEEES9_EDTmicldtfp0_4baseEcldtfp_4baseEERKSt16reverse_iteratorIT_ERKSB_IT0_E
FNDA:18,_ZStmiIN9__gnu_cxx17__normal_iteratorIPPN7testing9TestSuiteESt6vectorIS4_SaIS4_EEEES9_EDTmicldtfp0_4baseEcldtfp_4baseEERKSt16reverse_iteratorIT_ERKSB_IT0_E
FN:1063,_ZN9__gnu_cxx17__normal_iteratorIPKPN7testing9TestSuiteESt6vectorIS3_SaIS3_EEEC1Ev
FNDA:0,_ZN9__gnu_cxx17__normal_iteratorIPKPN7testing9TestSuiteESt6vectorIS3_SaIS3_EEEC1Ev
FN:1067,_ZN9__gnu_cxx17__normal_iteratorIPNSt7__cxx1112basic_stringIcSt11char_traitsIcESaIcEEESt6vectorIS6_SaIS6_EEEC1ERKS7_
FNDA:4,_ZN9__gnu_cxx17__normal_iteratorIPNSt7__cxx1112basic_stringIcSt11char_traitsIcESaIcEEESt6vectorIS6_SaIS6_EEEC1ERKS7_
FN:1067,_ZN9__gnu_cxx17__normal_iteratorIPN7testing12TestPropertyESt6vectorIS2_SaIS2_EEEC1ERKS3_
FNDA:0,_ZN9__gnu_cxx17__normal_iteratorIPN7testing12TestPropertyESt6vectorIS2_SaIS2_EEEC1ERKS3_
FN:1067,_ZN9__gnu_cxx17__normal_iteratorIPPN7testing17TestEventListenerESt6vectorIS3_SaIS3_EEEC1ERKS4_
FNDA:4,_ZN9__gnu_cxx17__normal_iteratorIPPN7testing17TestEventListenerESt6vectorIS3_SaIS3_EEEC1ERKS4_
FN:1067,_ZN9__gnu_cxx17__normal_iteratorIPKN7testing8internal13edit_distance8EditTypeESt6vectorIS4_SaIS4_EEEC1ERKS6_
FNDA:0,_ZN9__gnu_cxx17__normal_iteratorIPKN7testing8internal13edit_distance8EditTypeESt6vectorIS4_SaIS4_EEEC1ERKS6_
FN:1067,_ZN9__gnu_cxx17__normal_iteratorIPN7testing8internal13edit_distance8EditTypeESt6vectorIS4_SaIS4_EEEC1ERKS5_
FNDA:0,_ZN9__gnu_cxx17__normal_iteratorIPN7testing8internal13edit_distance8EditTypeESt6vectorIS4_SaIS4_EEEC1ERKS5_
FN:1067,_ZN9__gnu_cxx17__normal_iteratorIPcNSt7__cxx1112basic_stringIcSt11char_traitsIcESaIcEEEEC1ERKS1_
FNDA:247,_ZN9__gnu_cxx17__normal_iteratorIPcNSt7__cxx1112basic_stringIcSt11char_traitsIcESaIcEEEEC1ERKS1_
FN:1067,_ZN9__gnu_cxx17__normal_iteratorIPKPN7testing11EnvironmentESt6vectorIS3_SaIS3_EEEC1ERKS5_
FNDA:2,_ZN9__gnu_cxx17__normal_iteratorIPKPN7testing11EnvironmentESt6vectorIS3_SaIS3_EEEC1ERKS5_
FN:1067,_ZN9__gnu_cxx17__normal_iteratorIPKNSt7__cxx1112basic_stringIcSt11char_traitsIcESaIcEEESt6vectorIS6_SaIS6_EEEC1ERKS8_
FNDA:283,_ZN9__gnu_cxx17__normal_iteratorIPKNSt7__cxx1112basic_stringIcSt11char_traitsIcESaIcEEESt6vectorIS6_SaIS6_EEEC1ERKS8_
FN:1067,_ZN9__gnu_cxx17__normal_iteratorIPPN7testing11EnvironmentESt6vectorIS3_SaIS3_EEEC1ERKS4_
FNDA:2,_ZN9__gnu_cxx17__normal_iteratorIPPN7testing11EnvironmentESt6vectorIS3_SaIS3_EEEC1ERKS4_
FN:1067,_ZN9__gnu_cxx17__normal_iteratorIPiSt6vectorIiSaIiEEEC1ERKS1_
FNDA:0,_ZN9__gnu_cxx17__normal_iteratorIPiSt6vectorIiSaIiEEEC1ERKS1_
FN:1067,_ZN9__gnu_cxx17__normal_iteratorIPySt6vectorIySaIyEEEC1ERKS1_
FNDA:0,_ZN9__gnu_cxx17__normal_iteratorIPySt6vectorIySaIyEEEC1ERKS1_
FN:1067,_ZN9__gnu_cxx17__normal_iteratorIPPN7testing8internal30ParameterizedTestSuiteInfoBaseESt6vectorIS4_SaIS4_EEEC1ERKS5_
FNDA:2,_ZN9__gnu_cxx17__normal_iteratorIPPN7testing8internal30ParameterizedTestSuiteInfoBaseESt6vectorIS4_SaIS4_EEEC1ERKS5_
FN:1067,_ZN9__gnu_cxx17__normal_iteratorIPSt10shared_ptrIN7testing8internal26ThreadLocalValueHolderBaseEESt6vectorIS5_SaIS5_EEEC1ERKS6_
FNDA:0,_ZN9__gnu_cxx17__normal_iteratorIPSt10shared_ptrIN7testing8internal26ThreadLocalValueHolderBaseEESt6vectorIS5_SaIS5_EEEC1ERKS6_
FN:1067,_ZN9__gnu_cxx17__normal_iteratorIPKPN7testing9TestSuiteESt6vectorIS3_SaIS3_EEEC1ERKS5_
FNDA:26,_ZN9__gnu_cxx17__normal_iteratorIPKPN7testing9TestSuiteESt6vectorIS3_SaIS3_EEEC1ERKS5_
FN:1067,_ZN9__gnu_cxx17__normal_iteratorIPN7testing14TestPartResultESt6vectorIS2_SaIS2_EEEC1ERKS3_
FNDA:0,_ZN9__gnu_cxx17__normal_iteratorIPN7testing14TestPartResultESt6vectorIS2_SaIS2_EEEC1ERKS3_
FN:1067,_ZN9__gnu_cxx17__normal_iteratorIPN7testing8internal9TraceInfoESt6vectorIS3_SaIS3_EEEC1ERKS4_
FNDA:0,_ZN9__gnu_cxx17__normal_iteratorIPN7testing8internal9TraceInfoESt6vectorIS3_SaIS3_EEEC1ERKS4_
FN:1067,_ZN9__gnu_cxx17__normal_iteratorIPPN7testing9TestSuiteESt6vectorIS3_SaIS3_EEEC1ERKS4_
FNDA:35,_ZN9__gnu_cxx17__normal_iteratorIPPN7testing9TestSuiteESt6vectorIS3_SaIS3_EEEC1ERKS4_
FN:1067,_ZN9__gnu_cxx17__normal_iteratorIPPN7testing8TestInfoESt6vectorIS3_SaIS3_EEEC1ERKS4_
FNDA:16,_ZN9__gnu_cxx17__normal_iteratorIPPN7testing8TestInfoESt6vectorIS3_SaIS3_EEEC1ERKS4_
FN:1067,_ZN9__gnu_cxx17__normal_iteratorIPKPN7testing8TestInfoESt6vectorIS3_SaIS3_EEEC1ERKS5_
FNDA:297,_ZN9__gnu_cxx17__normal_iteratorIPKPN7testing8TestInfoESt6vectorIS3_SaIS3_EEEC1ERKS5_
FN:1067,_ZN9__gnu_cxx17__normal_iteratorIPKN7testing14TestPartResultESt6vectorIS2_SaIS2_EEEC1ERKS4_
FNDA:166,_ZN9__gnu_cxx17__normal_iteratorIPKN7testing14TestPartResultESt6vectorIS2_SaIS2_EEEC1ERKS4_
FN:1067,_ZN9__gnu_cxx17__normal_iteratorIPKdSt6vectorIdSaIdEEEC1ERKS2_
FNDA:0,_ZN9__gnu_cxx17__normal_iteratorIPKdSt6vectorIdSaIdEEEC1ERKS2_
FN:1067,_ZN9__gnu_cxx17__normal_iteratorIPKPN7testing17TestEventListenerESt6vectorIS3_SaIS3_EEEC1ERKS5_
FNDA:0,_ZN9__gnu_cxx17__normal_iteratorIPKPN7testing17TestEventListenerESt6vectorIS3_SaIS3_EEEC1ERKS5_
FN:1074,_ZN9__gnu_cxx17__normal_iteratorIPKPN7testing17TestEventListenerESt6vectorIS3_SaIS3_EEEC1IPS3_vEERKNS0_IT_S8_EE
FNDA:0,_ZN9__gnu_cxx17__normal_iteratorIPKPN7testing17TestEventListenerESt6vectorIS3_SaIS3_EEEC1IPS3_vEERKNS0_IT_S8_EE
FN:1074,_ZN9__gnu_cxx17__normal_iteratorIPKPN7testing9TestSuiteESt6vectorIS3_SaIS3_EEEC1IPS3_vEERKNS0_IT_S8_EE
FNDA:0,_ZN9__gnu_cxx17__normal_iteratorIPKPN7testing9TestSuiteESt6vectorIS3_SaIS3_EEEC1IPS3_vEERKNS0_IT_S8_EE
FN:1074,_ZN9__gnu_cxx17__normal_iteratorIPKcNSt7__cxx1112basic_stringIcSt11char_traitsIcESaIcEEEEC1IPcvEERKNS0_IT_S8_EE
FNDA:16,_ZN9__gnu_cxx17__normal_iteratorIPKcNSt7__cxx1112basic_stringIcSt11char_traitsIcESaIcEEEEC1IPcvEERKNS0_IT_S8_EE
FN:1074,_ZN9__gnu_cxx17__normal_iteratorIPKNSt7__cxx1112basic_stringIcSt11char_traitsIcESaIcEEESt6vectorIS6_SaIS6_EEEC1IPS6_vEERKNS0_IT_SB_EE
FNDA:0,_ZN9__gnu_cxx17__normal_iteratorIPKNSt7__cxx1112basic_stringIcSt11char_traitsIcESaIcEEESt6vectorIS6_SaIS6_EEEC1IPS6_vEERKNS0_IT_SB_EE
FN:1090,_ZNK9__gnu_cxx17__normal_iteratorIPKN7testing8internal13edit_distance8EditTypeESt6vectorIS4_SaIS4_EEEdeEv
FNDA:0,_ZNK9__gnu_cxx17__normal_iteratorIPKN7testing8internal13edit_distance8EditTypeESt6vectorIS4_SaIS4_EEEdeEv
FN:1090,_ZNK9__gnu_cxx17__normal_iteratorIPPN7testing11EnvironmentESt6vectorIS3_SaIS3_EEEdeEv
FNDA:0,_ZNK9__gnu_cxx17__normal_iteratorIPPN7testing11EnvironmentESt6vectorIS3_SaIS3_EEEdeEv
FN:1090,_ZNK9__gnu_cxx17__normal_iteratorIPKN7testing14TestPartResultESt6vectorIS2_SaIS2_EEEdeEv
FNDA:0,_ZNK9__gnu_cxx17__normal_iteratorIPKN7testing14TestPartResultESt6vectorIS2_SaIS2_EEEdeEv
FN:1090,_ZNK9__gnu_cxx17__normal_iteratorIPKPN7testing17TestEventListenerESt6vectorIS3_SaIS3_EEEdeEv
FNDA:0,_ZNK9__gnu_cxx17__normal_iteratorIPKPN7testing17TestEventListenerESt6vectorIS3_SaIS3_EEEdeEv
FN:1090,_ZNK9__gnu_cxx17__normal_iteratorIPN7testing12TestPropertyESt6vectorIS2_SaIS2_EEEdeEv
FNDA:0,_ZNK9__gnu_cxx17__normal_iteratorIPN7testing12TestPropertyESt6vectorIS2_SaIS2_EEEdeEv
FN:1090,_ZNK9__gnu_cxx17__normal_iteratorIPN7testing8internal13edit_distance8EditTypeESt6vectorIS4_SaIS4_EEEdeEv
FNDA:0,_ZNK9__gnu_cxx17__normal_iteratorIPN7testing8internal13edit_distance8EditTypeESt6vectorIS4_SaIS4_EEEdeEv
FN:1090,_ZNK9__gnu_cxx17__normal_iteratorIPKcNSt7__cxx1112basic_stringIcSt11char_traitsIcESaIcEEEEdeEv
FNDA:0,_ZNK9__gnu_cxx17__normal_iteratorIPKcNSt7__cxx1112basic_stringIcSt11char_traitsIcESaIcEEEEdeEv
FN:1090,_ZNK9__gnu_cxx17__normal_iteratorIPPN7testing9TestSuiteESt6vectorIS3_SaIS3_EEEdeEv
FNDA:20,_ZNK9__gnu_cxx17__normal_iteratorIPPN7testing9TestSuiteESt6vectorIS3_SaIS3_EEEdeEv
FN:1090,_ZNK9__gnu_cxx17__normal_iteratorIPKPN7testing9TestSuiteESt6vectorIS3_SaIS3_EEEdeEv
FNDA:20,_ZNK9__gnu_cxx17__normal_iteratorIPKPN7testing9TestSuiteESt6vectorIS3_SaIS3_EEEdeEv
FN:1090,_ZNK9__gnu_cxx17__normal_iteratorIPcNSt7__cxx1112basic_stringIcSt11char_traitsIcESaIcEEEEdeEv
FNDA:515,_ZNK9__gnu_cxx17__normal_iteratorIPcNSt7__cxx1112basic_stringIcSt11char_traitsIcESaIcEEEEdeEv
FN:1090,_ZNK9__gnu_cxx17__normal_iteratorIPPN7testing8internal30ParameterizedTestSuiteInfoBaseESt6vectorIS4_SaIS4_EEEdeEv
FNDA:0,_ZNK9__gnu_cxx17__normal_iteratorIPPN7testing8internal30ParameterizedTestSuiteInfoBaseESt6vectorIS4_SaIS4_EEEdeEv
FN:1090,_ZNK9__gnu_cxx17__normal_iteratorIPKPN7testing11EnvironmentESt6vectorIS3_SaIS3_EEEdeEv
FNDA:0,_ZNK9__gnu_cxx17__normal_iteratorIPKPN7testing11EnvironmentESt6vectorIS3_SaIS3_EEEdeEv
FN:1090,_ZNK9__gnu_cxx17__normal_iteratorIPKPN7testing8TestInfoESt6vectorIS3_SaIS3_EEEdeEv
FNDA:162,_ZNK9__gnu_cxx17__normal_iteratorIPKPN7testing8TestInfoESt6vectorIS3_SaIS3_EEEdeEv
FN:1090,_ZNK9__gnu_cxx17__normal_iteratorIPKNSt7__cxx1112basic_stringIcSt11char_traitsIcESaIcEEESt6vectorIS6_SaIS6_EEEdeEv
FNDA:438,_ZNK9__gnu_cxx17__normal_iteratorIPKNSt7__cxx1112basic_stringIcSt11char_traitsIcESaIcEEESt6vectorIS6_SaIS6_EEEdeEv
FN:1095,_ZNK9__gnu_cxx17__normal_iteratorIPN7testing12TestPropertyESt6vectorIS2_SaIS2_EEEptEv
FNDA:0,_ZNK9__gnu_cxx17__normal_iteratorIPN7testing12TestPropertyESt6vectorIS2_SaIS2_EEEptEv
FN:1100,_ZN9__gnu_cxx17__normal_iteratorIPKPN7testing8TestInfoESt6vectorIS3_SaIS3_EEEppEv
FNDA:162,_ZN9__gnu_cxx17__normal_iteratorIPKPN7testing8TestInfoESt6vectorIS3_SaIS3_EEEppEv
FN:1100,_ZN9__gnu_cxx17__normal_iteratorIPKPN7testing17TestEventListenerESt6vectorIS3_SaIS3_EEEppEv
FNDA:0,_ZN9__gnu_cxx17__normal_iteratorIPKPN7testing17TestEventListenerESt6vectorIS3_SaIS3_EEEppEv
FN:1100,_ZN9__gnu_cxx17__normal_iteratorIPKN7testing8internal13edit_distance8EditTypeESt6vectorIS4_SaIS4_EEEppEv
FNDA:0,_ZN9__gnu_cxx17__normal_iteratorIPKN7testing8internal13edit_distance8EditTypeESt6vectorIS4_SaIS4_EEEppEv
FN:1100,_ZN9__gnu_cxx17__normal_iteratorIPPN7testing8internal30ParameterizedTestSuiteInfoBaseESt6vectorIS4_SaIS4_EEEppEv
FNDA:0,_ZN9__gnu_cxx17__normal_iteratorIPPN7testing8internal30ParameterizedTestSuiteInfoBaseESt6vectorIS4_SaIS4_EEEppEv
FN:1100,_ZN9__gnu_cxx17__normal_iteratorIPN7testing12TestPropertyESt6vectorIS2_SaIS2_EEEppEv
FNDA:0,_ZN9__gnu_cxx17__normal_iteratorIPN7testing12TestPropertyESt6vectorIS2_SaIS2_EEEppEv
FN:1100,_ZN9__gnu_cxx17__normal_iteratorIPcNSt7__cxx1112basic_stringIcSt11char_traitsIcESaIcEEEEppEv
FNDA:247,_ZN9__gnu_cxx17__normal_iteratorIPcNSt7__cxx1112basic_stringIcSt11char_traitsIcESaIcEEEEppEv
FN:1100,_ZN9__gnu_cxx17__normal_iteratorIPKNSt7__cxx1112basic_stringIcSt11char_traitsIcESaIcEEESt6vectorIS6_SaIS6_EEEppEv
FNDA:345,_ZN9__gnu_cxx17__normal_iteratorIPKNSt7__cxx1112basic_stringIcSt11char_traitsIcESaIcEEESt6vectorIS6_SaIS6_EEEppEv
FN:1100,_ZN9__gnu_cxx17__normal_iteratorIPPN7testing9TestSuiteESt6vectorIS3_SaIS3_EEEppEv
FNDA:4,_ZN9__gnu_cxx17__normal_iteratorIPPN7testing9TestSuiteESt6vectorIS3_SaIS3_EEEppEv
FN:1100,_ZN9__gnu_cxx17__normal_iteratorIPKPN7testing11EnvironmentESt6vectorIS3_SaIS3_EEEppEv
FNDA:0,_ZN9__gnu_cxx17__normal_iteratorIPKPN7testing11EnvironmentESt6vectorIS3_SaIS3_EEEppEv
FN:1100,_ZN9__gnu_cxx17__normal_iteratorIPKN7testing14TestPartResultESt6vectorIS2_SaIS2_EEEppEv
FNDA:0,_ZN9__gnu_cxx17__normal_iteratorIPKN7testing14TestPartResultESt6vectorIS2_SaIS2_EEEppEv
FN:1100,_ZN9__gnu_cxx17__normal_iteratorIPKPN7testing9TestSuiteESt6vectorIS3_SaIS3_EEEppEv
FNDA:20,_ZN9__gnu_cxx17__normal_iteratorIPKPN7testing9TestSuiteESt6vectorIS3_SaIS3_EEEppEv
FN:1100,_ZN9__gnu_cxx17__normal_iteratorIPKcNSt7__cxx1112basic_stringIcSt11char_traitsIcESaIcEEEEppEv
FNDA:0,_ZN9__gnu_cxx17__normal_iteratorIPKcNSt7__cxx1112basic_stringIcSt11char_traitsIcESaIcEEEEppEv
FN:1100,_ZN9__gnu_cxx17__normal_iteratorIPN7testing8internal13edit_distance8EditTypeESt6vectorIS4_SaIS4_EEEppEv
FNDA:0,_ZN9__gnu_cxx17__normal_iteratorIPN7testing8internal13edit_distance8EditTypeESt6vectorIS4_SaIS4_EEEppEv
FN:1108,_ZN9__gnu_cxx17__normal_iteratorIPcNSt7__cxx1112basic_stringIcSt11char_traitsIcESaIcEEEEppEi
FNDA:247,_ZN9__gnu_cxx17__normal_iteratorIPcNSt7__cxx1112basic_stringIcSt11char_traitsIcESaIcEEEEppEi
FN:1114,_ZN9__gnu_cxx17__normal_iteratorIPN7testing8internal13edit_distance8EditTypeESt6vectorIS4_SaIS4_EEEmmEv
FNDA:0,_ZN9__gnu_cxx17__normal_iteratorIPN7testing8internal13edit_distance8EditTypeESt6vectorIS4_SaIS4_EEEmmEv
FN:1114,_ZN9__gnu_cxx17__normal_iteratorIPPN7testing11EnvironmentESt6vectorIS3_SaIS3_EEEmmEv
FNDA:0,_ZN9__gnu_cxx17__normal_iteratorIPPN7testing11EnvironmentESt6vectorIS3_SaIS3_EEEmmEv
FN:1114,_ZN9__gnu_cxx17__normal_iteratorIPPN7testing9TestSuiteESt6vectorIS3_SaIS3_EEEmmEv
FNDA:22,_ZN9__gnu_cxx17__normal_iteratorIPPN7testing9TestSuiteESt6vectorIS3_SaIS3_EEEmmEv
FN:1114,_ZN9__gnu_cxx17__normal_iteratorIPcNSt7__cxx1112basic_stringIcSt11char_traitsIcESaIcEEEEmmEv
FNDA:0,_ZN9__gnu_cxx17__normal_iteratorIPcNSt7__cxx1112basic_stringIcSt11char_traitsIcESaIcEEEEmmEv
FN:1133,_ZN9__gnu_cxx17__normal_iteratorIPcNSt7__cxx1112basic_stringIcSt11char_traitsIcESaIcEEEEpLEx
FNDA:21,_ZN9__gnu_cxx17__normal_iteratorIPcNSt7__cxx1112basic_stringIcSt11char_traitsIcESaIcEEEEpLEx
FN:1138,_ZNK9__gnu_cxx17__normal_iteratorIPPN7testing9TestSuiteESt6vectorIS3_SaIS3_EEEplEx
FNDA:0,_ZNK9__gnu_cxx17__normal_iteratorIPPN7testing9TestSuiteESt6vectorIS3_SaIS3_EEEplEx
FN:1138,_ZNK9__gnu_cxx17__normal_iteratorIPKN7testing8internal13edit_distance8EditTypeESt6vectorIS4_SaIS4_EEEplEx
FNDA:0,_ZNK9__gnu_cxx17__normal_iteratorIPKN7testing8internal13edit_distance8EditTypeESt6vectorIS4_SaIS4_EEEplEx
FN:1138,_ZNK9__gnu_cxx17__normal_iteratorIPPN7testing17TestEventListenerESt6vectorIS3_SaIS3_EEEplEx
FNDA:0,_ZNK9__gnu_cxx17__normal_iteratorIPPN7testing17TestEventListenerESt6vectorIS3_SaIS3_EEEplEx
FN:1153,_ZNK9__gnu_cxx17__normal_iteratorIPKN7testing14TestPartResultESt6vectorIS2_SaIS2_EEE4baseEv
FNDA:166,_ZNK9__gnu_cxx17__normal_iteratorIPKN7testing14TestPartResultESt6vectorIS2_SaIS2_EEE4baseEv
FN:1153,_ZNK9__gnu_cxx17__normal_iteratorIPN7testing14TestPartResultESt6vectorIS2_SaIS2_EEE4baseEv
FNDA:0,_ZNK9__gnu_cxx17__normal_iteratorIPN7testing14TestPartResultESt6vectorIS2_SaIS2_EEE4baseEv
FN:1153,_ZNK9__gnu_cxx17__normal_iteratorIPKPN7testing8TestInfoESt6vectorIS3_SaIS3_EEE4baseEv
FNDA:468,_ZNK9__gnu_cxx17__normal_iteratorIPKPN7testing8TestInfoESt6vectorIS3_SaIS3_EEE4baseEv
FN:1153,_ZNK9__gnu_cxx17__normal_iteratorIPN7testing8internal13edit_distance8EditTypeESt6vectorIS4_SaIS4_EEE4baseEv
FNDA:0,_ZNK9__gnu_cxx17__normal_iteratorIPN7testing8internal13edit_distance8EditTypeESt6vectorIS4_SaIS4_EEE4baseEv
FN:1153,_ZNK9__gnu_cxx17__normal_iteratorIPKPN7testing17TestEventListenerESt6vectorIS3_SaIS3_EEE4baseEv
FNDA:0,_ZNK9__gnu_cxx17__normal_iteratorIPKPN7testing17TestEventListenerESt6vectorIS3_SaIS3_EEE4baseEv
FN:1153,_ZNK9__gnu_cxx17__normal_iteratorIPNSt7__cxx1112basic_stringIcSt11char_traitsIcESaIcEEESt6vectorIS6_SaIS6_EEE4baseEv
FNDA:4,_ZNK9__gnu_cxx17__normal_iteratorIPNSt7__cxx1112basic_stringIcSt11char_traitsIcESaIcEEESt6vectorIS6_SaIS6_EEE4baseEv
FN:1153,_ZNK9__gnu_cxx17__normal_iteratorIPPN7testing8TestInfoESt6vectorIS3_SaIS3_EEE4baseEv
FNDA:16,_ZNK9__gnu_cxx17__normal_iteratorIPPN7testing8TestInfoESt6vectorIS3_SaIS3_EEE4baseEv
FN:1153,_ZNK9__gnu_cxx17__normal_iteratorIPcNSt7__cxx1112basic_stringIcSt11char_traitsIcESaIcEEEE4baseEv
FNDA:568,_ZNK9__gnu_cxx17__normal_iteratorIPcNSt7__cxx1112basic_stringIcSt11char_traitsIcESaIcEEEE4baseEv
FN:1153,_ZNK9__gnu_cxx17__normal_iteratorIPPN7testing8internal30ParameterizedTestSuiteInfoBaseESt6vectorIS4_SaIS4_EEE4baseEv
FNDA:2,_ZNK9__gnu_cxx17__normal_iteratorIPPN7testing8internal30ParameterizedTestSuiteInfoBaseESt6vectorIS4_SaIS4_EEE4baseEv
FN:1153,_ZNK9__gnu_cxx17__normal_iteratorIPKN7testing8internal13edit_distance8EditTypeESt6vectorIS4_SaIS4_EEE4baseEv
FNDA:0,_ZNK9__gnu_cxx17__normal_iteratorIPKN7testing8internal13edit_distance8EditTypeESt6vectorIS4_SaIS4_EEE4baseEv
FN:1153,_ZNK9__gnu_cxx17__normal_iteratorIPPN7testing9TestSuiteESt6vectorIS3_SaIS3_EEE4baseEv
FNDA:70,_ZNK9__gnu_cxx17__normal_iteratorIPPN7testing9TestSuiteESt6vectorIS3_SaIS3_EEE4baseEv
FN:1153,_ZNK9__gnu_cxx17__normal_iteratorIPN7testing12TestPropertyESt6vectorIS2_SaIS2_EEE4baseEv
FNDA:0,_ZNK9__gnu_cxx17__normal_iteratorIPN7testing12TestPropertyESt6vectorIS2_SaIS2_EEE4baseEv
FN:1153,_ZNK9__gnu_cxx17__normal_iteratorIPKNSt7__cxx1112basic_stringIcSt11char_traitsIcESaIcEEESt6vectorIS6_SaIS6_EEE4baseEv
FNDA:416,_ZNK9__gnu_cxx17__normal_iteratorIPKNSt7__cxx1112basic_stringIcSt11char_traitsIcESaIcEEESt6vectorIS6_SaIS6_EEE4baseEv
FN:1153,_ZNK9__gnu_cxx17__normal_iteratorIPiSt6vectorIiSaIiEEE4baseEv
FNDA:0,_ZNK9__gnu_cxx17__normal_iteratorIPiSt6vectorIiSaIiEEE4baseEv
FN:1153,_ZNK9__gnu_cxx17__normal_iteratorIPySt6vectorIySaIyEEE4baseEv
FNDA:0,_ZNK9__gnu_cxx17__normal_iteratorIPySt6vectorIySaIyEEE4baseEv
FN:1153,_ZNK9__gnu_cxx17__normal_iteratorIPPN7testing17TestEventListenerESt6vectorIS3_SaIS3_EEE4baseEv
FNDA:4,_ZNK9__gnu_cxx17__normal_iteratorIPPN7testing17TestEventListenerESt6vectorIS3_SaIS3_EEE4baseEv
FN:1153,_ZNK9__gnu_cxx17__normal_iteratorIPKcNSt7__cxx1112basic_stringIcSt11char_traitsIcESaIcEEEE4baseEv
FNDA:0,_ZNK9__gnu_cxx17__normal_iteratorIPKcNSt7__cxx1112basic_stringIcSt11char_traitsIcESaIcEEEE4baseEv
FN:1153,_ZNK9__gnu_cxx17__normal_iteratorIPSt10shared_ptrIN7testing8internal26ThreadLocalValueHolderBaseEESt6vectorIS5_SaIS5_EEE4baseEv
FNDA:0,_ZNK9__gnu_cxx17__normal_iteratorIPSt10shared_ptrIN7testing8internal26ThreadLocalValueHolderBaseEESt6vectorIS5_SaIS5_EEE4baseEv
FN:1153,_ZNK9__gnu_cxx17__normal_iteratorIPKdSt6vectorIdSaIdEEE4baseEv
FNDA:0,_ZNK9__gnu_cxx17__normal_iteratorIPKdSt6vectorIdSaIdEEE4baseEv
FN:1153,_ZNK9__gnu_cxx17__normal_iteratorIPKPN7testing11EnvironmentESt6vectorIS3_SaIS3_EEE4baseEv
FNDA:2,_ZNK9__gnu_cxx17__normal_iteratorIPKPN7testing11EnvironmentESt6vectorIS3_SaIS3_EEE4baseEv
FN:1153,_ZNK9__gnu_cxx17__normal_iteratorIPKPN7testing9TestSuiteESt6vectorIS3_SaIS3_EEE4baseEv
FNDA:50,_ZNK9__gnu_cxx17__normal_iteratorIPKPN7testing9TestSuiteESt6vectorIS3_SaIS3_EEE4baseEv
FN:1153,_ZNK9__gnu_cxx17__normal_iteratorIPN7testing8internal9TraceInfoESt6vectorIS3_SaIS3_EEE4baseEv
FNDA:0,_ZNK9__gnu_cxx17__normal_iteratorIPN7testing8internal9TraceInfoESt6vectorIS3_SaIS3_EEE4baseEv
FN:1153,_ZNK9__gnu_cxx17__normal_iteratorIPPN7testing11EnvironmentESt6vectorIS3_SaIS3_EEE4baseEv
FNDA:2,_ZNK9__gnu_cxx17__normal_iteratorIPPN7testing11EnvironmentESt6vectorIS3_SaIS3_EEE4baseEv
FN:1208,_ZN9__gnu_cxxeqIPKPN7testing9TestSuiteEPS3_St6vectorIS3_SaIS3_EEEEbRKNS_17__normal_iteratorIT_T1_EERKNSA_IT0_SC_EE
FNDA:0,_ZN9__gnu_cxxeqIPKPN7testing9TestSuiteEPS3_St6vectorIS3_SaIS3_EEEEbRKNS_17__normal_iteratorIT_T1_EERKNSA_IT0_SC_EE
FN:1216,_ZN9__gnu_cxxeqIPKN7testing8internal13edit_distance8EditTypeESt6vectorIS4_SaIS4_EEEEbRKNS_17__normal_iteratorIT_T0_EESF_
FNDA:0,_ZN9__gnu_cxxeqIPKN7testing8internal13edit_distance8EditTypeESt6vectorIS4_SaIS4_EEEEbRKNS_17__normal_iteratorIT_T0_EESF_
FN:1216,_ZN9__gnu_cxxeqIPN7testing12TestPropertyESt6vectorIS2_SaIS2_EEEEbRKNS_17__normal_iteratorIT_T0_EESC_
FNDA:0,_ZN9__gnu_cxxeqIPN7testing12TestPropertyESt6vectorIS2_SaIS2_EEEEbRKNS_17__normal_iteratorIT_T0_EESC_
FN:1216,_ZN9__gnu_cxxeqIPPN7testing9TestSuiteESt6vectorIS3_SaIS3_EEEEbRKNS_17__normal_iteratorIT_T0_EESD_
FNDA:9,_ZN9__gnu_cxxeqIPPN7testing9TestSuiteESt6vectorIS3_SaIS3_EEEEbRKNS_17__normal_iteratorIT_T0_EESD_
FN:1216,_ZN9__gnu_cxxeqIPN7testing8internal13edit_distance8EditTypeESt6vectorIS4_SaIS4_EEEEbRKNS_17__normal_iteratorIT_T0_EESE_
FNDA:0,_ZN9__gnu_cxxeqIPN7testing8internal13edit_distance8EditTypeESt6vectorIS4_SaIS4_EEEEbRKNS_17__normal_iteratorIT_T0_EESE_
FN:1216,_ZN9__gnu_cxxeqIPcNSt7__cxx1112basic_stringIcSt11char_traitsIcESaIcEEEEEbRKNS_17__normal_iteratorIT_T0_EESD_
FNDA:21,_ZN9__gnu_cxxeqIPcNSt7__cxx1112basic_stringIcSt11char_traitsIcESaIcEEEEEbRKNS_17__normal_iteratorIT_T0_EESD_
FN:1216,_ZN9__gnu_cxxeqIPPN7testing11EnvironmentESt6vectorIS3_SaIS3_EEEEbRKNS_17__normal_iteratorIT_T0_EESD_
FNDA:1,_ZN9__gnu_cxxeqIPPN7testing11EnvironmentESt6vectorIS3_SaIS3_EEEEbRKNS_17__normal_iteratorIT_T0_EESD_
FN:1224,_ZN9__gnu_cxxneIPKNSt7__cxx1112basic_stringIcSt11char_traitsIcESaIcEEEPS6_St6vectorIS6_SaIS6_EEEEbRKNS_17__normal_iteratorIT_T1_EERKNSD_IT0_SF_EE
FNDA:0,_ZN9__gnu_cxxneIPKNSt7__cxx1112basic_stringIcSt11char_traitsIcESaIcEEEPS6_St6vectorIS6_SaIS6_EEEEbRKNS_17__normal_iteratorIT_T1_EERKNSD_IT0_SF_EE
FN:1232,_ZN9__gnu_cxxneIPPN7testing9TestSuiteESt6vectorIS3_SaIS3_EEEEbRKNS_17__normal_iteratorIT_T0_EESD_
FNDA:5,_ZN9__gnu_cxxneIPPN7testing9TestSuiteESt6vectorIS3_SaIS3_EEEEbRKNS_17__normal_iteratorIT_T0_EESD_
FN:1232,_ZN9__gnu_cxxneIPKPN7testing9TestSuiteESt6vectorIS3_SaIS3_EEEEbRKNS_17__normal_iteratorIT_T0_EESE_
FNDA:25,_ZN9__gnu_cxxneIPKPN7testing9TestSuiteESt6vectorIS3_SaIS3_EEEEbRKNS_17__normal_iteratorIT_T0_EESE_
FN:1232,_ZN9__gnu_cxxneIPKcNSt7__cxx1112basic_stringIcSt11char_traitsIcESaIcEEEEEbRKNS_17__normal_iteratorIT_T0_EESE_
FNDA:0,_ZN9__gnu_cxxneIPKcNSt7__cxx1112basic_stringIcSt11char_traitsIcESaIcEEEEEbRKNS_17__normal_iteratorIT_T0_EESE_
FN:1232,_ZN9__gnu_cxxneIPKNSt7__cxx1112basic_stringIcSt11char_traitsIcESaIcEEESt6vectorIS6_SaIS6_EEEEbRKNS_17__normal_iteratorIT_T0_EESH_
FNDA:97,_ZN9__gnu_cxxneIPKNSt7__cxx1112basic_stringIcSt11char_traitsIcESaIcEEESt6vectorIS6_SaIS6_EEEEbRKNS_17__normal_iteratorIT_T0_EESH_
FN:1232,_ZN9__gnu_cxxneIPKN7testing14TestPartResultESt6vectorIS2_SaIS2_EEEEbRKNS_17__normal_iteratorIT_T0_EESD_
FNDA:83,_ZN9__gnu_cxxneIPKN7testing14TestPartResultESt6vectorIS2_SaIS2_EEEEbRKNS_17__normal_iteratorIT_T0_EESD_
FN:1232,_ZN9__gnu_cxxneIPKPN7testing8TestInfoESt6vectorIS3_SaIS3_EEEEbRKNS_17__normal_iteratorIT_T0_EESE_
FNDA:234,_ZN9__gnu_cxxneIPKPN7testing8TestInfoESt6vectorIS3_SaIS3_EEEEbRKNS_17__normal_iteratorIT_T0_EESE_
FN:1232,_ZN9__gnu_cxxneIPKN7testing8internal13edit_distance8EditTypeESt6vectorIS4_SaIS4_EEEEbRKNS_17__normal_iteratorIT_T0_EESF_
FNDA:0,_ZN9__gnu_cxxneIPKN7testing8internal13edit_distance8EditTypeESt6vectorIS4_SaIS4_EEEEbRKNS_17__normal_iteratorIT_T0_EESF_
FN:1232,_ZN9__gnu_cxxneIPPN7testing8internal30ParameterizedTestSuiteInfoBaseESt6vectorIS4_SaIS4_EEEEbRKNS_17__normal_iteratorIT_T0_EESE_
FNDA:1,_ZN9__gnu_cxxneIPPN7testing8internal30ParameterizedTestSuiteInfoBaseESt6vectorIS4_SaIS4_EEEEbRKNS_17__normal_iteratorIT_T0_EESE_
FN:1232,_ZN9__gnu_cxxneIPcNSt7__cxx1112basic_stringIcSt11char_traitsIcESaIcEEEEEbRKNS_17__normal_iteratorIT_T0_EESD_
FNDA:255,_ZN9__gnu_cxxneIPcNSt7__cxx1112basic_stringIcSt11char_traitsIcESaIcEEEEEbRKNS_17__normal_iteratorIT_T0_EESD_
FN:1232,_ZN9__gnu_cxxneIPKPN7testing17TestEventListenerESt6vectorIS3_SaIS3_EEEEbRKNS_17__normal_iteratorIT_T0_EESE_
FNDA:0,_ZN9__gnu_cxxneIPKPN7testing17TestEventListenerESt6vectorIS3_SaIS3_EEEEbRKNS_17__normal_iteratorIT_T0_EESE_
FN:1232,_ZN9__gnu_cxxneIPPN7testing17TestEventListenerESt6vectorIS3_SaIS3_EEEEbRKNS_17__normal_iteratorIT_T0_EESD_
FNDA:0,_ZN9__gnu_cxxneIPPN7testing17TestEventListenerESt6vectorIS3_SaIS3_EEEEbRKNS_17__normal_iteratorIT_T0_EESD_
FN:1232,_ZN9__gnu_cxxneIPKPN7testing11EnvironmentESt6vectorIS3_SaIS3_EEEEbRKNS_17__normal_iteratorIT_T0_EESE_
FNDA:1,_ZN9__gnu_cxxneIPKPN7testing11EnvironmentESt6vectorIS3_SaIS3_EEEEbRKNS_17__normal_iteratorIT_T0_EESE_
FN:1249,_ZN9__gnu_cxxltIPN7testing8internal13edit_distance8EditTypeESt6vectorIS4_SaIS4_EEEEbRKNS_17__normal_iteratorIT_T0_EESE_
FNDA:0,_ZN9__gnu_cxxltIPN7testing8internal13edit_distance8EditTypeESt6vectorIS4_SaIS4_EEEEbRKNS_17__normal_iteratorIT_T0_EESE_
FN:1312,_ZN9__gnu_cxxmiIPKPN7testing9TestSuiteEPS3_St6vectorIS3_SaIS3_EEEEDTmicldtfp_4baseEcldtfp0_4baseEERKNS_17__normal_iteratorIT_T1_EERKNSB_IT0_SD_EE
FNDA:0,_ZN9__gnu_cxxmiIPKPN7testing9TestSuiteEPS3_St6vectorIS3_SaIS3_EEEEDTmicldtfp_4baseEcldtfp0_4baseEERKNS_17__normal_iteratorIT_T1_EERKNSB_IT0_SD_EE
FN:1325,_ZN9__gnu_cxxmiIPKPN7testing17TestEventListenerESt6vectorIS3_SaIS3_EEEENS_17__normal_iteratorIT_T0_E15difference_typeERKSC_SF_
FNDA:0,_ZN9__gnu_cxxmiIPKPN7testing17TestEventListenerESt6vectorIS3_SaIS3_EEEENS_17__normal_iteratorIT_T0_E15difference_typeERKSC_SF_
FN:1325,_ZN9__gnu_cxxmiIPiSt6vectorIiSaIiEEEENS_17__normal_iteratorIT_T0_E15difference_typeERKS8_SB_
FNDA:0,_ZN9__gnu_cxxmiIPiSt6vectorIiSaIiEEEENS_17__normal_iteratorIT_T0_E15difference_typeERKS8_SB_
FN:1325,_ZN9__gnu_cxxmiIPKNSt7__cxx1112basic_stringIcSt11char_traitsIcESaIcEEESt6vectorIS6_SaIS6_EEEENS_17__normal_iteratorIT_T0_E15difference_typeERKSF_SI_
FNDA:111,_ZN9__gnu_cxxmiIPKNSt7__cxx1112basic_stringIcSt11char_traitsIcESaIcEEESt6vectorIS6_SaIS6_EEEENS_17__normal_iteratorIT_T0_E15difference_typeERKSF_SI_
FN:1325,_ZN9__gnu_cxxmiIPKN7testing8internal13edit_distance8EditTypeESt6vectorIS4_SaIS4_EEEENS_17__normal_iteratorIT_T0_E15difference_typeERKSD_SG_
FNDA:0,_ZN9__gnu_cxxmiIPKN7testing8internal13edit_distance8EditTypeESt6vectorIS4_SaIS4_EEEENS_17__normal_iteratorIT_T0_E15difference_typeERKSD_SG_
FN:1325,_ZN9__gnu_cxxmiIPKPN7testing9TestSuiteESt6vectorIS3_SaIS3_EEEENS_17__normal_iteratorIT_T0_E15difference_typeERKSC_SF_
FNDA:0,_ZN9__gnu_cxxmiIPKPN7testing9TestSuiteESt6vectorIS3_SaIS3_EEEENS_17__normal_iteratorIT_T0_E15difference_typeERKSC_SF_
FN:1325,_ZN9__gnu_cxxmiIPySt6vectorIySaIyEEEENS_17__normal_iteratorIT_T0_E15difference_typeERKS8_SB_
FNDA:0,_ZN9__gnu_cxxmiIPySt6vectorIySaIyEEEENS_17__normal_iteratorIT_T0_E15difference_typeERKS8_SB_
FN:1325,_ZN9__gnu_cxxmiIPPN7testing8TestInfoESt6vectorIS3_SaIS3_EEEENS_17__normal_iteratorIT_T0_E15difference_typeERKSB_SE_
FNDA:8,_ZN9__gnu_cxxmiIPPN7testing8TestInfoESt6vectorIS3_SaIS3_EEEENS_17__normal_iteratorIT_T0_E15difference_typeERKSB_SE_
FN:1325,_ZN9__gnu_cxxmiIPNSt7__cxx1112basic_stringIcSt11char_traitsIcESaIcEEESt6vectorIS6_SaIS6_EEEENS_17__normal_iteratorIT_T0_E15difference_typeERKSE_SH_
FNDA:2,_ZN9__gnu_cxxmiIPNSt7__cxx1112basic_stringIcSt11char_traitsIcESaIcEEESt6vectorIS6_SaIS6_EEEENS_17__normal_iteratorIT_T0_E15difference_typeERKSE_SH_
FN:1325,_ZN9__gnu_cxxmiIPSt10shared_ptrIN7testing8internal26ThreadLocalValueHolderBaseEESt6vectorIS5_SaIS5_EEEENS_17__normal_iteratorIT_T0_E15difference_typeERKSD_SG_
FNDA:0,_ZN9__gnu_cxxmiIPSt10shared_ptrIN7testing8internal26ThreadLocalValueHolderBaseEESt6vectorIS5_SaIS5_EEEENS_17__normal_iteratorIT_T0_E15difference_typeERKSD_SG_
FN:1325,_ZN9__gnu_cxxmiIPPN7testing9TestSuiteESt6vectorIS3_SaIS3_EEEENS_17__normal_iteratorIT_T0_E15difference_typeERKSB_SE_
FNDA:21,_ZN9__gnu_cxxmiIPPN7testing9TestSuiteESt6vectorIS3_SaIS3_EEEENS_17__normal_iteratorIT_T0_E15difference_typeERKSB_SE_
FN:1325,_ZN9__gnu_cxxmiIPN7testing8internal13edit_distance8EditTypeESt6vectorIS4_SaIS4_EEEENS_17__normal_iteratorIT_T0_E15difference_typeERKSC_SF_
FNDA:0,_ZN9__gnu_cxxmiIPN7testing8internal13edit_distance8EditTypeESt6vectorIS4_SaIS4_EEEENS_17__normal_iteratorIT_T0_E15difference_typeERKSC_SF_
FN:1325,_ZN9__gnu_cxxmiIPN7testing8internal9TraceInfoESt6vectorIS3_SaIS3_EEEENS_17__normal_iteratorIT_T0_E15difference_typeERKSB_SE_
FNDA:0,_ZN9__gnu_cxxmiIPN7testing8internal9TraceInfoESt6vectorIS3_SaIS3_EEEENS_17__normal_iteratorIT_T0_E15difference_typeERKSB_SE_
FN:1325,_ZN9__gnu_cxxmiIPPN7testing11EnvironmentESt6vectorIS3_SaIS3_EEEENS_17__normal_iteratorIT_T0_E15difference_typeERKSB_SE_
FNDA:0,_ZN9__gnu_cxxmiIPPN7testing11EnvironmentESt6vectorIS3_SaIS3_EEEENS_17__normal_iteratorIT_T0_E15difference_typeERKSB_SE_
FN:1325,_ZN9__gnu_cxxmiIPN7testing14TestPartResultESt6vectorIS2_SaIS2_EEEENS_17__normal_iteratorIT_T0_E15difference_typeERKSA_SD_
FNDA:0,_ZN9__gnu_cxxmiIPN7testing14TestPartResultESt6vectorIS2_SaIS2_EEEENS_17__normal_iteratorIT_T0_E15difference_typeERKSA_SD_
FN:1325,_ZN9__gnu_cxxmiIPN7testing12TestPropertyESt6vectorIS2_SaIS2_EEEENS_17__normal_iteratorIT_T0_E15difference_typeERKSA_SD_
FNDA:0,_ZN9__gnu_cxxmiIPN7testing12TestPropertyESt6vectorIS2_SaIS2_EEEENS_17__normal_iteratorIT_T0_E15difference_typeERKSA_SD_
FN:1325,_ZN9__gnu_cxxmiIPPN7testing17TestEventListenerESt6vectorIS3_SaIS3_EEEENS_17__normal_iteratorIT_T0_E15difference_typeERKSB_SE_
FNDA:2,_ZN9__gnu_cxxmiIPPN7testing17TestEventListenerESt6vectorIS3_SaIS3_EEEENS_17__normal_iteratorIT_T0_E15difference_typeERKSB_SE_
FN:1348,_ZSt12__niter_baseIPKdSt6vectorIdSaIdEEET_N9__gnu_cxx17__normal_iteratorIS5_T0_EE
FNDA:0,_ZSt12__niter_baseIPKdSt6vectorIdSaIdEEET_N9__gnu_cxx17__normal_iteratorIS5_T0_EE
FN:1348,_ZSt12__niter_baseIPPN7testing17TestEventListenerESt6vectorIS2_SaIS2_EEET_N9__gnu_cxx17__normal_iteratorIS7_T0_EE
FNDA:0,_ZSt12__niter_baseIPPN7testing17TestEventListenerESt6vectorIS2_SaIS2_EEET_N9__gnu_cxx17__normal_iteratorIS7_T0_EE
FN:1348,_ZSt12__niter_baseIPKN7testing8internal13edit_distance8EditTypeESt6vectorIS3_SaIS3_EEET_N9__gnu_cxx17__normal_iteratorIS9_T0_EE
FNDA:0,_ZSt12__niter_baseIPKN7testing8internal13edit_distance8EditTypeESt6vectorIS3_SaIS3_EEET_N9__gnu_cxx17__normal_iteratorIS9_T0_EE
FN:1508,_ZNSt13move_iteratorIPiEC1ES0_
FNDA:0,_ZNSt13move_iteratorIPiEC1ES0_
FN:1508,_ZNSt13move_iteratorIPyEC1ES0_
FNDA:0,_ZNSt13move_iteratorIPyEC1ES0_
FN:1508,_ZNSt13move_iteratorIPN7testing8internal13edit_distance8EditTypeEEC1ES4_
FNDA:0,_ZNSt13move_iteratorIPN7testing8internal13edit_distance8EditTypeEEC1ES4_
FN:1508,_ZNSt13move_iteratorIPNSt7__cxx1112basic_stringIcSt11char_traitsIcESaIcEEEEC1ES6_
FNDA:0,_ZNSt13move_iteratorIPNSt7__cxx1112basic_stringIcSt11char_traitsIcESaIcEEEEC1ES6_
FN:1508,_ZNSt13move_iteratorIPN7testing14TestPartResultEEC1ES2_
FNDA:0,_ZNSt13move_iteratorIPN7testing14TestPartResultEEC1ES2_
FN:1508,_ZNSt13move_iteratorIPN7testing12TestPropertyEEC1ES2_
FNDA:0,_ZNSt13move_iteratorIPN7testing12TestPropertyEEC1ES2_
FN:1508,_ZNSt13move_iteratorIPPN7testing8TestInfoEEC1ES3_
FNDA:0,_ZNSt13move_iteratorIPPN7testing8TestInfoEEC1ES3_
FN:1508,_ZNSt13move_iteratorIPSt10shared_ptrIN7testing8internal26ThreadLocalValueHolderBaseEEEC1ES5_
FNDA:0,_ZNSt13move_iteratorIPSt10shared_ptrIN7testing8internal26ThreadLocalValueHolderBaseEEEC1ES5_
FN:1508,_ZNSt13move_iteratorIPPN7testing17TestEventListenerEEC1ES3_
FNDA:0,_ZNSt13move_iteratorIPPN7testing17TestEventListenerEEC1ES3_
FN:1508,_ZNSt13move_iteratorIPPN7testing9TestSuiteEEC1ES3_
FNDA:0,_ZNSt13move_iteratorIPPN7testing9TestSuiteEEC1ES3_
FN:1508,_ZNSt13move_iteratorIPPN7testing11EnvironmentEEC1ES3_
FNDA:0,_ZNSt13move_iteratorIPPN7testing11EnvironmentEEC1ES3_
FN:1508,_ZNSt13move_iteratorIPN7testing8internal9TraceInfoEEC1ES3_
FNDA:0,_ZNSt13move_iteratorIPN7testing8internal9TraceInfoEEC1ES3_
FN:1534,_ZNKSt13move_iteratorIPPN7testing9TestSuiteEE4baseEv
FNDA:0,_ZNKSt13move_iteratorIPPN7testing9TestSuiteEE4baseEv
FN:1534,_ZNKSt13move_iteratorIPN7testing8internal13edit_distance8EditTypeEE4baseEv
FNDA:0,_ZNKSt13move_iteratorIPN7testing8internal13edit_distance8EditTypeEE4baseEv
FN:1534,_ZNKSt13move_iteratorIPPN7testing8TestInfoEE4baseEv
FNDA:0,_ZNKSt13move_iteratorIPPN7testing8TestInfoEE4baseEv
FN:1534,_ZNKSt13move_iteratorIPyE4baseEv
FNDA:0,_ZNKSt13move_iteratorIPyE4baseEv
FN:1534,_ZNKSt13move_iteratorIPN7testing14TestPartResultEE4baseEv
FNDA:0,_ZNKSt13move_iteratorIPN7testing14TestPartResultEE4baseEv
FN:1534,_ZNKSt13move_iteratorIPN7testing12TestPropertyEE4baseEv
FNDA:0,_ZNKSt13move_iteratorIPN7testing12TestPropertyEE4baseEv
FN:1534,_ZNKSt13move_iteratorIPiE4baseEv
FNDA:0,_ZNKSt13move_iteratorIPiE4baseEv
FN:1534,_ZNKSt13move_iteratorIPN7testing8internal9TraceInfoEE4baseEv
FNDA:0,_ZNKSt13move_iteratorIPN7testing8internal9TraceInfoEE4baseEv
FN:1534,_ZNKSt13move_iteratorIPSt10shared_ptrIN7testing8internal26ThreadLocalValueHolderBaseEEE4baseEv
FNDA:0,_ZNKSt13move_iteratorIPSt10shared_ptrIN7testing8internal26ThreadLocalValueHolderBaseEEE4baseEv
FN:1534,_ZNKSt13move_iteratorIPNSt7__cxx1112basic_stringIcSt11char_traitsIcESaIcEEEE4baseEv
FNDA:0,_ZNKSt13move_iteratorIPNSt7__cxx1112basic_stringIcSt11char_traitsIcESaIcEEEE4baseEv
FN:1534,_ZNKSt13move_iteratorIPPN7testing11EnvironmentEE4baseEv
FNDA:0,_ZNKSt13move_iteratorIPPN7testing11EnvironmentEE4baseEv
FN:1534,_ZNKSt13move_iteratorIPPN7testing17TestEventListenerEE4baseEv
FNDA:0,_ZNKSt13move_iteratorIPPN7testing17TestEventListenerEE4baseEv
FN:1550,_ZNKSt13move_iteratorIPNSt7__cxx1112basic_stringIcSt11char_traitsIcESaIcEEEEdeEv
FNDA:0,_ZNKSt13move_iteratorIPNSt7__cxx1112basic_stringIcSt11char_traitsIcESaIcEEEEdeEv
FN:1550,_ZNKSt13move_iteratorIPSt10shared_ptrIN7testing8internal26ThreadLocalValueHolderBaseEEEdeEv
FNDA:0,_ZNKSt13move_iteratorIPSt10shared_ptrIN7testing8internal26ThreadLocalValueHolderBaseEEEdeEv
FN:1550,_ZNKSt13move_iteratorIPN7testing8internal9TraceInfoEEdeEv
FNDA:0,_ZNKSt13move_iteratorIPN7testing8internal9TraceInfoEEdeEv
FN:1550,_ZNKSt13move_iteratorIPN7testing14TestPartResultEEdeEv
FNDA:0,_ZNKSt13move_iteratorIPN7testing14TestPartResultEEdeEv
FN:1550,_ZNKSt13move_iteratorIPN7testing12TestPropertyEEdeEv
FNDA:0,_ZNKSt13move_iteratorIPN7testing12TestPropertyEEdeEv
FN:1563,_ZNSt13move_iteratorIPN7testing8internal9TraceInfoEEppEv
FNDA:0,_ZNSt13move_iteratorIPN7testing8internal9TraceInfoEEppEv
FN:1563,_ZNSt13move_iteratorIPN7testing12TestPropertyEEppEv
FNDA:0,_ZNSt13move_iteratorIPN7testing12TestPropertyEEppEv
FN:1563,_ZNSt13move_iteratorIPSt10shared_ptrIN7testing8internal26ThreadLocalValueHolderBaseEEEppEv
FNDA:0,_ZNSt13move_iteratorIPSt10shared_ptrIN7testing8internal26ThreadLocalValueHolderBaseEEEppEv
FN:1563,_ZNSt13move_iteratorIPNSt7__cxx1112basic_stringIcSt11char_traitsIcESaIcEEEEppEv
FNDA:0,_ZNSt13move_iteratorIPNSt7__cxx1112basic_stringIcSt11char_traitsIcESaIcEEEEppEv
FN:1563,_ZNSt13move_iteratorIPN7testing14TestPartResultEEppEv
FNDA:0,_ZNSt13move_iteratorIPN7testing14TestPartResultEEppEv
FN:1737,_ZSteqIPSt10shared_ptrIN7testing8internal26ThreadLocalValueHolderBaseEEEbRKSt13move_iteratorIT_ESA_
FNDA:0,_ZSteqIPSt10shared_ptrIN7testing8internal26ThreadLocalValueHolderBaseEEEbRKSt13move_iteratorIT_ESA_
FN:1737,_ZSteqIPN7testing12TestPropertyEEbRKSt13move_iteratorIT_ES7_
FNDA:0,_ZSteqIPN7testing12TestPropertyEEbRKSt13move_iteratorIT_ES7_
FN:1737,_ZSteqIPN7testing14TestPartResultEEbRKSt13move_iteratorIT_ES7_
FNDA:0,_ZSteqIPN7testing14TestPartResultEEbRKSt13move_iteratorIT_ES7_
FN:1737,_ZSteqIPN7testing8internal9TraceInfoEEbRKSt13move_iteratorIT_ES8_
FNDA:0,_ZSteqIPN7testing8internal9TraceInfoEEbRKSt13move_iteratorIT_ES8_
FN:1737,_ZSteqIPNSt7__cxx1112basic_stringIcSt11char_traitsIcESaIcEEEEbRKSt13move_iteratorIT_ESB_
FNDA:0,_ZSteqIPNSt7__cxx1112basic_stringIcSt11char_traitsIcESaIcEEEEbRKSt13move_iteratorIT_ESB_
FN:1752,_ZStneIPNSt7__cxx1112basic_stringIcSt11char_traitsIcESaIcEEEEbRKSt13move_iteratorIT_ESB_
FNDA:0,_ZStneIPNSt7__cxx1112basic_stringIcSt11char_traitsIcESaIcEEEEbRKSt13move_iteratorIT_ESB_
FN:1752,_ZStneIPN7testing14TestPartResultEEbRKSt13move_iteratorIT_ES7_
FNDA:0,_ZStneIPN7testing14TestPartResultEEbRKSt13move_iteratorIT_ES7_
FN:1752,_ZStneIPN7testing12TestPropertyEEbRKSt13move_iteratorIT_ES7_
FNDA:0,_ZStneIPN7testing12TestPropertyEEbRKSt13move_iteratorIT_ES7_
FN:1752,_ZStneIPSt10shared_ptrIN7testing8internal26ThreadLocalValueHolderBaseEEEbRKSt13move_iteratorIT_ESA_
FNDA:0,_ZStneIPSt10shared_ptrIN7testing8internal26ThreadLocalValueHolderBaseEEEbRKSt13move_iteratorIT_ESA_
FN:1752,_ZStneIPN7testing8internal9TraceInfoEEbRKSt13move_iteratorIT_ES8_
FNDA:0,_ZStneIPN7testing8internal9TraceInfoEEbRKSt13move_iteratorIT_ES8_
FN:1821,_ZSt32__make_move_if_noexcept_iteratorIN7testing8internal13edit_distance8EditTypeESt13move_iteratorIPS3_EET0_PT_
FNDA:0,_ZSt32__make_move_if_noexcept_iteratorIN7testing8internal13edit_distance8EditTypeESt13move_iteratorIPS3_EET0_PT_
FN:1821,_ZSt32__make_move_if_noexcept_iteratorIN7testing12TestPropertyESt13move_iteratorIPS1_EET0_PT_
FNDA:0,_ZSt32__make_move_if_noexcept_iteratorIN7testing12TestPropertyESt13move_iteratorIPS1_EET0_PT_
FN:1821,_ZSt32__make_move_if_noexcept_iteratorIN7testing14TestPartResultESt13move_iteratorIPS1_EET0_PT_
FNDA:0,_ZSt32__make_move_if_noexcept_iteratorIN7testing14TestPartResultESt13move_iteratorIPS1_EET0_PT_
FN:1821,_ZSt32__make_move_if_noexcept_iteratorIPN7testing11EnvironmentESt13move_iteratorIPS2_EET0_PT_
FNDA:0,_ZSt32__make_move_if_noexcept_iteratorIPN7testing11EnvironmentESt13move_iteratorIPS2_EET0_PT_
FN:1821,_ZSt32__make_move_if_noexcept_iteratorIPN7testing8TestInfoESt13move_iteratorIPS2_EET0_PT_
FNDA:0,_ZSt32__make_move_if_noexcept_iteratorIPN7testing8TestInfoESt13move_iteratorIPS2_EET0_PT_
FN:1821,_ZSt32__make_move_if_noexcept_iteratorIiSt13move_iteratorIPiEET0_PT_
FNDA:0,_ZSt32__make_move_if_noexcept_iteratorIiSt13move_iteratorIPiEET0_PT_
FN:1821,_ZSt32__make_move_if_noexcept_iteratorIySt13move_iteratorIPyEET0_PT_
FNDA:0,_ZSt32__make_move_if_noexcept_iteratorIySt13move_iteratorIPyEET0_PT_
FN:1821,_ZSt32__make_move_if_noexcept_iteratorINSt7__cxx1112basic_stringIcSt11char_traitsIcESaIcEEESt13move_iteratorIPS5_EET0_PT_
FNDA:0,_ZSt32__make_move_if_noexcept_iteratorINSt7__cxx1112basic_stringIcSt11char_traitsIcESaIcEEESt13move_iteratorIPS5_EET0_PT_
FN:1821,_ZSt32__make_move_if_noexcept_iteratorIPN7testing17TestEventListenerESt13move_iteratorIPS2_EET0_PT_
FNDA:0,_ZSt32__make_move_if_noexcept_iteratorIPN7testing17TestEventListenerESt13move_iteratorIPS2_EET0_PT_
FN:1821,_ZSt32__make_move_if_noexcept_iteratorISt10shared_ptrIN7testing8internal26ThreadLocalValueHolderBaseEESt13move_iteratorIPS4_EET0_PT_
FNDA:0,_ZSt32__make_move_if_noexcept_iteratorISt10shared_ptrIN7testing8internal26ThreadLocalValueHolderBaseEESt13move_iteratorIPS4_EET0_PT_
FN:1821,_ZSt32__make_move_if_noexcept_iteratorIPN7testing9TestSuiteESt13move_iteratorIPS2_EET0_PT_
FNDA:0,_ZSt32__make_move_if_noexcept_iteratorIPN7testing9TestSuiteESt13move_iteratorIPS2_EET0_PT_
FN:1821,_ZSt32__make_move_if_noexcept_iteratorIN7testing8internal9TraceInfoESt13move_iteratorIPS2_EET0_PT_
FNDA:0,_ZSt32__make_move_if_noexcept_iteratorIN7testing8internal9TraceInfoESt13move_iteratorIPS2_EET0_PT_
FN:2969,_ZSt12__miter_baseIPiEDTcl12__miter_basecldtfp_4baseEEESt13move_iteratorIT_E
FNDA:0,_ZSt12__miter_baseIPiEDTcl12__miter_basecldtfp_4baseEEESt13move_iteratorIT_E
FN:2969,_ZSt12__miter_baseIPyEDTcl12__miter_basecldtfp_4baseEEESt13move_iteratorIT_E
FNDA:0,_ZSt12__miter_baseIPyEDTcl12__miter_basecldtfp_4baseEEESt13move_iteratorIT_E
FN:2969,_ZSt12__miter_baseIPPN7testing9TestSuiteEEDTcl12__miter_basecldtfp_4baseEEESt13move_iteratorIT_E
FNDA:0,_ZSt12__miter_baseIPPN7testing9TestSuiteEEDTcl12__miter_basecldtfp_4baseEEESt13move_iteratorIT_E
FN:2969,_ZSt12__miter_baseIPPN7testing11EnvironmentEEDTcl12__miter_basecldtfp_4baseEEESt13move_iteratorIT_E
FNDA:0,_ZSt12__miter_baseIPPN7testing11EnvironmentEEDTcl12__miter_basecldtfp_4baseEEESt13move_iteratorIT_E
FN:2969,_ZSt12__miter_baseIPPN7testing17TestEventListenerEEDTcl12__miter_basecldtfp_4baseEEESt13move_iteratorIT_E
FNDA:0,_ZSt12__miter_baseIPPN7testing17TestEventListenerEEDTcl12__miter_basecldtfp_4baseEEESt13move_iteratorIT_E
FN:2969,_ZSt12__miter_baseIPPN7testing8TestInfoEEDTcl12__miter_basecldtfp_4baseEEESt13move_iteratorIT_E
FNDA:0,_ZSt12__miter_baseIPPN7testing8TestInfoEEDTcl12__miter_basecldtfp_4baseEEESt13move_iteratorIT_E
FN:2969,_ZSt12__miter_baseIPN7testing8internal13edit_distance8EditTypeEEDTcl12__miter_basecldtfp_4baseEEESt13move_iteratorIT_E
FNDA:0,_ZSt12__miter_baseIPN7testing8internal13edit_distance8EditTypeEEDTcl12__miter_basecldtfp_4baseEEESt13move_iteratorIT_E
FNF:205
FNH:66
DA:188,2
DA:190,2
DA:191,2
DA:188,27
DA:190,27
DA:191,27
DA:197,56
DA:199,56
DA:200,56
DA:241,2
DA:243,2
DA:241,54
DA:243,54
DA:257,0
DA:259,0
DA:260,0
DA:257,16
DA:259,16
DA:260,16
DA:289,6
DA:291,6
DA:292,6
DA:289,0
DA:291,0
DA:292,0
DA:441,1
DA:443,1
DA:441,9
DA:443,9
DA:455,1
DA:457,1
DA:455,9
DA:457,9
DA:618,18
DA:621,18
DA:1063,0
DA:1064,0
DA:1067,166
DA:1068,166
DA:1067,247
DA:1068,247
DA:1067,2
DA:1068,2
DA:1067,0
DA:1068,0
DA:1067,0
DA:1068,0
DA:1067,0
DA:1068,0
DA:1067,283
DA:1068,283
DA:1067,4
DA:1068,4
DA:1067,26
DA:1068,26
DA:1067,35
DA:1068,35
DA:1067,4
DA:1068,4
DA:1067,0
DA:1068,0
DA:1067,297
DA:1068,297
DA:1067,0
DA:1068,0
DA:1067,2
DA:1068,2
DA:1067,2
DA:1068,2
DA:1067,0
DA:1068,0
DA:1067,16
DA:1068,16
DA:1067,0
DA:1068,0
DA:1067,0
DA:1068,0
DA:1067,0
DA:1068,0
DA:1067,0
DA:1068,0
DA:1074,0
DA:1085,0
DA:1074,0
DA:1085,0
DA:1074,0
DA:1085,0
DA:1074,16
DA:1085,16
DA:1090,0
DA:1091,0
DA:1090,0
DA:1091,0
DA:1090,0
DA:1091,0
DA:1090,0
DA:1091,0
DA:1090,0
DA:1091,0
DA:1090,162
DA:1091,162
DA:1090,0
DA:1091,0
DA:1090,438
DA:1091,438
DA:1090,20
DA:1091,20
DA:1090,20
DA:1091,20
DA:1090,0
DA:1091,0
DA:1090,0
DA:1091,0
DA:1090,0
DA:1091,0
DA:1090,515
DA:1091,515
DA:1095,0
DA:1096,0
DA:1100,0
DA:1102,0
DA:1103,0
DA:1100,0
DA:1102,0
DA:1103,0
DA:1100,0
DA:1102,0
DA:1103,0
DA:1100,0
DA:1102,0
DA:1103,0
DA:1100,162
DA:1102,162
DA:1103,162
DA:1100,0
DA:1102,0
DA:1103,0
DA:1100,345
DA:1102,345
DA:1103,345
DA:1100,247
DA:1102,247
DA:1103,247
DA:1100,4
DA:1102,4
DA:1103,4
DA:1100,20
DA:1102,20
DA:1103,20
DA:1100,0
DA:1102,0
DA:1103,0
DA:1100,0
DA:1102,0
DA:1103,0
DA:1100,0
DA:1102,0
DA:1103,0
DA:1108,247
DA:1109,247
DA:1114,0
DA:1116,0
DA:1117,0
DA:1114,0
DA:1116,0
DA:1117,0
DA:1114,22
DA:1116,22
DA:1117,22
DA:1114,0
DA:1116,0
DA:1117,0
DA:1133,21
DA:1134,21
DA:1138,0
DA:1139,0
DA:1138,0
DA:1139,0
DA:1138,0
DA:1139,0
DA:1153,468
DA:1154,468
DA:1153,568
DA:1154,568
DA:1153,2
DA:1154,2
DA:1153,0
DA:1154,0
DA:1153,0
DA:1154,0
DA:1153,416
DA:1154,416
DA:1153,4
DA:1154,4
DA:1153,0
DA:1154,0
DA:1153,50
DA:1154,50
DA:1153,70
DA:1154,70
DA:1153,4
DA:1154,4
DA:1153,166
DA:1154,166
DA:1153,0
DA:1154,0
DA:1153,0
DA:1154,0
DA:1153,0
DA:1154,0
DA:1153,0
DA:1154,0
DA:1153,16
DA:1154,16
DA:1153,2
DA:1154,2
DA:1153,0
DA:1154,0
DA:1153,2
DA:1154,2
DA:1153,0
DA:1154,0
DA:1153,0
DA:1154,0
DA:1153,0
DA:1154,0
DA:1208,0
DA:1211,0
DA:1216,1
DA:1219,1
DA:1216,9
DA:1219,9
DA:1216,0
DA:1219,0
DA:1216,21
DA:1219,21
DA:1216,0
DA:1219,0
DA:1216,0
DA:1219,0
DA:1224,0
DA:1227,0
DA:1232,1
DA:1235,1
DA:1232,0
DA:1235,0
DA:1232,0
DA:1235,0
DA:1232,234
DA:1235,234
DA:1232,83
DA:1235,83
DA:1232,5
DA:1235,5
DA:1232,25
DA:1235,25
DA:1232,0
DA:1235,0
DA:1232,97
DA:1235,97
DA:1232,0
DA:1235,0
DA:1232,1
DA:1235,1
DA:1232,255
DA:1235,255
DA:1249,0
DA:1252,0
DA:1312,0
DA:1320,0
DA:1325,0
DA:1328,0
DA:1325,111
DA:1328,111
DA:1325,0
DA:1328,0
DA:1325,2
DA:1328,2
DA:1325,0
DA:1328,0
DA:1325,21
DA:1328,21
DA:1325,0
DA:1328,0
DA:1325,0
DA:1328,0
DA:1325,2
DA:1328,2
DA:1325,8
DA:1328,8
DA:1325,0
DA:1328,0
DA:1325,0
DA:1328,0
DA:1325,0
DA:1328,0
DA:1325,0
DA:1328,0
DA:1325,0
DA:1328,0
DA:1325,0
DA:1328,0
DA:1348,0
DA:1350,0
DA:1348,0
DA:1350,0
DA:1348,0
DA:1350,0
DA:1508,0
DA:1509,0
DA:1508,0
DA:1509,0
DA:1508,0
DA:1509,0
DA:1508,0
DA:1509,0
DA:1508,0
DA:1509,0
DA:1508,0
DA:1509,0
DA:1508,0
DA:1509,0
DA:1508,0
DA:1509,0
DA:1508,0
DA:1509,0
DA:1508,0
DA:1509,0
DA:1508,0
DA:1509,0
DA:1508,0
DA:1509,0
DA:1534,0
DA:1535,0
DA:1534,0
DA:1535,0
DA:1534,0
DA:1535,0
DA:1534,0
DA:1535,0
DA:1534,0
DA:1535,0
DA:1534,0
DA:1535,0
DA:1534,0
DA:1535,0
DA:1534,0
DA:1535,0
DA:1534,0
DA:1535,0
DA:1534,0
DA:1535,0
DA:1534,0
DA:1535,0
DA:1534,0
DA:1535,0
DA:1550,0
DA:1554,0
DA:1550,0
DA:1554,0
DA:1550,0
DA:1554,0
DA:1550,0
DA:1554,0
DA:1550,0
DA:1554,0
DA:1563,0
DA:1565,0
DA:1566,0
DA:1563,0
DA:1565,0
DA:1566,0
DA:1563,0
DA:1565,0
DA:1566,0
DA:1563,0
DA:1565,0
DA:1566,0
DA:1563,0
DA:1565,0
DA:1566,0
DA:1737,0
DA:1739,0
DA:1737,0
DA:1739,0
DA:1737,0
DA:1739,0
DA:1737,0
DA:1739,0
DA:1737,0
DA:1739,0
DA:1752,0
DA:1754,0
DA:1752,0
DA:1754,0
DA:1752,0
DA:1754,0
DA:1752,0
DA:1754,0
DA:1752,0
DA:1754,0
DA:1821,0
DA:1822,0
DA:1821,0
DA:1822,0
DA:1821,0
DA:1822,0
DA:1821,0
DA:1822,0
DA:1821,0
DA:1822,0
DA:1821,0
DA:1822,0
DA:1821,0
DA:1822,0
DA:1821,0
DA:1822,0
DA:1821,0
DA:1822,0
DA:1821,0
DA:1822,0
DA:1821,0
DA:1822,0
DA:1821,0
DA:1822,0
DA:2969,0
DA:2971,0
DA:2969,0
DA:2971,0
DA:2969,0
DA:2971,0
DA:2969,0
DA:2971,0
DA:2969,0
DA:2971,0
DA:2969,0
DA:2971,0
DA:2969,0
DA:2971,0
LF:439
LH:143
end_of_record
SF:C:\msys64\mingw64\include\c++\14.1.0\ext\atomicity.h
DA:54,0
DA:66,0
DA:71,0
DA:84,0
DA:85,0
DA:86,0
DA:92,0
DA:98,0
DA:99,0
DA:101,0
DA:108,0
DA:112,0
LF:12
LH:0
end_of_record
SF:C:\msys64\mingw64\include\c++\14.1.0\bits\stl_vector.h
FN:98,_ZNSt12_Vector_baseIN7testing8internal9TraceInfoESaIS2_EE17_Vector_impl_dataC2Ev
FNDA:0,_ZNSt12_Vector_baseIN7testing8internal9TraceInfoESaIS2_EE17_Vector_impl_dataC2Ev
FN:98,_ZNSt12_Vector_baseINSt7__cxx1112basic_stringIcSt11char_traitsIcESaIcEEESaIS5_EE17_Vector_impl_dataC1Ev
FNDA:0,_ZNSt12_Vector_baseINSt7__cxx1112basic_stringIcSt11char_traitsIcESaIcEEESaIS5_EE17_Vector_impl_dataC1Ev
FN:98,_ZNSt12_Vector_baseINSt7__cxx1112basic_stringIcSt11char_traitsIcESaIcEEESaIS5_EE17_Vector_impl_dataC2Ev
FNDA:96,_ZNSt12_Vector_baseINSt7__cxx1112basic_stringIcSt11char_traitsIcESaIcEEESaIS5_EE17_Vector_impl_dataC2Ev
FN:98,_ZNSt12_Vector_baseIN7testing8internal13edit_distance8EditTypeESaIS3_EE17_Vector_impl_dataC2Ev
FNDA:0,_ZNSt12_Vector_baseIN7testing8internal13edit_distance8EditTypeESaIS3_EE17_Vector_impl_dataC2Ev
FN:98,_ZNSt12_Vector_baseIySaIyEE17_Vector_impl_dataC2Ev
FNDA:0,_ZNSt12_Vector_baseIySaIyEE17_Vector_impl_dataC2Ev
FN:98,_ZNSt12_Vector_baseIPN7testing8internal30ParameterizedTestSuiteInfoBaseESaIS3_EE17_Vector_impl_dataC2Ev
FNDA:1,_ZNSt12_Vector_baseIPN7testing8internal30ParameterizedTestSuiteInfoBaseESaIS3_EE17_Vector_impl_dataC2Ev
FN:98,_ZNSt12_Vector_baseIN7testing14TestPartResultESaIS1_EE17_Vector_impl_dataC2Ev
FNDA:14,_ZNSt12_Vector_baseIN7testing14TestPartResultESaIS1_EE17_Vector_impl_dataC2Ev
FN:98,_ZNSt12_Vector_baseIN7testing12TestPropertyESaIS1_EE17_Vector_impl_dataC2Ev
FNDA:14,_ZNSt12_Vector_baseIN7testing12TestPropertyESaIS1_EE17_Vector_impl_dataC2Ev
FN:98,_ZNSt12_Vector_baseIPN7testing8TestInfoESaIS2_EE17_Vector_impl_dataC2Ev
FNDA:4,_ZNSt12_Vector_baseIPN7testing8TestInfoESaIS2_EE17_Vector_impl_dataC2Ev
FN:98,_ZNSt12_Vector_baseIiSaIiEE17_Vector_impl_dataC2Ev
FNDA:0,_ZNSt12_Vector_baseIiSaIiEE17_Vector_impl_dataC2Ev
FN:98,_ZNSt12_Vector_baseIPN7testing17TestEventListenerESaIS2_EE17_Vector_impl_dataC2Ev
FNDA:1,_ZNSt12_Vector_baseIPN7testing17TestEventListenerESaIS2_EE17_Vector_impl_dataC2Ev
FN:98,_ZNSt12_Vector_baseIPN7testing11EnvironmentESaIS2_EE17_Vector_impl_dataC2Ev
FNDA:1,_ZNSt12_Vector_baseIPN7testing11EnvironmentESaIS2_EE17_Vector_impl_dataC2Ev
FN:98,_ZNSt12_Vector_baseIPN7testing9TestSuiteESaIS2_EE17_Vector_impl_dataC2Ev
FNDA:1,_ZNSt12_Vector_baseIPN7testing9TestSuiteESaIS2_EE17_Vector_impl_dataC2Ev
FN:98,_ZNSt12_Vector_baseISt10shared_ptrIN7testing8internal26ThreadLocalValueHolderBaseEESaIS4_EE17_Vector_impl_dataC2Ev
FNDA:0,_ZNSt12_Vector_baseISt10shared_ptrIN7testing8internal26ThreadLocalValueHolderBaseEESaIS4_EE17_Vector_impl_dataC2Ev
FN:98,_ZNSt12_Vector_baseISt6vectorIdSaIdEESaIS2_EE17_Vector_impl_dataC2Ev
FNDA:0,_ZNSt12_Vector_baseISt6vectorIdSaIdEESaIS2_EE17_Vector_impl_dataC2Ev
FN:98,_ZNSt12_Vector_baseISt6vectorIN7testing8internal13edit_distance8EditTypeESaIS4_EESaIS6_EE17_Vector_impl_dataC2Ev
FNDA:0,_ZNSt12_Vector_baseISt6vectorIN7testing8internal13edit_distance8EditTypeESaIS4_EESaIS6_EE17_Vector_impl_dataC2Ev
FN:98,_ZNSt12_Vector_baseIdSaIdEE17_Vector_impl_dataC2Ev
FNDA:0,_ZNSt12_Vector_baseIdSaIdEE17_Vector_impl_dataC2Ev
FN:112,_ZNSt12_Vector_baseINSt7__cxx1112basic_stringIcSt11char_traitsIcESaIcEEESaIS5_EE17_Vector_impl_data12_M_copy_dataERKS8_
FNDA:0,_ZNSt12_Vector_baseINSt7__cxx1112basic_stringIcSt11char_traitsIcESaIcEEESaIS5_EE17_Vector_impl_data12_M_copy_dataERKS8_
FN:121,_ZNSt12_Vector_baseINSt7__cxx1112basic_stringIcSt11char_traitsIcESaIcEEESaIS5_EE17_Vector_impl_data12_M_swap_dataERS8_
FNDA:0,_ZNSt12_Vector_baseINSt7__cxx1112basic_stringIcSt11char_traitsIcESaIcEEESaIS5_EE17_Vector_impl_data12_M_swap_dataERS8_
FN:136,_ZNSt12_Vector_baseIySaIyEE12_Vector_implC1Ev
FNDA:0,_ZNSt12_Vector_baseIySaIyEE12_Vector_implC1Ev
FN:136,_ZNSt12_Vector_baseISt10shared_ptrIN7testing8internal26ThreadLocalValueHolderBaseEESaIS4_EE12_Vector_implC1Ev
FNDA:0,_ZNSt12_Vector_baseISt10shared_ptrIN7testing8internal26ThreadLocalValueHolderBaseEESaIS4_EE12_Vector_implC1Ev
FN:136,_ZNSt12_Vector_baseIPN7testing9TestSuiteESaIS2_EE12_Vector_implC1Ev
FNDA:1,_ZNSt12_Vector_baseIPN7testing9TestSuiteESaIS2_EE12_Vector_implC1Ev
FN:136,_ZNSt12_Vector_baseIPN7testing11EnvironmentESaIS2_EE12_Vector_implC1Ev
FNDA:1,_ZNSt12_Vector_baseIPN7testing11EnvironmentESaIS2_EE12_Vector_implC1Ev
FN:136,_ZNSt12_Vector_baseIPN7testing17TestEventListenerESaIS2_EE12_Vector_implC1Ev
FNDA:1,_ZNSt12_Vector_baseIPN7testing17TestEventListenerESaIS2_EE12_Vector_implC1Ev
FN:136,_ZNSt12_Vector_baseIN7testing8internal9TraceInfoESaIS2_EE12_Vector_implC1Ev
FNDA:0,_ZNSt12_Vector_baseIN7testing8internal9TraceInfoESaIS2_EE12_Vector_implC1Ev
FN:136,_ZNSt12_Vector_baseIiSaIiEE12_Vector_implC1Ev
FNDA:0,_ZNSt12_Vector_baseIiSaIiEE12_Vector_implC1Ev
FN:136,_ZNSt12_Vector_baseIPN7testing8TestInfoESaIS2_EE12_Vector_implC1Ev
FNDA:4,_ZNSt12_Vector_baseIPN7testing8TestInfoESaIS2_EE12_Vector_implC1Ev
FN:136,_ZNSt12_Vector_baseIN7testing12TestPropertyESaIS1_EE12_Vector_implC1Ev
FNDA:14,_ZNSt12_Vector_baseIN7testing12TestPropertyESaIS1_EE12_Vector_implC1Ev
FN:136,_ZNSt12_Vector_baseIN7testing8internal13edit_distance8EditTypeESaIS3_EE12_Vector_implC1Ev
FNDA:0,_ZNSt12_Vector_baseIN7testing8internal13edit_distance8EditTypeESaIS3_EE12_Vector_implC1Ev
FN:136,_ZNSt12_Vector_baseINSt7__cxx1112basic_stringIcSt11char_traitsIcESaIcEEESaIS5_EE12_Vector_implC1Ev
FNDA:1,_ZNSt12_Vector_baseINSt7__cxx1112basic_stringIcSt11char_traitsIcESaIcEEESaIS5_EE12_Vector_implC1Ev
FN:136,_ZNSt12_Vector_baseIPN7testing8internal30ParameterizedTestSuiteInfoBaseESaIS3_EE12_Vector_implC1Ev
FNDA:1,_ZNSt12_Vector_baseIPN7testing8internal30ParameterizedTestSuiteInfoBaseESaIS3_EE12_Vector_implC1Ev
FN:136,_ZNSt12_Vector_baseIN7testing14TestPartResultESaIS1_EE12_Vector_implC1Ev
FNDA:14,_ZNSt12_Vector_baseIN7testing14TestPartResultESaIS1_EE12_Vector_implC1Ev
FN:145,_ZNSt12_Vector_baseIdSaIdEE12_Vector_implC1ERKS0_
FNDA:0,_ZNSt12_Vector_baseIdSaIdEE12_Vector_implC1ERKS0_
FN:145,_ZNSt12_Vector_baseISt6vectorIN7testing8internal13edit_distance8EditTypeESaIS4_EESaIS6_EE12_Vector_implC1ERKS7_
FNDA:0,_ZNSt12_Vector_baseISt6vectorIN7testing8internal13edit_distance8EditTypeESaIS4_EESaIS6_EE12_Vector_implC1ERKS7_
FN:145,_ZNSt12_Vector_baseISt6vectorIdSaIdEESaIS2_EE12_Vector_implC1ERKS3_
FNDA:0,_ZNSt12_Vector_baseISt6vectorIdSaIdEESaIS2_EE12_Vector_implC1ERKS3_
FN:145,_ZNSt12_Vector_baseINSt7__cxx1112basic_stringIcSt11char_traitsIcESaIcEEESaIS5_EE12_Vector_implC1ERKS6_
FNDA:95,_ZNSt12_Vector_baseINSt7__cxx1112basic_stringIcSt11char_traitsIcESaIcEEESaIS5_EE12_Vector_implC1ERKS6_
FN:145,_ZNSt12_Vector_baseIN7testing8internal13edit_distance8EditTypeESaIS3_EE12_Vector_implC1ERKS4_
FNDA:0,_ZNSt12_Vector_baseIN7testing8internal13edit_distance8EditTypeESaIS3_EE12_Vector_implC1ERKS4_
FN:300,_ZNSt12_Vector_baseIN7testing8internal13edit_distance8EditTypeESaIS3_EE19_M_get_Tp_allocatorEv
FNDA:0,_ZNSt12_Vector_baseIN7testing8internal13edit_distance8EditTypeESaIS3_EE19_M_get_Tp_allocatorEv
FN:300,_ZNSt12_Vector_baseIN7testing8internal9TraceInfoESaIS2_EE19_M_get_Tp_allocatorEv
FNDA:0,_ZNSt12_Vector_baseIN7testing8internal9TraceInfoESaIS2_EE19_M_get_Tp_allocatorEv
FN:300,_ZNSt12_Vector_baseISt6vectorIN7testing8internal13edit_distance8EditTypeESaIS4_EESaIS6_EE19_M_get_Tp_allocatorEv
FNDA:0,_ZNSt12_Vector_baseISt6vectorIN7testing8internal13edit_distance8EditTypeESaIS4_EESaIS6_EE19_M_get_Tp_allocatorEv
FN:300,_ZNSt12_Vector_baseIySaIyEE19_M_get_Tp_allocatorEv
FNDA:0,_ZNSt12_Vector_baseIySaIyEE19_M_get_Tp_allocatorEv
FN:300,_ZNSt12_Vector_baseIN7testing12TestPropertyESaIS1_EE19_M_get_Tp_allocatorEv
FNDA:0,_ZNSt12_Vector_baseIN7testing12TestPropertyESaIS1_EE19_M_get_Tp_allocatorEv
FN:300,_ZNSt12_Vector_baseIPN7testing8TestInfoESaIS2_EE19_M_get_Tp_allocatorEv
FNDA:8,_ZNSt12_Vector_baseIPN7testing8TestInfoESaIS2_EE19_M_get_Tp_allocatorEv
FN:300,_ZNSt12_Vector_baseIiSaIiEE19_M_get_Tp_allocatorEv
FNDA:0,_ZNSt12_Vector_baseIiSaIiEE19_M_get_Tp_allocatorEv
FN:300,_ZNSt12_Vector_baseIPN7testing17TestEventListenerESaIS2_EE19_M_get_Tp_allocatorEv
FNDA:2,_ZNSt12_Vector_baseIPN7testing17TestEventListenerESaIS2_EE19_M_get_Tp_allocatorEv
FN:300,_ZNSt12_Vector_baseIPN7testing11EnvironmentESaIS2_EE19_M_get_Tp_allocatorEv
FNDA:0,_ZNSt12_Vector_baseIPN7testing11EnvironmentESaIS2_EE19_M_get_Tp_allocatorEv
FN:300,_ZNSt12_Vector_baseISt10shared_ptrIN7testing8internal26ThreadLocalValueHolderBaseEESaIS4_EE19_M_get_Tp_allocatorEv
FNDA:0,_ZNSt12_Vector_baseISt10shared_ptrIN7testing8internal26ThreadLocalValueHolderBaseEESaIS4_EE19_M_get_Tp_allocatorEv
FN:300,_ZNSt12_Vector_baseIPN7testing9TestSuiteESaIS2_EE19_M_get_Tp_allocatorEv
FNDA:3,_ZNSt12_Vector_baseIPN7testing9TestSuiteESaIS2_EE19_M_get_Tp_allocatorEv
FN:300,_ZNSt12_Vector_baseIdSaIdEE19_M_get_Tp_allocatorEv
FNDA:0,_ZNSt12_Vector_baseIdSaIdEE19_M_get_Tp_allocatorEv
